ij:_glClearStencil
ODi:__ZN35AssemblyCompanyAttribute_t90925751210set_name_0EP8String_t
NYk:_UInt16_System_IConvertible_ToChar_m2096055221_AdjustorThunk
R3g:_MaskableGraphic_OnCanvasHierarchyChanged_m1780820310
J3j:_Array_TrueForAll_TisRuntimeObject_m1084992726_gshared
Nxm:__ZN19X509Crl_t114876738816set_extensions_7EP34X509ExtensionCollection_t609554709
JTj:__Z25Il2CppCodeGenWriteBarrierI27CompressedStack_t1202932761EvPPT_S2_
K6j:__ZNK24Vector4U5BU5D_t93405643614GetAtUncheckedEj
J4n:__ZN6il2cpp2vm5Array13GetByteLengthEP11Il2CppArray
UAl:_Array_InternalArray__set_Item_TisDateTime_t3738529785_m1331437427_gshared
PRm:_KeyBuilder_get_Rng_m3373220441
GTk:_ThreadAbortException__ctor_m1955533141
gFf:_CompilerGeneratedAttribute__ctor_m3151881902
SVd:__ZN15DownloadHandler7OnAbortEv
FFa:__ZN9Scripting11UnityEngine38ExcludeFromObjectFactoryAttributeProxy12CleanupProxyEv
OVe:__ZL51AIUpdate_t2336814084_CustomAttributesCacheGeneratorP21CustomAttributesCache
iOa:__Z30GetIntermediateRendererManagerv
$Mg:_MonoMethodMessage_GetArg_m2932717642
l0m:__ZL25UnresolvedVirtualCall_170P12Il2CppObject15Ray_t3785851493S0_fiPK10MethodInfo
kDa:__ZN9Scripting11UnityEngine9Profiling13RecorderProxy9InitProxyEv
rR:__ZN10StateRange8TransferI14SafeBinaryReadEEvRT_
g6a:__Z21SourceMipLevelForBlitiiii
g2a:__Z23SetSpriteMeshIndexCountP14SharedMeshDataj
mrk:__ZNK21Dictionary_2_t338474112get_count_10Ev
X3e:__ZL72GUISkin_t1244372282_CustomAttributesCacheGenerator_m_verticalSliderThumbP21CustomAttributesCache
Coi:__ZNK51RSASslSignatureDeformatter_t3558097625_StaticFields29get_U3CU3Ef__switchU24map15_2Ev
Cwc:__ZN9ShaderLab9SubShader15FindNamedPassesERKN4core12basic_stringIcNS1_20StringStorageDefaultIcEEEER13dynamic_arrayIPNS_4PassELj0EE
j0i:_Capture_get_Index_m745081289
K9f:__ZNK26PlayableHandle_t109585380315get_m_Version_1Ev
s_e:__ZL63PlayableOutputHandle_t4208053793_CustomAttributesCacheGeneratorP21CustomAttributesCache
Baa:__ZN11UnityEngine15CloudWebService26CloudServiceEventWithParam12ToJsonStringER9JSONWrite
Fce:_CanvasScaler_get_defaultSpriteDPI_m871626936
GRm:__ZN22TextEditor_t275985536619set_m_SelectIndex_9Ei
vln:__ZNK15dense_hashtableINSt3__24pairIK10KeyWrapperIPK19Il2CppGenericMethodEPK26Il2CppGenericMethodIndicesEES6_N6il2cpp8metadata23Il2CppGenericMethodHashEN14dense_hash_mapIS6_SA_SE_NS6_14EqualsComparerINSD_26Il2CppGenericMethodCompareEEENS0_9allocatorISB_EEE9SelectKeyESI_SK_E10test_emptyEj
eGc:__Z59Register_UnityEngine_PlayerConnectionInternal_DisconnectAllv
rUl:__ZNK24Collection_1_t189530167114get_syncRoot_1Ev
nve:__ZL66RuntimeArray_CustomAttributesCacheGenerator_Array_Sort_m3287581440P21CustomAttributesCache
cfa:__ZdlPv
xQe:__ZL54Application_t1852185770_CustomAttributesCacheGeneratorP21CustomAttributesCache
ms:__ZN11UnityEngine9Animation28GenericAnimationBindingCacheD2Ev
gQk:_UTF8Encoding_GetHashCode_m641510078
eqm:__ZN26X509Certificate_t48924302513set_m_until_3E20DateTime_t3738529785
Cym:_X509Store_LoadCrl_m1881903843
PCl:_Array_Sort_TisUICharInfo_t75501106_TisUICharInfo_t75501106_m722747892_gshared
Jyh:_CaseInsensitiveComparer__ctor_m2101975011
ixm:__ZNK22X509Stores_t137393623716get__storePath_0Ev
$5k:__Z67RuntimeInvoker_Byte_t1134296376_Int32_t2950945753_Int32_t2950945753PFvvEPK10MethodInfoPvPS4_
ySk:__ZNK32RegisteredWaitHandle_t152953845415get__callback_2Ev
C4k:__Z53RuntimeInvoker_UInt32_t2560061978_Decimal_t2948259380PFvvEPK10MethodInfoPvPS4_
Plc:__Z18RestoreRenderStateR20CameraRenderOldStateR17ShaderPassContext
ATg:__Z25Il2CppCodeGenWriteBarrierI29AnimationTriggers_t2532145056EvPPT_S2_
yKb:__Z18Transfer_BlittableI24GenerateTypeTreeTransferLb0E11ColorRGBA32EvRK29SerializationCommandArgumentsR31RuntimeSerializationCommandInfo
NCa:__ZN9Scripting11UnityEngine9Rendering23GraphicsDeviceTypeProxy12CleanupProxyEv
OQb:__Z25scripting_class_from_name17ScriptingImagePtrPKcS1_
gAl:_Array_InternalArray__Insert_TisSingle_t1397266774_m3161726127_gshared
PKn:__ZN14dense_hash_mapI10KeyWrapperINSt3__24pairIPK12PropertyInfoP11Il2CppClassEEEj17ReflectionMapHashIS8_ENS9_14EqualsComparerINS1_8equal_toIS8_EEEENS1_9allocatorINS2_IKS9_jEEEEE15set_deleted_keyERSH_
FSb:__Z29scripting_class_enum_basetype17ScriptingClassPtr
hTn:__ZN6il2cpp2vm22EmbeddedResourceRecordC2EOS1_
vQl:_List_1_Clear_m3097985365_gshared
Cxn:__ZN6il2cpp6icalls8mscorlib6System12PropertyPairC2EPK12PropertyInfoP11Il2CppClass
E6n:__GLOBAL__sub_I_Console_cpp
bWi:_OidCollection_get_SyncRoot_m3531934854
F_c:__ZN6IDList10BeginOnGUIEv
gIc:__Z18RegisterUnityClassI11TimeManagerEvPKc
eNa:__ZNK12BaseRenderer18GetRenderNodeCountEv
ecd:__ZN16PhysicsManager2D7RaycastERK3RayfiR12RaycastHit2D
hWm:__ZN30GenericInterfaceActionInvoker1IP24SingleU5BU5D_t1444911251E6InvokeEPK10MethodInfoP12Il2CppObjectS1_
Trf:_PropertyBuilder_get_CanWrite_m2657562188
tdk:__ZN47MSCompatUnicodeTableUtil_t88013251_StaticFields12set_Level3_4EP28CodePointIndexer_t4134431086
CVh:_InternalEnumerator_1_get_Current_m1477715453_gshared
Z5l:_ReadOnlyCollection_1_get_Item_m3865786060_gshared
lFk:_Enumerator__ctor_m2827156589_AdjustorThunk
Lsb:__ZNK20LocalFileSystemPosix6ParentERK13FileEntryDataRN4core12basic_stringIcNS3_20StringStorageDefaultIcEEEE
RTe:__ZL118TouchScreenKeyboard_t731888065_CustomAttributesCacheGenerator_TouchScreenKeyboard_Open_m3609399077____textPlaceholder6P21CustomAttributesCache
oQi:__ZN26HttpWebRequest_t166943651519set_certificates_11EP37X509CertificateCollection_t3399372417
gKf:__ZNK29ProcessMessageRes_t371054714517get_arrResponse_0Ev
f_f:__ZNK35DSASignatureDeformatter_t36779551729get_dsa_0Ev
kYl:_Collection_1_System_Collections_IList_Remove_m1476284619_gshared
wbk:_ContractionComparer__ctor_m3439667810
hAi:_MonoType_IsPrimitiveImpl_m2401722705
ULj:_SHA1CryptoServiceProvider__ctor_m4195188793
Utg:__ZN39UnitySynchronizationContext_t188745378620set_m_MainThreadID_2Ei
HLe:__ZL64MissingFieldException_t1989070983_CustomAttributesCacheGeneratorP21CustomAttributesCache
hke:_Dropdown_Hide_m504034854
LBi:_NumberFormatter_NumberToString_m264078176
HNf:__ZN25TypeTagU5BU5D_t156391866414SetAtUncheckedEjh
y0b:__ZN7ApiGLES17CopyBufferSubDataEjjlll
vak:_Array_InternalArray__ICollection_CopyTo_TisUInt64_t4134040092_m691431926_gshared
Orj:__ZN43DateTimeFormatInfo_t2405853701_StaticFields36set_theInvariantDateTimeFormatInfo_9EP30DateTimeFormatInfo_t2405853701
BSi:_IPAddress_ToString_m1181734207
nHh:_InternalEnumerator_1_System_Collections_IEnumerator_Reset_m1223176161_gshared
dOk:_StringBuilder_Append_m1965104174
V7c:__ZN5Unity9rapidjson15GenericDocumentINS0_4UTF8IcEE13JSONAllocatorS4_E11ParseStreamILj1ES3_NS0_25GenericInsituStringStreamIS3_EEEERS5_RT1_
Rhn:__ZNSt3__26vectorIPK10Il2CppTypeNS_9allocatorIS3_EEE7reserveEj
PTj:__ZN37SecurityCriticalAttribute_t227932284412set__scope_0Ei
Ghm:_UnityAction_1_Invoke_m610765085_gshared
Mph:_Array_GetValue_m116098292
QRi:__ZNK20IPAddress_t24177759015get_m_Numbers_2Ev
U7h:_Kernel_modInverse_m652700340
Rab:__ZNK14Texture2DArray26CanReuploadDataToGfxDeviceEv
Acm:_U3CCreateWhereIteratorU3Ec__Iterator1D_1_System_Collections_Generic_IEnumeratorU3CTSourceU3E_get_Current_m1909387290_gshared
T6e:__ZL57CanvasRenderer_t2598313366_CustomAttributesCacheGeneratorP21CustomAttributesCache
BLa:__ZN17GlobalGameManager23VirtualRedirectTransferER17RemapPPtrTransfer
PCd:_sfnt_stream_close
dZc:__Z19AppendTransformPathRN4core12basic_stringIcNS_20StringStorageDefaultIcEEEEPKc
d$c:__ZN5IMGUI18RepaintModalWindowER8GUIState
Omm:__ZNK28SslHandshakeHash_t210758177217get_innerPadMD5_8Ev
VLi:_HybridDictionary_get_IsSynchronized_m2987560362
QQa:__ZNK15dense_hashtableINSt3__24pairIKN9ShaderLab7Program23ShaderKeywordSetAndHashEPKNS2_10SubProgramEEES4_NS3_24ShaderKeywordHashFunctorEN14dense_hash_mapIS4_S8_SA_NS0_8equal_toIS4_EE13stl_allocatorIS9_L18MemLabelIdentifier67ELi16EEE9SelectKeyESD_SG_E23find_position_with_hashERS5_j
ujk:__ZN16ASN1_t211416083211set_elist_2EP21ArrayList_t2718874744
ptj:_CompareInfo_Finalize_m404687489
IMb:__Z18Transfer_BlittableI19StreamedBinaryWriteLb0E11ColorRGBA32EvRK29SerializationCommandArgumentsR31RuntimeSerializationCommandInfo
jQk:_UTF8Decoder_GetChars_m1236346907
Kkg:_Quaternion_GetHashCode_m2636680144_AdjustorThunk
mMh:__ZN32InternalEnumerator_1_t281129360011set_array_0EP11Il2CppArray
R2e:__ZL99AudioSource_t3935305588_CustomAttributesCacheGenerator_AudioSource_t3935305588____clip_PropertyInfoP21CustomAttributesCache
R9n:__ZN6il2cpp8metadata13GenericMethod9GetMethodEPK19Il2CppGenericMethod
Oq:__ZNSt3__26vectorIN4core12basic_stringIcNS1_20StringStorageDefaultIcEEEENS_9allocatorIS5_EEE7reserveEj
tFi:_Default_SelectProperty_m1220817815
NQg:_RemotingConfiguration_IsRemotelyActivatedClientType_m4117048589
btg:_Transform_TransformPoint_m226827784
Clm:_ListPool_1_Get_m738675669_gshared
kVk:_TimeSpan_get_Hours_m550761902
tYb:__ZN13GfxDeviceGLES11SetViewportERK5RectTIiE
aso:_Portal__ctor_m2633679322
ado:__ZN6il2cpp2vm13ComObjectBaseC2EP12Il2CppObject
u8d:__ZNK33StandaloneInputModule_t276046910126get_m_ForceModuleActive_29Ev
Qf:_emscripten_glDepthRange
Tnm:_SslStreamBase_BeginNegotiateHandshake_m4180435790
Roc:__ZNSt3__26vectorINS_4pairIN4core12basic_stringIcNS2_20StringStorageDefaultIcEEEES6_EE13stl_allocatorIS7_L18MemLabelIdentifier38ELi16EEE12__move_rangeEPS7_SC_SC_
itc:__Z14resize_trimmedINSt3__26vectorIN9ShaderLab20SerializedSubProgram12UAVParameterENS0_9allocatorIS4_EEEEEvRT_j
m8c:__ZN5Unity9rapidjson13GenericReaderINS0_4UTF8IcEES3_13JSONAllocatorE11ParseObjectILj1ENS0_25GenericInsituStringStreamIS3_EENS0_15GenericDocumentIS3_S4_S4_EEEEvRT0_RT1_
cq:__ZN6Object23VirtualRedirectTransferER19StreamedBinaryWrite
cLh:__ZN32InternalEnumerator_1_t126723150811set_array_0EP11Il2CppArray
yxj:__ZNK27NumberFormatInfo_t43587713821get_perMilleSymbol_28Ev
Wcf:__ZL62Selectable_t3250028441_CustomAttributesCacheGenerator_m_ColorsP21CustomAttributesCache
eaj:_Convert_ToDateTime_m2616935982
Qom:_SslStreamBase_EndWrite_m4073224031
eoa:__ZNSt3__218__insertion_sort_3IRNS_6__lessI14ObjectLoadDataS2_EEPS2_EEvT0_S6_T_
ijj:__ZN20Delegate_t118839281317set_method_info_6EP12MethodInfo_t
Xbh:__ZNK41U3CClickRepeatU3Ec__Iterator0_t344264893516get_U24current_2Ev
NDm:_Regex_GetGroupNamesArray_m3575729002
F5a:__ZN4crndL20crnd_default_reallocEPvjPjbS0_
Atl:__Z54RuntimeInvoker_CustomAttributeNamedArgument_t287865710PFvvEPK10MethodInfoPvPS4_
k$e:__ZL122SupportedRenderingFeatures_t353898663_CustomAttributesCacheGenerator_U3CrendererSupportsReflectionProbesU3Ek__BackingFieldP21CustomAttributesCache
NJn:__ZN15dense_hashtableINSt3__24pairIK10KeyWrapperIPK22Il2CppGenericParameterEPK24MonoGenericParameterInfoEES6_N6il2cpp5utils11PointerHashIS4_EEN14dense_hash_mapIS6_SA_SF_NS6_14EqualsComparerINS0_8equal_toIS5_EEEENS0_9allocatorISB_EEE9SelectKeyESK_SM_E13set_empty_keyERKSB_
v3a:__ZN18SpriteAtlasManager19AddRequestingSpriteE4PPtrI6SpriteE
NLc:__ZN16PackedQuatVector9PackQuatsEP11Quaternionfi
Vdm:_Predicate_1_EndInvoke_m3987519925_gshared
o0:__ZNK4PPtrI9AudioClipEptEv
OKj:_UnmanagedMemoryStream_Write_m930787521
Ukc:__ZN23ScriptableRenderContextC2Ev
ZK:__ZN7mecanim9animation18ClipMuscleConstant8TransferI24GenerateTypeTreeTransferEEvRT_
wpe:_GridLayoutGroup_get_spacing_m2409263614
s_i:__ZNK38X509Certificate2Enumerator_t331671381216get_enumerator_0Ev
Kw:__ZNSt3__26vectorIN13AvatarBuilder14NamedTransformENS_9allocatorIS2_EEE21__push_back_slow_pathIS2_EEvOT_
ONl:__ZN18List_1_t123460505112set__items_1EP26UIVertexU5BU5D_t1981460040
Vng:_Transform_get_parent_m835071599
ODd:_UNITY_FT_Stream_GetChar
POm:_GUIStyle_get_fixedWidth_m2576616348
smm:_ObjectPool_1_get_countAll_m819305395_gshared
XGk:__ZNK18List_1_t407257603411get__size_2Ev
wLl:_List_1_ToArray_m190175978_gshared
O$m:__ZL25UnresolvedVirtualCall_145P12Il2CppObject34ScriptableRenderContext_t274343796S0_PK10MethodInfo
Ndk:__ZNK26SimpleCollator_t287783472918get_unsafeFlags_12Ev
MSb:__Z26BuildSerializationCacheFor17ScriptingClassPtrRb
Z_m:__ZL25UnresolvedVirtualCall_102P12Il2CppObject28StreamingContext_t3711869237PK10MethodInfo
K0d:_EventSystem_get_firstSelectedGameObject_m1576206896
s2b:__ZN7ApiGLES15BlitFramebufferEN2gl6HandleILNS0_10ObjectTypeE9EEENS0_15FramebufferReadES3_S3_iiiiiiiiNS0_15FramebufferTypeE
sNn:_il2cpp_class_get_name
Nv:__ZN13AvatarBuilder23IsValidHumanDescriptionERK16HumanDescriptionRN4core12basic_stringIcNS3_20StringStorageDefaultIcEEEEb
vUh:_InternalEnumerator_1_System_Collections_IEnumerator_get_Current_m3553395619_AdjustorThunk
Rxe:__ZL70AssemblyVersionCompatibility_t766556580_CustomAttributesCacheGeneratorP21CustomAttributesCache
PZe:__ZL60ReadOnlyAttribute_t3518714744_CustomAttributesCacheGeneratorP21CustomAttributesCache
Dph:_Array_SetValue_m3998268557
tAg:_ServerContextTerminatorSink__ctor_m2519287841
qee:_ColorBlock_set_highlightedColor_m2089444414_AdjustorThunk
xpl:__Z59RuntimeInvoker_Boolean_t97287965_X509ChainStatus_t133602714PFvvEPK10MethodInfoPvPS4_
Ehl:__Z52RuntimeInvoker_Boolean_t97287965_Vector3_t3722313464PFvvEPK10MethodInfoPvPS4_
Psf:__ZN23TypeBuilder_t107394815414set_methods_14EP31MethodBuilderU5BU5D_t3705301900
l1j:_Array_get_swapper_TisColor32_t2600501292_m2310851009_gshared
SYb:__ZN13GfxDeviceGLES35InitializeGPUSkinPoseBufferInternalEP17GPUSkinPoseBuffer
Pzd:_otv_PairPos_validate
IIe:__ZL63ThreadStateException_t3003788475_CustomAttributesCacheGeneratorP21CustomAttributesCache
XB:__ZN7mecanim9animation14CopyHumanPosesEPKNS0_18AnimationNodeStateEPS1_RKNS_6bitsetILj83EEE
Kxn:__ZN6il2cpp6icalls8mscorlib6SystemL8IsStaticEPK12PropertyInfo
mVb:__Z9InitInputv
GJn:__ZN30dense_hashtable_const_iteratorINSt3__24pairIK10KeyWrapperIPK22Il2CppGenericParameterEPK24MonoGenericParameterInfoEES6_N6il2cpp5utils11PointerHashIS4_EEN14dense_hash_mapIS6_SA_SF_NS6_14EqualsComparerINS0_8equal_toIS5_EEEENS0_9allocatorISB_EEE9SelectKeyESK_SM_E30advance_past_empty_and_deletedEv
mLc:__Z23ClearVertexDataChannelsjj17ShaderChannelMaskR10VertexData
Gko:__ZNSt3__26__treeINS_12__value_typeINS_12basic_stringIcNS_11char_traitsIcEENS_9allocatorIcEEEEPFvvEEENS_19__map_value_compareIS7_SA_NS_4lessIS7_EELb1EEENS5_ISA_EEE13__lower_boundIS7_EENS_15__tree_iteratorISA_PNS_11__tree_nodeISA_PvEEiEERKT_SM_PNS_15__tree_end_nodeIPNS_16__tree_node_baseISK_EEEE
U8h:__ZN16VirtFuncInvoker2IP22BigInteger_t2902905090iP12Il2CppObjectE6InvokeEjS3_iS3_
JNb:__Z29Transfer_Blittable_ArrayFieldI19StreamedBinaryWrite8Vector4fEvRT_R9ArrayInfoRK23StaticTransferFieldInfo
isj:__ZN30DateTimeFormatInfo_t240585370140set__UniversalSortableDateTimePattern_24EP8String_t
Hwb:__ZN16MemoryFileSystem6DeleteER13FileEntryDatab
t9k:__Z81RuntimeInvoker_Void_t1185182177_RuntimeObject_Int64_t3736567304_Int32_t2950945753PFvvEPK10MethodInfoPvPS4_
w$h:__ZN22Enumerator_t195756751624get_address_of_current_3Ev
xMk:_List_1_set_Item_m1979164443_gshared
H8j:_Array_InternalArray__ICollection_Add_TisLink_t3209266973_m77922316_gshared
ksh:_Boolean_System_IConvertible_ToUInt16_m3465173538_AdjustorThunk
qWg:_InputField_get_keyboardType_m1248105267
vGb:__Z29Transfer_Blittable_ArrayFieldI14SafeBinaryReadyEvRT_R9ArrayInfoRK23StaticTransferFieldInfo
v0:__ZN20SoundChannelInstance15setChannelGroupEPN4FMOD12ChannelGroupE
lBm:_Match__ctor_m2425511580
osd:__ZN9Scripting11UnityEngine18CharacterInfoProxy9InitProxyEv
Vye:__ZL63FileNotFoundException_t225391025_CustomAttributesCacheGeneratorP21CustomAttributesCache
Bb:invoke_vifffii
oyf:_MonoMethod__ctor_m3792454563
cvb:__ZNK25MultiBlocksMemoryFileData5CloneEv
arh:_AsyncCallback_BeginInvoke_m2710486612
mho:_GC_add_ext_descriptor
tAn:__ZNK15dense_hashtableINSt3__24pairIK10KeyWrapperINS1_IPK14Il2CppAssemblyP11Il2CppClassEEEjEES9_17ReflectionMapHashIS8_EN14dense_hash_mapIS9_jSD_NS9_14EqualsComparerINS0_8equal_toIS8_EEEENS0_9allocatorISB_EEE9SelectKeyESI_SK_E23find_position_with_hashERSA_j
ptm:__ZN18PKCS12_t410153306114set__keyBags_2EP21ArrayList_t2718874744
sFl:_LayoutGroup_SetProperty_TisSingle_t1397266774_m793506911_gshared
ejo:__ZN6il2cpp2os14WindowsRuntime22GetRestrictedErrorInfoEv
Tqj:__Z25Il2CppCodeGenWriteBarrierI26SimpleCollator_t2877834729EvPPT_S2_
_Wf:_CryptoConfig_CreateFromName_m1538277313
fan:_WaitForEndOfFrame__ctor_m1381314187
arf:__ZN31OpCodes_t126150456_StaticFields15set_Prefix7_191E17OpCode_t123070264
cso:__ZN18Portal_t102454067114set_animator_8EP19Animator_t434523843
mub:__ZN17ArchiveFileSystem11CreateAsDirER13FileEntryData
vAo:dynCall_iiiiiiiiiiii
LYn:__ZNK24dense_hashtable_iteratorINSt3__24pairIK10KeyWrapperIP14Il2CppIUnknownEjEES5_N6il2cpp5utils11PointerHashIS3_EEN14dense_hash_mapIS5_jSB_NS5_14EqualsComparerINS0_8equal_toIS4_EEEENS0_9allocatorIS7_EEE9SelectKeyESG_SI_EneERKSL_
Mkm:__ZN25TweenRunner_1_t305552545813set_m_Tween_1EP12Il2CppObject
FWg:_InputField_set_caretPositionInternal_m3823580651
VPd:__ZN18UnityConnectClient16IsServiceEnabledEv
Q5f:__ZN24CullingGroup_t209631876822set_m_OnStateChanged_1EP24StateChanged_t2136737110
fxb:__ZN22VertexDeclarationCacheD0Ev
xJg:_MethodResponse_InitMethodProperty_m3208531417
Hpb:__ZL26KeywordSetToStringDontSortRKNSt3__26vectorIN4core12basic_stringIcNS1_20StringStorageDefaultIcEEEENS_9allocatorIS5_EEEERS5_
jwa:__ZN6prcoreL17RemapGenericFloatI16TexFormatRGFloat17TexFormatRGBAHalfEEvPKNS_9InnerInfoE
zkg:__ZNK22Quaternion_t23019283317get_z_2Ev
t2:__ZN12AudioManager22CreateFMODSoundFromWWWEP10IWWWStream15FMOD_SOUND_TYPE17FMOD_SOUND_FORMATjjbbP10SampleClip
KDc:__ZNK32RendererMaterialAnimationBinding15GenerateBindingERKN4core12basic_stringIcNS0_20StringStorageDefaultIcEEEEbRN11UnityEngine9Animation14GenericBindingE
dBf:_TargetException__ctor_m4172127019
mlj:__ZNK22StackTrace_t159864545716get_debug_info_2Ev
RHd:__GLOBAL__sub_I_TilemapScriptingClasses_cpp
lKl:_List_1_CheckCollection_m274117203_gshared
yEa:__ZN9Scripting11UnityEngine21GradientAlphaKeyProxy9InitProxyEv
qma:__ZN8Remapper23GetOrGenerateInstanceIDERK26SerializedObjectIdentifier
vI:__ZN17AnimationCurveTplI8Vector3fEC2ERKS1_
yfe:_ColorTween_get_startColor_m3792586410_AdjustorThunk
wrb:__ZN17FileSystemHandler10AtomicMoveER13FileEntryDataS1_
T5k:__Z85RuntimeInvoker_Void_t1185182177_Int32_t2950945753_Int32_t2950945753_Int32_t2950945753PFvvEPK10MethodInfoPvPS4_
DKf:_BinaryFormatter_get_SurrogateSelector_m2111882017
Ywn:__ZNSt3__26__treeIP11Il2CppClassNS_4lessIS2_EENS_9allocatorIS2_EEE12__find_equalIS2_EERPNS_16__tree_node_baseIPvEERPNS_15__tree_end_nodeISC_EERKT_
Xfa:__ZN9profiling21GetProfilerManagerPtrEv
yPd:__ZN9Scripting11UnityEngine25RemoteConfigSettingsProxy9InitProxyEv
dVj:__ZNK25SecurityFrame_t142246247513get__assert_2Ev
Zti:_CustomInfo__ctor_m426096741
u1d:_EventSystem_ToString_m3779610692
GYk:__ZNK26TypedReference_t149110811910get_type_0Ev
cpi:_RecordProtocol_BeginReceiveRecord_m295321170
A2a:__ZN6Sprite8TransferI24GenerateTypeTreeTransferEEvRT_
_hh:__ZN19SafeBag_t396124819911set__asn1_1EP16ASN1_t2114160832
Dxg:_SoapTypeAttribute_get_IsInteropXmlType_m629667929
uYc:__Z48Register_UnityEngine_Transform_SetAsFirstSiblingv
XMh:_InternalEnumerator_1_System_Collections_IEnumerator_get_Current_m694606607_gshared
F2a:__ZN7SubMesh8TransferI24GenerateTypeTreeTransferEEvRT_
st:__ZN9Scripting11UnityEngine31AnimatorOverrideControllerProxy12CleanupProxyEv
cdo:__ZN14Il2CppIMarshalC2Ev
dIm:_Literal_IsComplex_m4067122560
ben:_NativeTypeAttribute__ctor_m133676646
akj:__ZNK25DelegateEntry_t101958416112get_target_2Ev
sTb:__ZN19GfxThreadableDevice20SetShadersThreadableEPP10GpuProgramPPK20GpuProgramParametersPKPKh
s$l:_Collection_1_System_Collections_IList_Contains_m296643274_gshared
eLm:__ZNK14Uri_t10023632421get_cachedToString_14Ev
fCj:_DirectoryInfo__ctor_m126519516
Nvf:_MethodBase_GetMethodFromIntPtr_m3014201362
E4g:__ZN17Shadow_t77307431922set_m_EffectDistance_6E19Vector2_t2156229523
rYl:__ZN21InterfaceFuncInvoker1I19Color32_t2600501292iE6InvokeEjP11Il2CppClassP12Il2CppObjecti
dHm:_Reference_get_CapturingGroup_m3861468528
z5k:__Z40RuntimeInvoker_TypeAttributes_t113483779PFvvEPK10MethodInfoPvPS4_
_7h:__ZNK28BigIntegerU5BU5D_t234995247714GetAtUncheckedEj
_Xc:__ZN9Transform23SetSiblingIndexInternalEib
eLl:_List_1_Clear_m1143167521_gshared
M3c:__ZN9JSONWrite8TransferI13dynamic_arrayIaLj0EEEEvRT_PKc17TransferMetaFlags
zJf:_ChannelServices_IsLocalCall_m3035930722
mwo:___fseeko
Kig:_CreateOutputMethod__ctor_m3884516706
Ukh:_X509Extension_Equals_m1222951829
pA:__ZN7mecanim5human12HumanPoseSubERNS0_9HumanPoseERKS1_S4_
avl:__Z37RuntimeInvoker_Enumerator_t1789501480PFvvEPK10MethodInfoPvPS4_
w0n:__ZN6il2cpp8metadata15GenericMetadata15GetGenericClassEiPK17Il2CppGenericInst
ghk:__ZN22BigInteger_t290290508910set_data_1EP24UInt32U5BU5D_t2770800703
$uh:_Char_GetTypeCode_m2433327340_AdjustorThunk
ZEb:__Z18Transfer_BlittableI14SafeBinaryReadLb0E10Matrix4x4fEvRK29SerializationCommandArgumentsR31RuntimeSerializationCommandInfo
cSb:__Z24GetFixedBehaviourManagerv
Yte:__ZL69IntPtr_t_CustomAttributesCacheGenerator_IntPtr_op_Equality_m408849716P21CustomAttributesCache
Uvn:__ZN6il2cpp2vm10ThreadPool4WaitEP17Il2CppAsyncResultPPv
Rjh:_PKCS12_Encrypt_m2617413749
QB:__ZN7mecanim9animation24CreateAnimationNodeStateERKNS_18ValueArrayConstantEbbbR20RuntimeBaseAllocator
Vkg:_Random_get_insideUnitSphere_m3252929179
m9h:__ZN16ASN1_t211416083312set_m_nTag_0Eh
auo:_vfprintf
I$c:__ZN10GUIManager12AddGUIScriptER8ListNodeI13MonoBehaviourE
c9i:_DateTime_get_Month_m1566006993
vFk:_Enumerator_System_Collections_IEnumerator_get_Current_m472556657_AdjustorThunk
H6i:_Stack_Clear_m2010200235
Aga:__ZNSt3__26__treeI19RepeatingLogMessageNS_4lessIS1_EE13stl_allocatorIS1_L18MemLabelIdentifier74ELi16EEE12__find_equalIS1_EERPNS_16__tree_node_baseIPvEERPNS_15__tree_end_nodeISC_EERKT_
Awd:_cf2_getVStore
i6d:_PointerEventData_set_pointerPressRaycast_m1363193059
Yac:__ZN20DynamicPropertySheetD0Ev
ebn:__ZNK27ContactFilter2D_t380520344121get_maxNormalAngle_10Ev
XGf:_SafeHandle_Dispose_m4229010569
Voc:__ZN14SafeBinaryRead17RegisterConverterEPKcS1_PFbPvRS_E
ZQe:__ZL77RuntimePlatform_t4159857903_CustomAttributesCacheGenerator_OSXDashboardPlayerP21CustomAttributesCache
ktm:_SubjectAltNameExtension_get_IPAddresses_m1641002124
zKi:_FieldBuilder_SetValue_m828035213
bx:__ZN7mecanim6memory16ChainedAllocator7ReserveEj
o1a:__ZN15NameToObjectMapI6ShaderNSt3__23mapI4PPtrIS0_EN4core12basic_stringIcNS5_20StringStorageDefaultIcEEEENS1_4lessIS4_EENS1_9allocatorINS1_4pairIKS4_S9_EEEEEENS1_8multimapIS9_S4_NSA_IS9_EENSC_INSD_IKS9_S4_EEEEEEE4FindERSK_
E7l:_ReadOnlyCollection_1_System_Collections_IList_get_IsFixedSize_m733459177_gshared
lHg:_CallContext__ctor_m383148220
Tw:__ZN6Avatar23VirtualRedirectTransferER19StreamedBinaryWrite
lcm:__ZN28GenericInterfaceFuncInvoker0IfE6InvokeEPK10MethodInfoP12Il2CppObject
vue:__ZL72Enum_t4135868527_CustomAttributesCacheGenerator_Enum_ToObject_m121962870P21CustomAttributesCache
WLk:__ZN23InterfaceActionInvoker2IP24ObjectU5BU5D_t2843939325iE6InvokeEjP11Il2CppClassP12Il2CppObjectS1_i
okg:__ZN22Quaternion_t23019283317set_y_1Ef
xYc:__Z21Object_CUSTOM_DestroyP12Il2CppObjectf
ZRe:__ZL99SetupCoroutine_t2062820429_CustomAttributesCacheGenerator_SetupCoroutine_InvokeMoveNext_m3199342729P21CustomAttributesCache
j7b:__ZN8Material26ResetAllCachedMaterialDataEP6Shader
Rwm:__ZN20X509Chain_t86378360011set_roots_0EP37X509CertificateCollection_t1542168550
a8m:__ZN21HumanBone_t246533951811set_limit_2E22HumanLimit_t2901552972
jie:__ZN22OptionData_t327028235212set_m_Text_0EP8String_t
QEd:_UNITY_TT_Get_MM_Var
_Ba:__ZN9Scripting11UnityEngine3U2D23SpriteAtlasManagerProxy9InitProxyEv
uTf:_ObjectManager_AddFixup_m2154325362
eXh:_Comparer_1__cctor_m3761458313_gshared
vhj:_DateTimeOffset_CompareTo_m1350732322_AdjustorThunk
Z:invoke_diddi
eO:__ZN7mecanim4hand17Hand2SkeletonPoseEPKNS0_4HandEPKNS_8skeleton8SkeletonEPKNS0_8HandPoseEPNS4_13SkeletonPoseTIN4math4trsXEEE
hKd:__ZNK2UI6Canvas13GetRenderModeEv
l8f:_PersistentCall__ctor_m1217622171
_7j:_Array_compare_TisCustomAttributeTypedArgument_t2723150157_m1384644047_gshared
ctk:__ZN26KeyValuePair_2_t25302173199set_key_0EP12Il2CppObject
ygh:_StrongName_get_TokenAlgorithm_m1794722022
Eyl:__ZN36RijndaelManagedTransform_t41026010149set__st_0EP28RijndaelTransform_t631222241
iEb:__Z18Transfer_BlittableI14SafeBinaryReadLb0EiEvRK29SerializationCommandArgumentsR31RuntimeSerializationCommandInfo
ksn:__ZN6il2cpp2vm13MetadataCache30GetPropertyDefinitionFromIndexEi
Yyi:__Z25Il2CppCodeGenWriteBarrierI23IntComparer_t3812095803EvPPT_S2_
BBg:_CrossContextDelegate_EndInvoke_m3186232431
PQd:__ZN22BaseUnityConnectClient17InitializeSessionERKN4core12basic_stringIcNS0_20StringStorageDefaultIcEEEES6_N19CloudServiceHandler13InitModeFlagsE
NKj:__ZNK33UnmanagedMemoryStream_t423411766912get_Closed_8Ev
Bkl:__Z74RuntimeInvoker_RuntimeObject_Int32_t2950945753_RuntimeObject_RuntimeObjectPFvvEPK10MethodInfoPvPS4_
TQl:_List_1_get_Item_m200663048_gshared
Zpk:__ZN24Dictionary_2_t144469424912set_count_10Ei
xKe:__ZL79Convert_t2465617642_CustomAttributesCacheGenerator_Convert_ToUInt16_m4211508274P21CustomAttributesCache
rS:__ZN15SerializeTraitsI9OffsetPtrIN7mecanim9animation23BlendDirectDataConstantEEE8TransferI24GenerateTypeTreeTransferEEvRS4_RT_
clk:__ZNK22DSAManaged_t280026018216get_m_disposed_3Ev
WQg:__ZN41RemotingServices_t1401195504_StaticFields29set__serializationFormatter_1EP27BinaryFormatter_t3197753202
qGo:_emscripten_glDeleteBuffers__wrapper
dNh:_InternalEnumerator_1_MoveNext_m3664960764_AdjustorThunk
zQc:__ZN13MonoBehaviour34StopCoroutineFromEnumeratorManagedE18ScriptingObjectPtr
Wt:__ZN9Scripting11UnityEngine10Animations36AnimationMotionXToDeltaPlayableProxy12CleanupProxyEv
cAc:__ZN2UI13RectTransform28HandleParentHierarchyChangesEPK15TransformAccessj
lBg:__ZN21InterfaceFuncInvoker0IP20Identity_t1873279371E6InvokeEjP11Il2CppClassP12Il2CppObject
sIl:_List_1__ctor_m1345008423_gshared
RCd:_gray_raster_reset
gRk:__ZN37Thread_t2300836069_ThreadStaticFields10set__ec_44EP28ExecutionContext_t1748372627
hu:__ZN16MecanimAnimation40GetReadWriteGlobalSpaceSkeletonPoseFenceEPN5Unity9ComponentE
s8m:_Vector3__ctor_m1719387948_AdjustorThunk
LPf:__ZNK31OpCodes_t126150456_StaticFields14get_Brfalse_56Ev
j9i:_DateTimeOffset__ctor_m2084804982
jBd:_UNITY_tt_face_load_pclt
XDb:__ZN9profiling17ScriptingProfiler31UpdateRegisteredScriptingEventsEv
DPc:__ZL34GetComponentsImplementationRecurseILb1ELi0ELi2EEbR10GameObjectbRK17CompareParametersRK39GetComponentsImplementation_ReturnValue
Zkd:__ZN10ClipperLib7Clipper24InsertLocalMinimaIntoAELEx
Pcg:_Material_GetTexture_m3545614349
P3h:__ZN22Enumerator_t253771315232get_address_of_host_enumerator_0Ev
qOg:__ZN25ReturnMessage_t137698560814set__outArgs_0EP24ObjectU5BU5D_t2843939325
cab:__ZN13ScreenManager22SetResolutionImmediateEii14FullscreenModei
D3k:__Z64RuntimeInvoker_RuntimeObject_Int32_t2950945753_Int16_t2552820387PFvvEPK10MethodInfoPvPS4_
lEi:__ZN23AssemblyName_t27093193811set_flags_7Ei
fPn:__ZN6il2cpp2gc9AllocatorIP12Il2CppThreadEC2Ev
wun:_RemoteSettings_RemoteSettingsBeforeFetchFromServer_m4228537265
lza:__ZL47__ManagedRegistrationHelperFunction_CameraProxyPv
_0i:__ZN17Group_t246820578613set_success_4Eb
cxk:_EqualityComparer_1__cctor_m4244842342_gshared
gsk:_Dictionary_2__ctor_m2817523597_gshared
DDf:__Z23il2cpp_codegen_get_typePFvvEP8String_tbPKc
NTg:__ZNK22InputField_t376291743123get_m_InputTextCache_44Ev
Rpg:_SendMouseEvents_DoSendMouseEvents_m2140870850
DTd:__ZN14UnityAnalyticsD0Ev
F_n:__ZNKSt3__26vectorIPK11Il2CppClassNS_9allocatorIS3_EEE8max_sizeEv
GCm:_PatternCompiler_EmitJump_m3915926156
QXb:__Z18IsCompressedFormat14GraphicsFormat
LAf:_PropertyInfo_SetValue_m2777755129
QTf:_SerializationEntry_get_Name_m1530029541_AdjustorThunk
ryf:_MonoMethod_GetBaseDefinition_m2844667474
EVk:__Z33il2cpp_codegen_check_add_overflowxx
sDk:__ZNK21HashSet_1_t164505563816get_empty_slot_8Ev
et:__ZN9Scripting11UnityEngine12Experimental10Animations20AnimationStreamProxy12CleanupProxyEv
kt:__ZN9Scripting11UnityEngine15AvatarMaskProxy12CleanupProxyEv
tkl:__Z71RuntimeInvoker_Boolean_t97287965_AnimatorControllerPlayable_t1015767841PFvvEPK10MethodInfoPvPS4_
fRe:__ZL73RuntimePlatform_t4159857903_CustomAttributesCacheGenerator_MetroPlayerARMP21CustomAttributesCache
b_h:__ZNK24Dictionary_2_t196881949516get_valueSlots_7Ev
XQm:__ZNK28GUITargetAttribute_t2579633717get_displayMask_0Ev
mpn:__ZN14dense_hash_mapI10KeyWrapperIN6il2cpp5utils13dynamic_arrayIPK10Il2CppTypeLj4EEEEPFvvENS1_8metadata19Il2CppSignatureHashENS8_14EqualsComparerINSB_22Il2CppSignatureCompareEEENSt3__29allocatorINSG_4pairIKS8_SA_EEEEE15set_deleted_keyERSJ_
oWk:_TimeSpan_op_Subtraction_m3592306516
lIn:__ZN13ReflectionMapINSt3__24pairIPK10MethodInfoP11Il2CppClassEEP22Il2CppReflectionMethodEC2Ev
vAk:_EqualityComparer_1_System_Collections_IEqualityComparer_GetHashCode_m1517903420_gshared
agi:__ZNK23CipherSuite_t341474457516get_cipherMode_7Ev
Fbb:__ZN26EnlightenSystemInformation8TransferI14SafeBinaryReadEEvRT_
L5e:__ZL67ContactFilter2D_t3805203441_CustomAttributesCacheGenerator_maxDepthP21CustomAttributesCache
U6e:__ZL85CanvasRenderer_t2598313366_CustomAttributesCacheGenerator_U3CisMaskU3Ek__BackingFieldP21CustomAttributesCache
EMa:__ZN9Transform35SetLocalPositionWithoutNotificationERKN4math7_float3Ey
tXb:__ZN22VertexDeclarationCacheC2Ev
QCa:__ZN9Scripting11UnityEngine9Rendering18CommandBufferProxy9InitProxyEv
DPa:__ZN27PerObjectLightCullingOutputD2Ev
dAm:_IntervalCollection_GetMetaCollection_m4029522214
Z3:__ZN12AudioManager35GetCurrentSpatializerDefinitionNameEv
gIj:__ZN24StreamWriter_t126637890422set_internalEncoding_2EP20Encoding_t1523322056
Vzk:__Z25Il2CppCodeGenWriteBarrierI30EqualityComparer_1_t3827726111EvPPT_S2_
gsg:_TouchScreenKeyboard_get_active_m4267591905
BLj:_Int16_CompareTo_m3705372115
bYm:__Z25Il2CppCodeGenWriteBarrierI18List_1_t2069970928EvPPT_S2_
NIn:__ZNK15dense_hashtableINSt3__24pairIK10KeyWrapperIPK14Il2CppAssemblyEPK22Il2CppMonoAssemblyNameEES6_N6il2cpp5utils11PointerHashIS4_EEN14dense_hash_mapIS6_SA_SF_NS6_14EqualsComparerINS0_8equal_toIS5_EEEENS0_9allocatorISB_EEE9SelectKeyESK_SM_E8min_sizeEjj
wm:_utime
n_e:__ZL56PlayableGraph_t3515989261_CustomAttributesCacheGeneratorP21CustomAttributesCache
ENk:__ZN15StringBuilder_t17set__cached_str_3EP8String_t
m$i:__ZN27X509ChainPolicy_t242692287013set_timeout_5E19TimeSpan_t881159249
Cge:__ZN22FloatTween_t127433000418set_m_StartValue_1Ef
lMn:__ZNSt3__26vectorIN6il2cpp2vm17TypeNameParseInfoENS_9allocatorIS3_EEE8allocateEj
unm:__ZNK31InternalAsyncResult_t350428282012get_locker_0Ev
lYe:__ZL101Texture2DArray_t4044506685_CustomAttributesCacheGenerator_Texture2DArray__ctor_m2627654179____linear5P21CustomAttributesCache
bAg:_Context_NotifyDynamicSinks_m1841702879
$Am:_Mark_get_Index_m3048692661_AdjustorThunk
lrm:_TlsServerSettings_get_CertificateRequest_m842655670
gel:__Z128RuntimeInvoker_Void_t1185182177_RuntimeObject_BooleanU26_t4125257963_SByte_t1669577662_Int32U26_t1369213839_Int32U26_t1369213839PFvvEPK10MethodInfoPvPS4_
So:FUNCTION_TABLE_viiiiif
GWh:_DefaultComparer_Compare_m3931992727_gshared
Vo:FUNCTION_TABLE_viiiiii
pVh:_InternalEnumerator_1_System_Collections_IEnumerator_get_Current_m1847780851_AdjustorThunk
vzh:__ZN18VirtActionInvoker3IiP12Il2CppObjectS1_E6InvokeEjS1_iS1_S1_
nPm:_GUILayoutUtility_get_spaceStyle_m3392862907
wri:_Int32_System_IConvertible_ToType_m3009233912_AdjustorThunk
k9i:_DateTimeOffset__ctor_m74032857
zlh:_SmallXmlParser_Error_m3899025466
zXk:_Type_type_is_assignable_from_m76737532
vRn:__ZNK10KeyWrapperIP11Il2CppClassE8isNormalEv
Q3g:_MaskableGraphic_ParentMaskStateChanged_m1092090553
w1a:__ZN14PlayableOutput17SetSourcePlayableEP8Playable
Wkb:__ZNSt3__26vectorIN4core12basic_stringIcNS1_20StringStorageDefaultIcEEEE13stl_allocatorIS5_L18MemLabelIdentifier13ELi16EEE8__appendEj
C3:__Z18RegisterUnityClassI9AudioClipEvPKc
TO:__ZN7mecanim9animation29MotionOutputGetDeltaTransformEPKNS0_12MotionOutputE
Uqo:__ZNK23GameManager_t153652365419get_audioManager_19Ev
sdd:__ZN24b2ChainAndCapsuleContact8EvaluateEP10b2ManifoldRK11b2TransformS4_
Yrm:_ValidationResult_get_ErrorCode_m1533688152
W9i:__ZN33DateTime_t3738529785_StaticFields15set_last_now_14Ex
kRk:_EventWaitHandle__ctor_m3773182490
ENb:__Z29Transfer_Blittable_ArrayFieldI19StreamedBinaryWrite8BitFieldEvRT_R9ArrayInfoRK23StaticTransferFieldInfo
C$h:_Enumerator_get_CurrentValue_m3103267885_gshared
iuj:_CultureInfo_get_Parent_m672689885
Kho:__ZN6il2cpp6icalls8mscorlib6System10Reflection4Emit13ModuleBuilder13RegisterTokenEP29Il2CppReflectionModuleBuilderP12Il2CppObjecti
scl:__Z50RuntimeInvoker_Int64_t3736567304_SByte_t1669577662PFvvEPK10MethodInfoPvPS4_
IXi:_X509Certificate2_GetValueAsString_m1348462142
Rnm:_SslStreamBase_NegotiateHandshake_m2455724401
Gzn:__ZN6il2cpp2os4File9SetLengthEPNS0_10FileHandleExPi
bXc:__Z37RenderTexture_CUSTOM_SetSRGBReadWriteP12Il2CppObjecth
vIo:_glGetShaderInfoLog__wrapper
g0e:__ZL63SpriteBone_t303320096_CustomAttributesCacheGenerator_m_ParentIdP21CustomAttributesCache
A2h:_Transform_1_EndInvoke_m2716226219_gshared
Kg:_emscripten_glGetTexParameteriv
Pxk:__Z25Il2CppCodeGenWriteBarrierI30EqualityComparer_1_t3995337334EvPPT_S2_
TFo:_glGenTextures__wrapper
HQn:__ZN15dense_hashtableINSt3__24pairIK10KeyWrapperINS1_IP11Il2CppClassjEEES4_EES6_N6il2cpp8metadata14ArrayClassHashEN14dense_hash_mapIS6_S4_SB_NS6_14EqualsComparerINSA_17ArrayClassCompareEEENS0_9allocatorIS8_EEE9SelectKeyESF_SH_EC2EjRKSB_RKSF_RKSJ_
ino:__ZN6il2cpp8metadata21Il2CppGenericInstHash4HashEPK17Il2CppGenericInst
Pgh:__ZN22StrongName_t409384937720set_tokenAlgorithm_3EP8String_t
NQk:_UnicodeEncoding_GetHashCode_m354003420
Ftc:__ZN9ShaderLab20SerializedSubProgram14ConstantBufferaSERKS1_
nKm:__ZN27Uri_t100236324_StaticFields20set_UriSchemeFile_18EP8String_t
hnj:_Enum_Equals_m3617313991
Nue:__ZL69RuntimeArray_CustomAttributesCacheGenerator_Array_SetValue_m394135409P21CustomAttributesCache
Iol:__Z74RuntimeInvoker_Boolean_t97287965_LineTypeU26_t2430394419_Int32_t2950945753PFvvEPK10MethodInfoPvPS4_
v_a:__ZN8PlayableD0Ev
ubn:_ContactFilter2D_SetLayerMask_m3440334821
zm:emscriptenWebGLGetBufferBinding
Inn:__ZNK26InteropDataToTypeConverterclERK17Il2CppInteropData
fdh:_Slider_UpdateCachedReferences_m3259451627
cOe:__ZL63X509ChainStatusFlags_t1026973125_CustomAttributesCacheGeneratorP21CustomAttributesCache
rDk:__ZN21HashSet_1_t164505563811set_count_9Ei
WNk:_StringBuilder_get_Length_m3238060835
zqo:__ZN21Explosion_t165675460117set_mainCamera_10EP18Camera_t4157153871
Hal:__Z60RuntimeInvoker_Void_t1185182177_StreamingContext_t3711869237PFvvEPK10MethodInfoPvPS4_
sff:__ZL62Shadow_t773074319_CustomAttributesCacheGenerator_m_EffectColorP21CustomAttributesCache
gHa:__ZN9Scripting5Unity11Collections49NativeDisableParallelForRestrictionAttributeProxy9InitProxyEv
uSn:__ZN15dense_hashtableINSt3__24pairIK10KeyWrapperINS1_IP11Il2CppClassjEEES4_EES6_N6il2cpp8metadata14ArrayClassHashEN14dense_hash_mapIS6_S4_SB_NS6_14EqualsComparerINSA_17ArrayClassCompareEEENS0_9allocatorIS8_EEE9SelectKeyESF_SH_E6insertERKS8_
Oke:_U3CShowU3Ec__AnonStorey1_U3CU3Em__0_m2340880019
Zje:__Z25Il2CppCodeGenWriteBarrierI24DropdownItem_t1451952895EvPPT_S2_
lTd:__ZN22BaseUnityConnectClient38PrepareConfigRequestOnMainThreadStaticEPS_
cch:_Selectable_OnSetProperty_m1693943217
bLk:_List_1_GetIndex_m2300811709_gshared
JDc:__ZNK32RendererMaterialAnimationBinding12GetPPtrValueERKN11UnityEngine9Animation10BoundCurveE
v_j:_ASCIIEncoding_GetString_m58523364
Wjd:__ZN16CircleCollider2D10SmartResetEv
dLd:__ZN2UI11CanvasGroup12CleanupClassEv
Gug:_Vector2_get_up_m2647420593
dMk:_List_1_GetIndex_m2832472557_gshared
yrb:__ZN22LocalFileSystemHandler9MakeLocalER13FileEntryDatab
Ybo:__ZN6il2cpp2vm8Profiler10AllocationEP12Il2CppObjectP11Il2CppClass
Paf:__ZL61Graphic_t1660335611_CustomAttributesCacheGenerator_m_MaterialP21CustomAttributesCache
Ava:__Z13FormatOrderedPKcz
Wmm:__ZNK28SslHandshakeHash_t210758177212get_secret_7Ev
gSh:_InternalEnumerator_1_get_Current_m1506120701_AdjustorThunk
aib:__ZN11TimeManager23VirtualRedirectTransferER18StreamedBinaryRead
Hch:_Selectable_IsPressed_m907486548
Esd:__ZN14SafeBinaryRead21TransferSTLStyleArrayI10vector_mapINSt3__24pairIttEEfN20TextRenderingPrivate8FontImpl14KerningCompareENS2_9allocatorINS3_IS4_fEEEEEEEvRT_17TransferMetaFlags
kji:_TlsServerFinished__ctor_m1445633918
ksi:_NumberFormatter_FastIntegerToString_m390846811
U1g:__ZN21InterfaceFuncInvoker0IfE6InvokeEjP11Il2CppClassP12Il2CppObject
khb:__ZN14CompressedMesh10GetQualityE15MeshCompression
Khc:__ZN25DeferredRenderLoopScratchD0Ev
TC:__ZN27AnimationLayerMixerPlayable14SetInputWeightEif
MXl:__ZN23InterfaceActionInvoker2Ii22OrderBlock_t1585977831E6InvokeEjP11Il2CppClassP12Il2CppObjectiS0_
DAa:__ZL54__ManagedRegistrationHelperFunction_PlayableAssetProxyPv
Zhl:__Z83RuntimeInvoker_Void_t1185182177_RuntimeObject_Single_t1397266774_Single_t1397266774PFvvEPK10MethodInfoPvPS4_
Xok:__ZNK30SymmetricTransform_t380259184213get_workout_6Ev
i5d:_PhysicsRaycaster_Raycast_m776323695
Rtg:_UnityException__ctor_m1456865679
lA:__ZN7mecanim9animation17EvaluateHumanPoseERKNS0_18ClipMuscleConstantERKNS0_15ClipMuscleInputEPKfRKNS0_12MotionOutputERNS_5human9HumanPoseE
Eji:__ZNK33SendRecordAsyncResult_t371835246721get__asyncException_3Ev
yzn:__ZN6il2cpp2osL14FindFileHandleERK4stat
AVi:__ZNK54X509EnhancedKeyUsageExtension_t4189149453_StaticFields28get_U3CU3Ef__switchU24mapE_6Ev
J2d:__ZNK38ExecuteEvents_t3484638744_StaticFields24get_s_BeginDragHandler_6Ev
q8e:__ZL92PointerEventData_t3807901092_CustomAttributesCacheGenerator_U3CscrollDeltaU3Ek__BackingFieldP21CustomAttributesCache
Ssc:__ZN15dense_hashtableINSt3__24pairIKiN4core17string_with_labelILi1EEEEEi18SInt32HashFunctionN14dense_hash_mapIiS5_S7_NS0_8equal_toIiEE13stl_allocatorIS6_L18MemLabelIdentifier1ELi16EEE9SelectKeyESA_SD_E9copy_fromERKSG_j
Tga:__Z34UnregisterCreateThreadCallbackImplPFvPK23UnityProfilerThreadDescPvES2_
dGi:_CustomAttributeNamedArgument_GetHashCode_m2317130892
nlb:__ZN15ResourceManagerD0Ev
Bzk:__ZNK43EqualityComparer_1_t1640486689_StaticFields14get__default_0Ev
$Wi:__ZNK27X509Certificate2_t71404912612get__cert_13Ev
jvm:__ZN36DeriveBytes_t1492915136_StaticFields20set_keyDiversifier_0EP22ByteU5BU5D_t4116647657
$wk:_EqualityComparer_1_get_Default_m990790318_gshared
FWm:__ZNK23AudioSource_t393530558826get_spatializerExtension_4Ev
f6g:_GetRayIntersectionAllCallback__ctor_m391992746
aRa:__ZN22CreateGpuProgramOutputD2Ev
QPl:_List_1_get_Item_m1378751541_gshared
O4g:__ZNK17Shadow_t77307431919get_m_EffectColor_5Ev
Hli:__ZN19Context_t397123470720set_serverWriteIV_26EP22ByteU5BU5D_t4116647657
WFe:__ZL52HMACSHA512_t923916539_CustomAttributesCacheGeneratorP21CustomAttributesCache
O1l:__ZN18VirtActionInvoker2Ii19Vector4_t3319028937E6InvokeEjP12Il2CppObjectiS0_
o5h:_ValueCollection_CopyTo_m2188334703_gshared
TR:__ZN7mecanim9animation23BlendDirectDataConstant8TransferI14SafeBinaryReadEEvRT_
ySd:__ZN11UnityEngine9Analytics18ConnectSessionInfo8TransferER9JSONWrite
Wvc:__ZN9ShaderLab14SerializedPass8TransferI19StreamedBinaryWriteEEvRT_
Dvk:_EqualityComparer_1__cctor_m3766928733_gshared
dMj:_SHA1CryptoServiceProvider_Finalize_m1793183797
k8i:_Convert_ToByte_m4146281512
NCk:_HashSet_1_System_Collections_Generic_ICollectionU3CTU3E_CopyTo_m408073502_gshared
oci:_EncryptedPrivateKeyInfo_get_EncryptedData_m491452551
Mrb:__ZN12HandlerChain4OpenER13FileEntryData14FilePermission16FileAutoBehavior
u9j:_Array_InternalArray__ICollection_Add_TisPlayerLoopSystem_t105772105_m1930641144_gshared
nsl:__Z72RuntimeInvoker_Void_t1185182177_Int32_t2950945753_RaycastHit_t1056001966PFvvEPK10MethodInfoPvPS4_
tKe:__ZL79Convert_t2465617642_CustomAttributesCacheGenerator_Convert_ToUInt16_m1147931813P21CustomAttributesCache
pDn:__ZN15dense_hashtableINSt3__24pairIK10KeyWrapperINS1_IPK10MethodInfoP11Il2CppClassEEEjEES9_17ReflectionMapHashIS8_EN14dense_hash_mapIS9_jSD_NS9_14EqualsComparerINS0_8equal_toIS8_EEEENS0_9allocatorISB_EEE9SelectKeyESI_SK_E6insertERKSB_
n$g:__ZNK25LayoutElement_t178540367823get_m_LayoutPriority_11Ev
Bph:_Array_SetValue_m394135409
oNi:__Z25Il2CppCodeGenWriteBarrierI26KeysCollection_t1318642398EvPPT_S2_
oV:__ZN9Scripting11UnityEngine2XR5Tango14GridIndexProxy9InitProxyEv
Enb:__ZN13RendererScene23UpdatePreviousFrameDataEii
cTh:__ZN32InternalEnumerator_1_t196306608311set_array_0EP11Il2CppArray
Dfg:_MonoBehaviour_StopCoroutine_m615723318
VVc:__Z50Register_UnityEngine_CullingGroup_FinalizerFailurev
mJd:__ZN12SharedObjectIN2UI13CanvasBuffersELb0E27SharedObjectDeleteReleaseOpIS1_EE5ResetEv
qRj:_SecurityPermission_IsSubsetOf_m545000671
rob:__ZN27UnloadUnusedAssetsOperationD0Ev
ZIf:__ZN40ChannelServices_t3942013484_StaticFields24set_registeredChannels_0EP21ArrayList_t2718874744
njg:__ZNK32PlayableOutputHandle_t420805379314get_m_Handle_0Ev
KD:__ZN26AnimatorControllerPlayable6MemoryD2Ev
Uul:__Z56RuntimeInvoker_Int32_t2950945753_SpriteState_t1362986479PFvvEPK10MethodInfoPvPS4_
WWc:__Z36Texture3D_CUSTOM_Internal_CreateImplP12Il2CppObjectiii14GraphicsFormat20TextureCreationFlags
bxn:__ZN6il2cpp6icalls8mscorlib6SystemL20GetMethodsByNameImplINS_5utils10functional6FilterINSt3__212basic_stringIcNS7_11char_traitsIcEENS7_9allocatorIcEEEENS4_13VmStringUtils23CaseInsensitiveComparerEEEEEP11Il2CppArrayPK10Il2CppTypejRKT_
zvm:__ZN29X501_t1758824426_StaticFields14set_surname_12EP22ByteU5BU5D_t4116647657
i_g:__ZNK50U3CMouseDragOutsideRectU3Ec__Iterator1_t390924187818get_U24disposing_6Ev
yxc:__ZN12ShaderErrors11ShaderErrorC2EOS0_
nxf:__ZNK24MonoEventInfo_t34686661811get_attrs_6Ev
yxo:__ZNKSt3__221__basic_string_commonILb1EE20__throw_out_of_rangeEv
f6f:_Cursor_get_lockState_m2828192107
k6k:__Z78RuntimeInvoker_Boolean_t97287965_RuntimeObject_RuntimeObject_Int32_t2950945753PFvvEPK10MethodInfoPvPS4_
wHk:__ZN22Enumerator_t242665817213set_current_3E25RaycastResult_t3360306849
fW:__GLOBAL__sub_I_Runtime_Video_0_cpp
dYj:_String_Format_m630303134
t2m:__ZL25UnresolvedVirtualCall_286P12Il2CppObject17Scene_t2348375561iPK10MethodInfo
Ail:__Z109RuntimeInvoker_Boolean_t97287965_RuntimeObject_Int32_t2950945753_Int32_t2950945753_Int32_t2950945753_IntPtr_tPFvvEPK10MethodInfoPvPS4_
fWm:__ZNK21AudioClip_t368088966525get_m_PCMReaderCallback_4Ev
yYn:__ZNK15dense_hashtableINSt3__24pairIK10KeyWrapperIP14Il2CppIUnknownEjEES5_N6il2cpp5utils11PointerHashIS3_EEN14dense_hash_mapIS5_jSB_NS5_14EqualsComparerINS0_8equal_toIS4_EEEENS0_9allocatorIS7_EEE9SelectKeyESG_SI_E12test_deletedERK24dense_hashtable_iteratorIS7_S5_SB_SK_SG_SI_E
EBj:__ZNK24BinaryWriter_t399259504214get_disposed_4Ev
AAa:__ZL57__ManagedRegistrationHelperFunction_PlayerConnectionProxyPv
Qqj:__ZNK23CultureInfo_t415784306815get_cultureID_8Ev
BJn:__ZNK15dense_hashtableINSt3__24pairIK10KeyWrapperIPK22Il2CppGenericParameterEPK24MonoGenericParameterInfoEES6_N6il2cpp5utils11PointerHashIS4_EEN14dense_hash_mapIS6_SA_SF_NS6_14EqualsComparerINS0_8equal_toIS5_EEEENS0_9allocatorISB_EEE9SelectKeyESK_SM_E3endEv
hQ:__ZN26AnimatorOverrideController23VirtualRedirectTransferER24GenerateTypeTreeTransfer
bTi:__ZN43ServicePointManager_t170559685_StaticFields22set_maxServicePoints_4Ei
rQl:_List_1_AddEnumerable_m2724989594_gshared
gwj:__ZNK30DateTimeFormatInfo_t240585370127get_allShortTimePatterns_34Ev
ARl:_List_1_Contains_m2043463915_gshared
vll:__Z82RuntimeInvoker_Vector2_t2156229523_Vector2_t2156229523_RuntimeObject_RuntimeObjectPFvvEPK10MethodInfoPvPS4_
cYk:_Type_get_ContainsGenericParameters_m3456799426
ZSc:__Z70Register_UnityEngine_Playables_PlayableHandle_GetPlayableType_Injectedv
rWb:__ZNK4PPtrI23ShaderVariantCollectionEcvPS0_Ev
oai:_ARC4Managed_TransformBlock_m1687647868
rj:_glCopyTexSubImage2D
RDc:__ZNK24RendererAnimationBinding13GetFloatValueERKN11UnityEngine9Animation10BoundCurveE
M$j:__ZN36EncoderFallbackException_t277377192624set_char_unknown_high_14EDs
kEo:_glActiveTexture__wrapper
bug:_UnitySynchronizationContext_ExecuteTasks_m1310741010
Wwl:_RIPEMD160Managed_CompressFinal_m497690796
DTb:__ZN18ScreenManagerWebGL13SetShowCursorEb
gHh:_InternalEnumerator_1_MoveNext_m1773160976_gshared
o5b:__ZN13DrawImmediateC2ER9GfxDevice
ruo:_frexp
huo:_fmt_x
DMd:__ZN2UI13CanvasManager14GetRenderOrderEPKNS_6CanvasE
VEb:__Z18Transfer_BlittableI14SafeBinaryReadLb0E5RectTIfEEvRK29SerializationCommandArgumentsR31RuntimeSerializationCommandInfo
Rvi:_NumberFormatter_NumberToString_m2562899600
bPj:_SymmetricAlgorithm_get_FeedbackSize_m3666584308
Xzd:_otv_u_C_x_Ox
xhe:__ZN17Image_t267026965126get_address_of_m_Sprite_31Ev
Lue:__ZL70RuntimeArray_CustomAttributesCacheGenerator_Array_GetValue_m1062368071P21CustomAttributesCache
HGo:_emscripten_glGenVertexArrays__wrapper
iuo:_fmt_o
X0k:_Version_Clone_m1749041863
vPb:__ZL22Transfer_ManagedObjectI18StreamedBinaryReadLb1EEvRK29SerializationCommandArgumentsR31RuntimeSerializationCommandInfo
r1h:_ShimEnumerator_get_Key_m4155849607_gshared
VTi:__ZN20WebProxy_t201676054219set_bypassOnLocal_1Eb
P4a:__ZN6prcoreL21CreateRemapAnyBlitterE13TextureFormatS0_
Ldi:_RSAManaged_ExportParameters_m1754454264
CMc:__ZN17AnimationCurveTplIfE16StripInvalidKeysEv
wsh:_Boolean_Equals_m535526264_AdjustorThunk
vul:__Z71RuntimeInvoker_KeyValuePair_2_t71524366_Int32_t2950945753_RuntimeObjectPFvvEPK10MethodInfoPvPS4_
tUd:__ZN13dynamic_arrayIiLj0EE6insertEPiPKiS3_
aoi:__ZNK25SslStreamBase_t166741340717get_inputBuffer_4Ev
jXm:__ZNK46AudioExtensionManager_t3220897493_StaticFields50get_m_SourceAmbisonicDecoderExtensionDefinitions_2Ev
RMd:__ZNK2UI6Canvas17GetSortingLayerIDEv
edj:_Convert_ToUInt16_m3116648921
XOc:__ZL12HashLen0to16PKcj
kfd:__ZN14Raycast2DQuery8RunQueryEb
baj:__ZNK33DateTime_t3738529785_StaticFields30get_ParseMonthDayYearFormats_8Ev
Hdb:__ZN8Renderer24SetupNewRendererForSceneEv
sXk:_Type_internal_from_name_m1721940673
KOn:_il2cpp_type_get_class_or_element_class
goc:__ZN13ModuleManager4LoadEv
foo:__ZN25CameraManager_t327249073718set_smoothSpeed_10Ef
snj:_Environment_get_TickCount_m2088073110
BKg:_RemotingServices_GetMethodBaseFromName_m3194612939
o5c:__Z35Transfer_Blittable_FixedBufferFieldI8JSONReadtEvRK29SerializationCommandArgumentsR31RuntimeSerializationCommandInfo
bQa:__ZN4PPtrI7TextureE8TransferI14SafeBinaryReadEEvRT_
IJc:__ZN14PlayableOutput6HandleEv
ZSj:__ZNK40SecurityElement_t1046076091_StaticFields23get_invalid_tag_chars_4Ev
M1a:__ZNK6Sprite22GetTypeVirtualInternalEv
Ppf:__ZN31OpCodes_t126150456_StaticFields15set_Ldsflda_124E17OpCode_t123070264
gM:__ZN7mecanim5human9HumanGoal8TransferI19StreamedBinaryWriteEEvRT_
TYd:__ZN13RuntimeStaticINSt3__26vectorI23UnityVRDeviceDefinition13stl_allocatorIS2_L18MemLabelIdentifier90ELi16EEEELb0EE13StaticDestroyEPv
Vn:FUNCTION_TABLE_iiiiiiiiiiiiii
Sdn:_NativePropertyAttribute__ctor_m2033094153
iOg:_ReturnMessage_GetArg_m3510565487
w7n:___cxx_global_var_init_2_14142
$Td:__ZN19UnityConnectService18OnPlayerQuitStaticEPS_
EPb:__Z29Transfer_Blittable_ArrayFieldI18StreamedBinaryReaddEvRT_R9ArrayInfoRK23StaticTransferFieldInfo
OAd:_UNITY_tt_get_cmap_info
Pv:__ZN13AvatarBuilder19BuildAvatarInternalER6AvatarRKNSt3__26vectorINS_14NamedTransformENS2_9allocatorIS4_EEEERK10GameObjectRK16HumanDescriptionNS_7OptionsEb
Yqi:_SslClientStream_RaiseServerCertificateValidation_m3477149273
yLb:__Z29Transfer_Blittable_ArrayFieldI24GenerateTypeTreeTransfer5RectTIiEEvRT_R9ArrayInfoRK23StaticTransferFieldInfo
LVa:__ZN16ReflectionProbes8ScheduleEN18ReflectionProbeJob7JobTypeEP15ReflectionProbei
fki:_ClientSessionInfo_KeepAlive_m1020179566
vkg:__ZNK35Quaternion_t2301928331_StaticFields24get_identityQuaternion_4Ev
RRl:_List_1_ToArray_m4056539300_gshared
aye:__ZL51Calendar_t1661121569_CustomAttributesCacheGeneratorP21CustomAttributesCache
Hoa:__ZN16MessageForwarder13HandleMessageEPviR11MessageData
ltb:__Z18IsDirectoryCreatedRKN4core12basic_stringIcNS_20StringStorageDefaultIcEEEE
wJm:__ZNK27Uri_t100236324_StaticFields21get_UriSchemeHttps_22Ev
_Qj:_String_FormatHelper_m3913915042
H3l:__ZN32ReadOnlyCollection_1_t150044199710set_list_0EP12Il2CppObject
qJd:__ZN2UI13CanvasManagerD2Ev
GOi:__ZNK43ServicePointManager_t170559685_StaticFields20get_server_cert_cb_9Ev
xFi:_ConstructorInfo__cctor_m1016079270
tjn:__ZN15dense_hashtableINSt3__24pairIK10KeyWrapperIPKcEP11Il2CppClassEES5_N6il2cpp5utils11StringUtils12StringHasherIS4_EEN14dense_hash_mapIS5_S8_SE_NS5_14EqualsComparerINSB_13VmStringUtils21CaseSensitiveComparerEEENS0_9allocatorIS9_EEE9SelectKeyESJ_SL_E15set_deleted_keyERKS9_
sml:__Z38RuntimeInvoker_ContentType_t1787303396PFvvEPK10MethodInfoPvPS4_
Omh:_AttrListImpl_get_Names_m977594476
bGi:_CustomAttributeData_GetHashCode_m3727773664
Wud:_UNITY_FT_GlyphLoader_Done
_Sm:__ZN24AesTransform_t29571236119set_Nr_14Ei
uFh:_InternalEnumerator_1_get_Current_m1945804797_AdjustorThunk
gIk:__ZN22Enumerator_t326161813310set_next_1Ei
zUj:__ZN25SecurityFrame_t142246247513set__assert_2EP24PermissionSet_t223948603
C$e:__ZL95SceneManager_t2787271929_CustomAttributesCacheGenerator_SceneManager_GetActiveScene_m1825203488P21CustomAttributesCache
FAf:_Pointer_Box_m389276611
sDb:__ZNK17InstancingBatcher15RenderInstancesERK19ShaderPropertySheetRKNS_22RenderInstancesConfigsERK11MeshBuffersRK16DrawBuffersRange16VertexInputMasks
jlj:_StackTrace_get_FrameCount_m344690939
pKj:_UnexceptionalStreamWriter_Write_m363195622
zvd:__ZN20TextRenderingPrivate25ReadFontFileAndAddToCacheERKN4core12basic_stringIcNS0_20StringStorageDefaultIcEEEE
psd:__ZN9Scripting11UnityEngine18CharacterInfoProxy12CleanupProxyEv
NBd:_tt_cmap14_char_var_index
x7:__ZNSt3__26__treeINS_12__value_typeIN19CloudServiceHandler11ServiceTypeEPS2_EENS_19__map_value_compareIS3_S5_NS_4lessIS3_EELb1EEE13stl_allocatorIS5_L18MemLabelIdentifier88ELi16EEE12__find_equalIS3_EERPNS_16__tree_node_baseIPvEENS_21__tree_const_iteratorIS5_PNS_11__tree_nodeIS5_SG_EEiEERPNS_15__tree_end_nodeISI_EESJ_RKT_
Kbn:_Physics2D_Raycast_m1700114981
OXg:_Selectable_OnPointerDown_m1086067264
TFd:_psh_globals_new
vje:_Dropdown_SetupTemplate_m628218778
dAj:_Guid_Equals_m3683678873_AdjustorThunk
ZQk:_Thread_GetCompressedStack_m2923422412
Zei:__ZN28GenericInterfaceFuncInvoker2IbP26X509Certificate_t713131622P22Int32U5BU5D_t385246372E6InvokeEPK10MethodInfoP12Il2CppObjectS1_S3_
reg:_Matrix4x4_MultiplyPoint3x4_m4145063176
MVi:_X509BasicConstraintsExtension_ToString_m1809935297
oxb:__ZN9GfxDevice20SetMaxBufferedFramesEi
YYj:__ZN20Encoding_t152332205614set_codePage_0Ei
i1m:__ZL25UnresolvedVirtualCall_221P12Il2CppObject6Guid_tPK10MethodInfo
k_m:__ZL24UnresolvedVirtualCall_61P12Il2CppObjectsPK10MethodInfo
QJn:__ZN10KeyWrapperIPK10Il2CppTypeE14EqualsComparerIN6il2cpp8metadata26Il2CppTypeEqualityComparerEEC2ES7_
R9c:__ZN10Collider2D19WakeAllBodyContactsEv
_El:_GameObject_GetComponents_TisRuntimeObject_m1246177135_gshared
c$:__ZN24AudioScriptBufferManagerD2Ev
Qof:__ZN31OpCodes_t126150456_StaticFields15set_Ldind_I2_71E17OpCode_t123070264
Gyj:__ZN20TextInfo_t381042552221set_m_listSeparator_0EP8String_t
Bvm:__ZN29X501_t1758824426_StaticFields14set_initial_14EP22ByteU5BU5D_t4116647657
xxi:_MethodAccessException__ctor_m3542088436
oqc:__Z23ConvertIntegerToTypePtrIsEbPvR14SafeBinaryRead
puo:___DOUBLE_BITS_670
Ebd:__ZN12b2MouseJoint11ShiftOriginERK6b2Vec2
wwh:_ArrayListWrapper_get_Capacity_m51087796
DXc:__Z43Transform_CUSTOM_set_localPosition_InjectedP12Il2CppObjectRK8Vector3f
UDb:__ZN15SerializeTraitsI11MonoManagerE8TransferI18StreamedBinaryReadEEvRS0_RT_
Yvk:_EqualityComparer_1_System_Collections_IEqualityComparer_GetHashCode_m2230215241_gshared
vCg:_SynchronizedServerContextSink_SyncProcessMessage_m395228665
Wdf:__ZL60ContentSizeFitter_t3850442145_CustomAttributesCacheGeneratorP21CustomAttributesCache
ZAh:_Hashtable_Contains_m2145146412
_Pe:__ZL64UnmarshalledAttribute_t1517743549_CustomAttributesCacheGeneratorP21CustomAttributesCache
yoe:__Z25Il2CppCodeGenWriteBarrierI18List_1_t3132410353EvPPT_S2_
yya:__ZN6prcoreL29inner_stretch_rgb565_bilinearEPKNS_9InnerInfoE
t_h:_Enumerator__ctor_m1195706188_AdjustorThunk
ykf:_TypeBuilder__ctor_m3644689907
CCn:__ZNK10KeyWrapperIPK10Il2CppTypeEcvRKS2_Ev
P9f:_MaterialEffectPlayable_Equals_m3750885802
GSa:__Z26TransformVerticesInnerLoopILb0ELb0ELb1EEvPhRK10Matrix4x4fRK10Matrix3x3fjPKhiS8_ii25GfxTransformVerticesFlagsj
Yxm:__ZNK19X509Crl_t114876738816get_hash_value_9Ev
bRh:_InternalEnumerator_1_System_Collections_IEnumerator_Reset_m996811230_gshared
Zri:_Int32_FindCurrency_m3541026887
Xzm:_Interval_CompareTo_m3282557545
_of:__ZN31OpCodes_t126150456_StaticFields15set_Stind_I1_81E17OpCode_t123070264
Sqj:__ZN23CultureInfo_t415784306818set_constructed_33Eb
Tpe:__ZN42HorizontalOrVerticalLayoutGroup_t72972557026set_m_ChildControlWidth_15Eb
Qgc:__ZNK14RenderSettings19GetFlatAmbientColorEv
o4a:__ZN6prcoreL10inner_flipILj4EEEvPhS1_j
QE:__ZNK27StateMachineBehaviourPlayer15IsSenderEnabledEv
nEn:__ZN6il2cpp2gc19AppendOnlyGCHashMapINSt3__24pairIPK11Il2CppImageP11Il2CppClassEEP22Il2CppReflectionModule17ReflectionMapHashIS9_ENS2_8equal_toIS9_EEE11TryGetValueERKS9_PSB_
xdf:__ZL58Text_t1901882714_CustomAttributesCacheGenerator_m_FontDataP21CustomAttributesCache
YKi:_GenericTypeParameterBuilder_IsPrimitiveImpl_m1952010459
f4l:_ReadOnlyCollection_1_CopyTo_m3474153465_gshared
_ok:__ZNK30SymmetricTransform_t380259184211get__rng_11Ev
TMf:__ZNK24ObjectReader_t194095739227get__registeredAssemblies_5Ev
_yl:_RijndaelManagedTransform_TransformBlock_m1610137419
mYc:__Z40Register_UnityEngine_Transform_SetParentv
YGe:__ZL94WindowsIdentity_t2948242406_CustomAttributesCacheGenerator_WindowsIdentity_Dispose_m3466258450P21CustomAttributesCache
Zab:__ZN14Texture2DArray17UploadToGfxDeviceEv
exj:__ZNK27NumberFormatInfo_t43587713827get_numberGroupSeparator_18Ev
VZ:__Z14FMODMemoryFreePvjPKc
yIk:_Enumerator__ctor_m2029608698_gshared
czm:_InterpreterFactory_NewInstance_m2792693614
Ban:_NetFxCoreExtensions_GetMethodInfo_m444570327
Weg:_Mesh_SetNormals_m2521889643
_Tm:__ZN18VirtActionInvoker3IffbE6InvokeEjP12Il2CppObjectffb
qye:__ZL77RegionInfo_t1090270226_CustomAttributesCacheGenerator_U3CU3Ef__switchU24map1BP21CustomAttributesCache
fxd:_cf2_glyphpath_moveTo
mPl:_List_1_AddCollection_m1469681717_gshared
R8m:_Vector3_get_magnitude_m27958459_AdjustorThunk
OBf:_TypeDelegator_IsPointerImpl_m458295709
Smd:__ZNK13BoxCollider2D22GetTypeVirtualInternalEv
Fcd:__Z6b2FreePv10MemLabelId
gXc:__Z51Register_UnityEngine_Texture_get_texelSize_Injectedv
DDm:__ZNK17Regex_t365730985320get_machineFactory_1Ev
Zqg:_StackTraceUtility_SetProjectFolder_m830524047
lB:__ZN7mecanim23TransformValueArrayLoopEiiiRKN4math4trsXES3_RNS_10ValueArrayEf
Lki:_ClientSessionInfo_Finalize_m2165787049
f$c:__ZN5IMGUI14GUIWindowStateD2Ev
vii:_ClientContext_Clear_m1774063253
ELc:__ZN4Mesh17SetIndicesComplexEPKvjj16GfxPrimitiveTypeij
oWi:__ZN21PublicKey_t377958268413set__params_2EP25AsnEncodedData_t382354011
Cgj:_DateTime_AddSeconds_m332574389_AdjustorThunk
xtg:_RequestAtlasCallback_Invoke_m378128467
hNf:__ZNK24TypeMetadata_t313952326017get_MemberInfos_3Ev
$sh:_Byte_System_IConvertible_ToSByte_m1869482168
SSn:__GLOBAL__sub_I_Assembly_cpp
T9k:__Z99RuntimeInvoker_RuntimeObject_RuntimeObject_RuntimeObject_StreamingContext_t3711869237_RuntimeObjectPFvvEPK10MethodInfoPvPS4_
dan:__ZN32Vector4_t3319028937_StaticFields28set_positiveInfinityVector_7E19Vector4_t3319028937
Jlb:__ZN15SerializeTraitsI13dynamic_arrayIN15ResourceManager10DependencyELj0EEE8TransferI24GenerateTypeTreeTransferEEvRS3_RT_
uRb:__ZN10MonoScript8TransferI19StreamedBinaryWriteEEvRT_
Otl:__Z44RuntimeInvoker_MonoWin32Resource_t1904229483PFvvEPK10MethodInfoPvPS4_
$N:__ZN7mecanim5human10RetargetToEPKNS0_5HumanEPKNS0_9HumanPoseES6_RKN4math4trsXEPS4_PNS_8skeleton13SkeletonPoseTIS8_EESF_
eB:__ZN7mecanim9animation8SeekClipERKNS0_12StreamedClipERNS0_18StreamedClipMemoryEf
lbg:_GameObject_Internal_AddComponentWithType_m3797731663
Yg:_emscripten_glIsTexture
EK:__ZN24CompressedAnimationCurveaSERKS_
Rg:_emscripten_glHint
PSm:_Check_SourceAndPredicate_m2332465641
G5e:__ZL74ContactFilter2D_t3805203441_CustomAttributesCacheGenerator_useOutsideDepthP21CustomAttributesCache
Bue:__ZL70RuntimeArray_CustomAttributesCacheGenerator_Array_get_Length_m21610649P21CustomAttributesCache
MDd:_ft_var_readpackeddeltas
NEf:__ZNK23ResourceSet_t282791118711get_Table_1Ev
B_e:__ZL80Logger_t274032455_CustomAttributesCacheGenerator_U3ClogEnabledU3Ek__BackingFieldP21CustomAttributesCache
ETj:__ZN27SecurityContext_t243544204414set__capture_0Eb
_Bj:__ZN24BinaryWriter_t399259504222set_maxCharsPerRound_6Ei
xeo:_GC_should_collect
Q5g:__ZN34ReflectionMethodsCache_t210321106215set_raycast2D_2EP28Raycast2DCallback_t768590915
aYd:__ZL58__ManagedRegistrationHelperFunction_VideoClipPlayableProxyPv
JUm:__ZN35ToggleGroup_t123837990_StaticFields26set_U3CU3Ef__amU24cache1_7EP18Func_2_t3446800538
ZZk:_UInt32_System_IConvertible_ToInt64_m2261037378
s5m:_CanvasRenderer_EnableRectClipping_Injected_m1138624799
Bd:_SDL_UpperBlit
CVa:__Z35GetTextureDecodeValuesWithIntensity16TextureUsageMode17TextureColorSpace10ColorSpacef
MSl:_Enumerator_Dispose_m277244561_gshared
WEa:__ZN9Scripting11UnityEngine12Experimental9Rendering16CullResultsProxy9InitProxyEv
l6d:__ZNK28PointerEventData_t380790109244get_U3CeligibleForClickU3Ek__BackingField_10Ev
FKn:__ZN15dense_hashtableINSt3__24pairIK10KeyWrapperINS1_IPK9EventInfoP11Il2CppClassEEEjEES9_17ReflectionMapHashIS8_EN14dense_hash_mapIS9_jSD_NS9_14EqualsComparerINS0_8equal_toIS8_EEEENS0_9allocatorISB_EEE9SelectKeyESI_SK_E15set_deleted_keyERKSB_
gGn:__ZN15dense_hashtableINSt3__24pairIK10KeyWrapperINS1_IPK12PropertyInfoP11Il2CppClassEEEjEES9_17ReflectionMapHashIS8_EN14dense_hash_mapIS9_jSD_NS9_14EqualsComparerINS0_8equal_toIS8_EEEENS0_9allocatorISB_EEE9SelectKeyESI_SK_ED2Ev
yZc:__ZL55__ManagedRegistrationHelperFunction_GUIScrollGroupProxyPv
Abd:__ZNK12b2MouseJoint10GetAnchorAEv
a$n:__ZN6il2cpp2vm5Image20EmbeddedResourceDataC2ENS0_22EmbeddedResourceRecordEPv
Asj:_GregorianCalendar__ctor_m979779718
pqi:_SslClientStream__ctor_m2402546929
qCg:__ZNK40SynchronizedContextReplySink_t377092265010get__att_2Ev
lSb:__ZN14SafeBinaryRead20OverrideRootTypeNameEPKc
OMi:_DictionaryNodeEnumerator_get_Entry_m2309234501
Zen:__ZNK10KeyWrapperIPK22Il2CppGenericParameterE14EqualsComparerINSt3__28equal_toIS2_EEEclERKS3_SA_
XOh:__ZN30InternalEnumerator_1_t837023449set_idx_1Ei
Dna:__ZN14FileCacherRead16UnlockCacheBlockEj
UGk:_Enumerator_Dispose_m951715887_AdjustorThunk
cJh:_InternalEnumerator_1_System_Collections_IEnumerator_Reset_m521819017_AdjustorThunk
HQ:__ZN26AnimatorOverrideController8TransferI24GenerateTypeTreeTransferEEvRT_
Znj:_IsolatedStorageException__ctor_m1022659452
Itl:__Z31RuntimeInvoker_Slot_t3975888750PFvvEPK10MethodInfoPvPS4_
Gha:__ZN10InstancingL21OnGraphicsCapsChangedEv
hIb:__Z18Transfer_BlittableI17RemapPPtrTransferLb1E8Vector3fEvRK29SerializationCommandArgumentsR31RuntimeSerializationCommandInfo
bCe:__ZL61ClassInterfaceType_t4029497327_CustomAttributesCacheGeneratorP21CustomAttributesCache
SXe:__ZL101SystemInfo_t3561985952_CustomAttributesCacheGenerator_SystemInfo_GetOperatingSystemFamily_m1440411909P21CustomAttributesCache
NUk:_WaitHandle_get_Handle_m3260446580
QIk:_Enumerator_VerifyState_m1745883925_AdjustorThunk
LFn:__ZN15dense_hashtableINSt3__24pairIK10KeyWrapperINS1_IPK12PropertyInfoP11Il2CppClassEEEjEES9_17ReflectionMapHashIS8_EN14dense_hash_mapIS9_jSD_NS9_14EqualsComparerINS0_8equal_toIS8_EEEENS0_9allocatorISB_EEE9SelectKeyESI_SK_E13clear_deletedER30dense_hashtable_const_iteratorISB_S9_SD_SM_SI_SK_E
Bh:_emscripten_glUniform1f
X4i:_SortedList__ctor_m1261191695
KPn:__ZN6il2cpp2vm6Thread28GetThreadStaticDataForThreadEiP12Il2CppThread
Z9l:_ReadOnlyCollection_1_System_Collections_IList_get_IsReadOnly_m165706550_gshared
r4k:__Z75RuntimeInvoker_Int32_t2950945753_DecimalU26_t3714369516_Int64U26_t200113976PFvvEPK10MethodInfoPvPS4_
Hvd:__Z20ParseImageParametersR11UTF16StringRiRN20TextRenderingPrivate16TextFormatChangeE
Ldf:__ZL55CanvasScaler_t2767979955_CustomAttributesCacheGeneratorP21CustomAttributesCache
G0l:_Collection_1_RemoveItem_m2942561924_gshared
Dh:_emscripten_glUniform1i
a9c:__ZN9Scripting11UnityEngine27ParticleSystemRendererProxy12CleanupProxyEv
q9d:_StandaloneInputModule_GetRawMoveVector_m2737091079
WJb:__Z18Transfer_BlittableI24GenerateTypeTreeTransferLb1EN4math12int3_storageEEvRK29SerializationCommandArgumentsR31RuntimeSerializationCommandInfo
fO:__ZN12_GLOBAL__N_119PreProcessAnimationER35AnimationPlayableEvaluationConstantR17AnimationPlayable
o9g:__Z14bankers_roundff
$Dn:__ZN15dense_hashtableINSt3__24pairIK10KeyWrapperINS1_IPK10MethodInfoP11Il2CppClassEEEjEES9_17ReflectionMapHashIS8_EN14dense_hash_mapIS9_jSD_NS9_14EqualsComparerINS0_8equal_toIS8_EEEENS0_9allocatorISB_EEE9SelectKeyESI_SK_E12expand_arrayEjN21dense_hash_map_traits17integral_constantIbLb0EEE
Zbl:__Z49RuntimeInvoker_Char_t3634460470_Int64_t3736567304PFvvEPK10MethodInfoPvPS4_
n8:__ZN11UnityEngine15CloudWebService16SessionContainer20RestoreSessionHeaderERKN4core12basic_stringIcNS2_20StringStorageDefaultIcEEEES8_RNS0_13SessionHeaderE
ZVd:__ZN22UnityWebRequestManager13BackendRetainEv
VKc:__ZN8Material28ApplyMaterialPropertyDrawersEv
tko:__ZN6il2cpp2os12Cryptography23GetCryptographyProviderEv
WAi:__ZNK19MulticastDelegate_t15get_kpm_next_10Ev
Zfn:__ZN24dense_hashtable_iteratorINSt3__24pairIK10KeyWrapperIPK22Il2CppGenericParameterEP11Il2CppClassEES6_N6il2cpp5utils11PointerHashIS4_EEN14dense_hash_mapIS6_S9_SE_NS6_14EqualsComparerINS0_8equal_toIS5_EEEENS0_9allocatorISA_EEE9SelectKeyESJ_SL_E30advance_past_empty_and_deletedEv
sVf:_SByte_System_IConvertible_ToByte_m2268214252_AdjustorThunk
a5l:_ReadOnlyCollection_1_System_Collections_IEnumerable_GetEnumerator_m3042843502_gshared
m3g:_MaskableGraphic_get_onCullStateChanged_m3331479633
W8k:__Z151RuntimeInvoker_RuntimeObject_Int32_t2950945753_RuntimeObject_ObjectU5BU5DU26_t712384779_RuntimeObject_RuntimeObject_RuntimeObject_ObjectU26_t2146539884PFvvEPK10MethodInfoPvPS4_
LSd:__ZN8JSONRead19TransferSTLStyleMapINSt3__23mapIN4core12basic_stringIcNS3_20StringStorageDefaultIcEEEEN11UnityEngine9Analytics16LimitEventConfigENS1_4lessIS7_EE13stl_allocatorINS1_4pairIKS7_SA_EEL18MemLabelIdentifier6ELi16EEEEEEvRT_17TransferMetaFlags
rei:__ZN25EncryptedData_t357754873314set__content_1EP23ContentInfo_t3218159896
KQc:__ZN9BlobWriteC2ER13dynamic_arrayIhLj16EE24TransferInstructionFlags19BuildTargetPlatform
ade:_CanvasUpdateRegistry__ctor_m2005397069
t0e:__ZL77Input_t1431474628_CustomAttributesCacheGenerator_Input_GetAxisRaw_m2316819917P21CustomAttributesCache
Kla:__ZN14MessageHandler3GetEv
onb:__ZL19BlendLightProbesJobP19BlendProbesJobInputj
Gag:_SupportedRenderingFeatures_FallbackMixedLightingModeByRef_m3859171964
$e:_emscripten_glAttachShader
Pea:__Z40DebugStringToFilePostprocessedStacktraceRK21DebugStringToFileData
jse:_Image__cctor_m1927508576
ISk:_SendOrPostCallback_EndInvoke_m2485163446
Vuc:__ZNSt3__26vectorIN4core12basic_stringIcNS1_20StringStorageDefaultIcEEEENS_9allocatorIS5_EEE6assignIPS5_EENS_9enable_ifIXaasr21__is_forward_iteratorIT_EE5valuesr16is_constructibleIS5_NS_15iterator_traitsISC_E9referenceEEE5valueEvE4typeESC_SC_
Fej:_CurrentSystemTimeZone_GetDaylightChanges_m2394763749
BPm:__ZNK26GUILayoutGroup_t215778969523get_m_ChildMinHeight_24Ev
Vcb:__ZThn32_N8Renderer15AddAsRenderNodeER15RenderNodeQueueRK20DeprecatedSourceData
Ord:__ZN9Scripting11UnityEngine12TerrainProxy9InitProxyEv
g2b:__ZN13dynamic_arrayIN18GlslGpuProgramGLES9GLProgramELj0EE6insertEPS1_jRKS1_
uVh:_InternalEnumerator_1_get_Current_m3331252162_AdjustorThunk
msm:__ZN37BasicConstraintsExtension_t24621952788set_cA_3Eb
tte:__ZL76String_t_CustomAttributesCacheGenerator_String_Concat_m1809518182____values0P21CustomAttributesCache
CEb:__Z18Transfer_BlittableI14SafeBinaryReadLb0E11QuaternionfEvRK29SerializationCommandArgumentsR31RuntimeSerializationCommandInfo
Pmd:__ZN13BoxCollider2D16CheckConsistencyEv
Xoo:__ZN20EndScreen_t94503417218set_audioManager_4EP22GameObject_t1113636619
bVb:__Z21BeginSplashScreenFadev
lqb:__ZN12ImmediatePtrI9TransformE8TransferI18StreamedBinaryReadEEvRT_
wea:_tlsf_walk_heap
v8k:__Z49RuntimeInvoker_Void_t1185182177_OpCode_t123070264PFvvEPK10MethodInfoPvPS4_
pSn:__ZNK15dense_hashtableINSt3__24pairIK10KeyWrapperIP11Il2CppClassES4_EES5_N6il2cpp8metadata16SZArrayClassHashEN14dense_hash_mapIS5_S4_SA_NS5_14EqualsComparerINS9_19SZArrayClassCompareEEENS0_9allocatorIS7_EEE9SelectKeyESE_SG_E10test_emptyERK24dense_hashtable_iteratorIS7_S5_SA_SI_SE_SG_E
aWm:__ZN21AudioClip_t368088966530set_m_PCMSetPositionCallback_5EP34PCMSetPositionCallback_t1059417452
ail:__Z69RuntimeInvoker_Void_t1185182177_Int32_t2950945753_HitInfo_t3229609740PFvvEPK10MethodInfoPvPS4_
q1e:__ZL59AnimatorClipInfo_t3156717155_CustomAttributesCacheGeneratorP21CustomAttributesCache
vpg:_SceneManager_LoadScene_m2298600132
ub:invoke_vif
kM:__ZN4PPtrI10MonoScriptE8TransferI19StreamedBinaryWriteEEvRT_
sb:invoke_vid
CPh:_InternalEnumerator_1__ctor_m2202456613_AdjustorThunk
DSm:__ZNK30SymmetricTransform_t380259184311get__rng_11Ev
Gb:invoke_vii
V9b:__ZNK12ImageFilters8DoRenderER17ShaderPassContextP13RenderTextureS3_RKNSt3__26vectorI11ImageFilterNS4_9allocatorIS6_EEEE
hdi:__ZNK22RSAManaged_t17570938208get_e_13Ev
pOm:_GUIContent_set_text_m607297463
mKa:__ZN12TLSAllocatorI14StackAllocatorE16ThreadInitializeEP13BaseAllocator
Fal:__Z82RuntimeInvoker_Boolean_t97287965_SByte_t1669577662_RuntimeObject_SByte_t1669577662PFvvEPK10MethodInfoPvPS4_
zxb:__ZN9GfxDevice32UpdateStereoViewProjectionMatrixE21MonoOrStereoscopicEye
qib:__ZN12InputManager23VirtualRedirectTransferER18StreamedBinaryRead
N6n:__ZN6il2cpp5utils13dynamic_arrayIPNS_2os6ThreadELj4EE9owns_dataEv
lAh:__ZNK21Hashtable_t185388976618get_comparerRef_10Ev
Gaa:__Z29GetCloudWebServicesModuleSpecv
JNd:__Z41CanvasRenderer_CUSTOM_DisableRectClippingP12Il2CppObject
Jzi:_MonoType_GetConstructorImpl_m441167626
$8n:__ZN6il2cpp6icalls8mscorlib6System13GlobalizationL24string_invariant_compareEP12Il2CppStringiiS5_iii
Zdm:__ZN23GenericVirtFuncInvoker1Ib25RaycastResult_t3360306849E6InvokeEPK10MethodInfoP12Il2CppObjectS0_
pTl:__ZN19Queue_1_t120077810611set__head_1Ei
pSh:__ZNK31InternalEnumerator_1_t8185070639get_idx_1Ev
rWl:_Collection_1_IsFixedSize_m3709118201_gshared
Lvb:__ZN25SingleBlockMemoryFileDataD0Ev
FV:__ZNSt3__26vectorI14ConstantStringNS_9allocatorIS1_EEE6assignINS_11__wrap_iterIPS1_EEEENS_9enable_ifIXaasr21__is_forward_iteratorIT_EE5valuesr16is_constructibleIS1_NS_15iterator_traitsISA_E9referenceEEE5valueEvE4typeESA_SA_
bam:_ReadOnlyCollection_1_CopyTo_m586367390_gshared
$7:__ZN11UnityEngine15CloudWebService16SessionContainer21ConvertFromFolderTimeERKN4core12basic_stringIcNS2_20StringStorageDefaultIcEEEEPjPt
kXm:__ZNK45AudioAmbisonicExtensionDefinition_t411842689025get_ambisonicPluginName_0Ev
jwj:__ZNK30DateTimeFormatInfo_t240585370124get_yearMonthPatterns_37Ev
OPb:__Z19TransferField_ArrayI18StreamedBinaryRead27Converter_SimpleNativeClassI17AnimationCurveTplIfEEEvRK23StaticTransferFieldInfoR31RuntimeSerializationCommandInfoRT0_
mGb:__ZNSt3__26vectorI8GUIStyle13stl_allocatorIS1_L18MemLabelIdentifier1ELi16EEE7reserveEj
ogb:__ZN4Mesh23VirtualRedirectTransferER18StreamedBinaryRead
Cak:_Array_InternalArray__ICollection_CopyTo_TisKeyframe_t4206410242_m2132255743_gshared
STn:__ZN6il2cpp6icalls8mscorlib6System9Threading6Thread27GetSerializedCurrentCultureEP12Il2CppThread
QZh:__ZN22Enumerator_t392300227024get_address_of_current_3Ev
Nyl:_RijndaelTransform_SubByte_m3037693507
eUe:__ZL70Mesh_t3648964284_CustomAttributesCacheGenerator_Mesh__ctor_m2533762929P21CustomAttributesCache
Syc:__Z31CalculateHierarchyTransformType23TransformAccessReadOnly
tZ:__ZN4FMOD8ChannelI11setPositionEjj
Vbg:_Input_INTERNAL_CALL_GetTouch_m3481893561
lkd:__ZN10Collider2D12SetPolygon2DEP9Polygon2D
_eo:_GC_set_fl_marks
n_d:__ZNK25AxisEventData_t233124365237get_U3CmoveVectorU3Ek__BackingField_2Ev
Jkb:__ZNSt3__26vectorIN30RuntimeInitializeOnLoadManager15ClassMethodInfoE13stl_allocatorIS2_L18MemLabelIdentifier13ELi16EEE7reserveEj
Cxb:__ZN9GfxDevice17SetStereoViewportE15StereoscopicEyeRK5RectTIiE
Vua:__ZN17BaseObjectManager13StaticDestroyEPv
Lci:__ZN25RSAParameters_t17284066138set_DQ_4EP22ByteU5BU5D_t4116647657
Mca:__GLOBAL__sub_I_Runtime_Graphics_Mesh_1_cpp
QFf:_ClassInterfaceAttribute__ctor_m637338123
vgd:__ZN27b2UpdateTriggerContactsTask8FinalizeEv
Rka:__ZN12CachedReader8InitReadER15CacheReaderBasejj
Due:__ZL70RuntimeArray_CustomAttributesCacheGenerator_Array_get_Rank_m3448755881P21CustomAttributesCache
UJi:_EnumBuilder_GetEvent_m4074915332
nTe:__ZL97Material_t340375123_CustomAttributesCacheGenerator_Material_CreateWithString_m4283839020____self0P21CustomAttributesCache
Z8m:_Vector3_get_forward_m3100859705
uX:__ZN4FMOD6Reverb13setPropertiesEPK22FMOD_REVERB_PROPERTIES
ZEa:__ZN9Scripting11UnityEngine12Experimental9Rendering21CoreCameraValuesProxy12CleanupProxyEv
Fbc:__ZN9DepthPass13PrepareSubsetEjRK10RenderNodeifRK17ShaderReplaceData
bXj:_String_IndexOf_m3406607758
nfn:__ZNK30dense_hashtable_const_iteratorINSt3__24pairIK10KeyWrapperIPK22Il2CppGenericParameterEP11Il2CppClassEES6_N6il2cpp5utils11PointerHashIS4_EEN14dense_hash_mapIS6_S9_SE_NS6_14EqualsComparerINS0_8equal_toIS5_EEEENS0_9allocatorISA_EEE9SelectKeyESJ_SL_EneERKSO_
Rzg:__ZNK20Identity_t187327937130get__serverDynamicProperties_4Ev
Ntc:__ZN9ShaderLab20SerializedSubProgram16TextureParameter8TransferI14SafeBinaryReadEEvRT_
z3k:__Z82RuntimeInvoker_Int32_t2950945753_RuntimeObject_Int32_t2950945753_Int32_t2950945753PFvvEPK10MethodInfoPvPS4_
ici:__ZN34EncryptedPrivateKeyInfo_t86211683616set__algorithm_0EP8String_t
LIa:__ZN5Unity9Component8TransferI19StreamedBinaryWriteEEvRT_
l9h:_ASN1__ctor_m3517592395
fWg:__ZN22InputField_t376291743131get_address_of_m_ContentType_22Ev
Wqd:__ZN9Scripting11UnityEngine26ControllerColliderHitProxy12CleanupProxyEv
Eum:_SafeBag_get_BagOID_m2153399743
sro:_MainMenu_Start_m2591133275
ULc:__Z35SetMeshComponentFromArrayFromScriptR4Mesh30InternalScriptingShaderChannel34InternalScriptingVertexChannelTypei17ScriptingArrayPtri
vBb:__Z22GetRenderTextureFormat14GraphicsFormat
X8j:_Array_InternalArray__ICollection_Add_TisCustomAttributeNamedArgument_t287865710_m4157175270_gshared
oVh:__ZNK32InternalEnumerator_1_t306329364011get_array_0Ev
bzg:__ZNK37WellKnownServiceTypeEntry_t256152718013get_obj_uri_3Ev
Iq:__ZN4core20StringStorageDefaultIcE6assignEPKcj
rnc:__ZN23TextureStreamingManager6UpdateEv
$Lb:__Z15Transfer_StringI19StreamedBinaryWriteLb0EEvRK29SerializationCommandArgumentsR31RuntimeSerializationCommandInfo
A8h:_BigInteger_ModPow_m3776562770
d1m:__ZL25UnresolvedVirtualCall_216P12Il2CppObject19Vector3_t3722313464PK10MethodInfo
D_f:_KeyedHashAlgorithm_get_Key_m1843505301
T2n:__ZN15dense_hashtableINSt3__24pairIK10KeyWrapperIP12Il2CppObjectEN6il2cpp2gc9CachedCCWEEES5_NS7_5utils11PointerHashIS3_EEN14dense_hash_mapIS5_S9_SD_NS5_14EqualsComparerINS0_8equal_toIS4_EEEENS0_9allocatorISA_EEE9SelectKeyESI_SK_E3endEv
GDa:__ZN9Scripting11UnityEngine9Playables22PlayableBehaviourProxy9InitProxyEv
msi:__ZN46NumberFormatter_t1182924621_ThreadStaticFields28set_threadNumberFormatter_25EP27NumberFormatter_t1182924621
api:_RecordProtocol_ProcessChangeCipherSpec_m15839975
Pvh:_ArrayList_IndexOf_m305368842
pdm:_Predicate_1_EndInvoke_m3675319632_gshared
pRl:_List_1_Add_m2996644200_gshared
Blc:__ZN6Camera6SetFarEf
dSg:_FormatterConverter_ToBoolean_m1680758923
sNc:__ZNK17AnimationCurveTplI11QuaternionfE13EvaluateClampEfPNS1_5CacheE
iya:__ZN6prcoreL12RemapGenericI17TexFormatABGR888817TexFormatARGB8888EEvPKNS_9InnerInfoE
LKa:__ZN11GameManager17MainThreadCleanupEv
E6i:_Stack_get_Count_m2258661097
w2l:_ReadOnlyCollection_1__ctor_m1345363288_gshared
iPd:__Z50Register_UnityEngine_UISystemProfilerApi_EndSamplev
F3n:__ZN6il2cpp2vm27StacktraceSentryMethodStackC2Ev
nOc:__ZN19RuntimeSceneManager32LoadSceneAsyncByNameOrBuildIndexERKN4core12basic_stringIcNS0_20StringStorageDefaultIcEEEEi16SceneLoadingModeb
H0m:__ZL25UnresolvedVirtualCall_192P12Il2CppObject22UILineInfo_t4195266810S1_PK10MethodInfo
xGj:__ZN21MonoIOStat_t59253398712set_Length_2Ex
PHf:__ZN21InterfaceFuncInvoker0IP12MethodBase_tE6InvokeEjP11Il2CppClassP12Il2CppObject
SSh:_InternalEnumerator_1_System_Collections_IEnumerator_Reset_m1775752715_AdjustorThunk
pb:invoke_vffff
qgn:__ZL19GetEncodedIndexTypej
Vcj:_Convert_ToSingle_m2891972375
CQe:__ZL91Application_t1852185770_CustomAttributesCacheGenerator_Application_get_isPlaying_m100394690P21CustomAttributesCache
wwg:_ConfigHandler_OnProcessingInstruction_m4212209262
dkd:__ZN10Collider2D12AddToManagerEv
xMl:_List_1_Reverse_m3290386475_gshared
oNf:_SerializationCallbacks_GetSerializationCallbacks_m2939476649
mCb:__ZNSt3__26vectorIN20GpuProgramParameters19AtomicCounterBufferENS_9allocatorIS2_EEE21__push_back_slow_pathIRKS2_EEvOT_
oDd:_UNITY_tt_slot_init
T6b:__ZZ23InitPlayerLoopCallbacksvEN41PostLateUpdateUpdateResolutionRegistrator7ForwardEv
QQb:__Z25scripting_array_class_get17ScriptingClassPtrj
o3c:__ZL22Transfer_ManagedObjectI9JSONWriteLb1EEvRK29SerializationCommandArgumentsR31RuntimeSerializationCommandInfo
V1:__ZNK10SampleClip22GetTypeVirtualInternalEv
wyb:__ZN9GfxDevice20DestroyRenderSurfaceER12ObjectHandleI17RenderSurface_TagP17RenderSurfaceBaseE
$7g:__ZN22ScrollRect_t413785581413set_m_Rect_35EP25RectTransform_t3704657025
Ap:__ZN9Scripting11UnityEngine2AI12NavMeshProxy12CleanupProxyEv
izc:__ZL24PrepareSpriteRenderNodesILb1EEvR35RenderNodeQueuePrepareThreadContext
ori:_Int32_System_IConvertible_ToInt32_m265310525_AdjustorThunk
vqh:_Array_slow_swapper_m4116724811
tkc:__ZN12_GLOBAL__N_15qAsinEff
K6f:_Display__ctor_m3105658851
Wso:__ZNK34RandomTextColorNoPause_t184034818016get_textObject_5Ev
H3i:_HashValues_get_IsSynchronized_m3461082747
ZHh:_InternalEnumerator_1_System_Collections_IEnumerator_get_Current_m2629988057_AdjustorThunk
nKa:__ZN12TLSAllocatorI14StackAllocatorE13ThreadCleanupEv
nrk:_Dictionary_2_get_Item_m2136868513_gshared
Kdb:__ZN14SafeBinaryRead21TransferSTLStyleArrayI13dynamic_arrayI8Vector4fLj0EEEEvRT_17TransferMetaFlags
DZ:__Z18GetAudioManagerPtrv
HHj:__ZNK24StreamReader_t400993589917get_buffer_size_5Ev
Xii:_Context_get_HandshakeMessages_m3655705111
Jbo:__ZThn4_N6il2cpp2vm13ComObjectBase16MarshalInterfaceEP13Il2CppIStreamRK10Il2CppGuidPvjS7_j
E4i:_Queue_Clone_m178259971
Hrc:__Z27FindActiveTransformWithPathPKc
W6l:_ReadOnlyCollection_1_System_Collections_IList_Remove_m4169110229_gshared
DZk:_UInt16_ToString_m3020002356
f1g:_LayoutRebuilder_LayoutComplete_m68578143
zen:_RequiredByNativeCodeAttribute__ctor_m119855101
bNa:__ZN12BaseRendererD0Ev
cuf:__ZN30MarshalAsAttribute_t352257197815set_SizeConst_5Ei
fqc:__Z29StdTemplateConversionFunctionIbyEbPvR14SafeBinaryRead
Ayl:_RijndaelManaged_GenerateKey_m1736287430
xMi:__ZNK26ListDictionary_t162449231011get_count_0Ev
_de:__Z25Il2CppCodeGenWriteBarrierI24Comparison_1_t1896830045EvPPT_S2_
QUj:__ZNK33Encoding_t1523322056_StaticFields22get_unicodeEncoding_22Ev
han:_WaitForSeconds_t1699091251_marshal_pinvoke
c8e:__ZL90PointerEventData_t3807901092_CustomAttributesCacheGenerator_U3ClastPressU3Ek__BackingFieldP21CustomAttributesCache
$Lj:_SHA1Internal_Initialize_m499810128
qRl:__ZN17List_1_t49613638311set__size_2Ei
wcg:__ZNK17Logger_t27403245540get_U3CfilterLogTypeU3Ek__BackingField_2Ev
Kdc:__ZNK6Camera7GetNearEv
Akj:__ZN22StackFrame_t321725305914set_ilOffset_1Ei
JKi:_GenericTypeParameterBuilder_GetConstructorImpl_m863833310
Odo:_GC_size
vrb:__ZN17FileSystemHandler11SetReadOnlyER13FileEntryDatab
P1b:__ZN7ApiGLES11UnmapBufferEjN2gl12BufferTargetE
eco:__ZN6il2cpp5utilsL24Utf32CharToSurrogatePairEjRA2_Ds
o7a:__Z25GetNextAllowedTextureSizeib13TextureFormat
NTb:__ZN20LocalFileSystemWebGL4CopyER13FileEntryDataS1_
Smm:__ZNK28SslHandshakeHash_t210758177218get_innerPadSHA_10Ev
wBa:__ZL68__ManagedRegistrationHelperFunction_UnitySynchronizationContextProxyPv
nba:__ZN19CloudServiceHandler6RetainEv
zmo:__ZN6il2cpp2os9Semaphore4WaitEb
Bad:__ZN15b2FrictionJointD0Ev
q3l:_ReadOnlyCollection_1_System_Collections_IList_IndexOf_m198887188_gshared
Aak:_Array_InternalArray__ICollection_CopyTo_TisRaycastResult_t3360306849_m4097636815_gshared
rml:__Z71RuntimeInvoker_Vector2_t2156229523_Vector2_t2156229523_Rect_t2360479859PFvvEPK10MethodInfoPvPS4_
l0c:__Z36Event_CUSTOM_Internal_SetNativeEventPv
AOk:_UTF32Encoding_GetBytes_m3180303867
OTc:__Z51GraphicsFormatUtility_CUSTOM_GetRenderTextureFormat14GraphicsFormat
BRl:_List_1_CopyTo_m4034402519_gshared
c5l:_ReadOnlyCollection_1_System_Collections_IList_Clear_m2007013334_gshared
Fob:__Z34scripting_liveness_calculation_endPv
Pth:_Char_GetDataTablePointers_m754571594
O6n:__ZN6il2cpp2os6ThreadC2Ev
ECh:_U3CGetEnumeratorU3Ec__Iterator0_System_Collections_Generic_IEnumeratorU3CTU3E_get_Current_m1566629109_gshared
uCc:__ZN28ReflectionProbeAnchorManager7CleanupEv
Fqj:__ZNK36CompareInfo_t1092934962_StaticFields15get_collators_6Ev
Jhj:_DateTimeOffset_get_UtcDateTime_m1021718282_AdjustorThunk
CFn:__ZN14dense_hash_mapI10KeyWrapperINSt3__24pairIPK12PropertyInfoP11Il2CppClassEEEj17ReflectionMapHashIS8_ENS9_14EqualsComparerINS1_8equal_toIS8_EEEENS1_9allocatorINS2_IKS9_jEEEEE6insertERKSI_
GUk:_TimerCallback_BeginInvoke_m2250763656
mYf:__ZNK24DESTransform_t408890549918get_keySchedule_16Ev
kNb:__ZL22Transfer_ManagedObjectI19StreamedBinaryWriteLb0EEvRK29SerializationCommandArgumentsR31RuntimeSerializationCommandInfo
AA:__ZN21AnimationClipPlayable22ProcessAnimationNoClipEPK35AnimationPlayableEvaluationConstantPK32AnimationPlayableEvaluationInputP33AnimationPlayableEvaluationOutput
A4n:__ZNK6il2cpp2os10SocketImpl12GetLastErrorEv
ULi:_HybridDictionary_get_Count_m1166314536
Mrm:_TlsStream_Write_m1412844442
S4c:__Z18Transfer_BlittableI8JSONReadLb0E8Vector3fEvRK29SerializationCommandArgumentsR31RuntimeSerializationCommandInfo
jK:__ZN13AnimationClip12Vector3Curve8TransferI14SafeBinaryReadEEvRT_
lpe:__ZNK27GridLayoutGroup_t304622046120get_m_StartCorner_12Ev
Sdg:_Matrix4x4__ctor_m53065545_AdjustorThunk
gPn:__ZN6il2cpp2vm6Thread6DetachEP12Il2CppThread
Osm:_GeneralNames_get_DNSNames_m3788548987
VLk:_List_1_AddCollection_m2026039026_gshared
uXe:__ZL52Resources_t2942265397_CustomAttributesCacheGeneratorP21CustomAttributesCache
gGd:_Render_Single_Pass
wLf:__ZN25ObjectManager_t165306432529set__registeredObjectsCount_8Ei
ule:__ZNK19FontData_t74662006915get_m_MinSize_4Ev
lLg:__ZN32DictionaryEnumerator_t251672955220set__hashtableEnum_1EP12Il2CppObject
VVm:_AudioMixerPlayable_GetHandle_m57919556
E3n:___cxx_global_var_init_13838
MTf:_SerializationEntry_t648286436_marshal_pinvoke
Mv:__ZN7mecanim8skeleton30SkeletonBuildReverseIndexArrayEPiPKiPKNS0_8SkeletonES6_
M_c:__Z19GetGUIBlendMaterialv
qIf:__ZN23ChannelData_t335362997222set__clientProviders_5EP21ArrayList_t2718874744
nxi:_Math_Round_m3018379666
Ebl:__Z41RuntimeInvoker_Boolean_t97287965_IntPtr_tPFvvEPK10MethodInfoPvPS4_
V7n:__ZN6il2cpp2os10ThreadImpl5SleepEjb
Z1h:__ZN28GenericInterfaceFuncInvoker1IbbE6InvokeEPK10MethodInfoP12Il2CppObjectb
s3l:_ReadOnlyCollection_1_System_Collections_IList_Remove_m1965826685_gshared
EBm:__ZN27MatchCollection_t139536372010set_list_1EP21ArrayList_t2718874744
MQd:__ZN22BaseUnityConnectClient12IsNewSessionEv
E3e:__ZL82LayoutCache_t78309876_CustomAttributesCacheGenerator_LayoutCache__ctor_m3885940174P21CustomAttributesCache
Qzf:__ZN28GenericInterfaceFuncInvoker0IP12Il2CppObjectE6InvokeEPK10MethodInfoS1_
R3j:_PlayableHandle_IsPlayableOfType_TisRuntimeObject_m503495943_AdjustorThunk
ZQ:__ZN18AnimatorController23VirtualRedirectTransferER24GenerateTypeTreeTransfer
ajh:__ZNK29X501_t1758824425_StaticFields12get_title_11Ev
hGo:_glBindSampler__wrapper
THh:_InternalEnumerator_1_System_Collections_IEnumerator_Reset_m4202665280_gshared
Z5b:__ZNSt3__26vectorIN20ArchiveStorageHeader12StorageBlockE13stl_allocatorIS2_L18MemLabelIdentifier55ELi16EEE8__appendEj
xi:_emscripten_set_mouseup_callback
ndg:_Mathf_Clamp_m3350697880
mAb:__ZN9GfxDevice27SetRandomWriteTargetTextureEi9TextureID
CAj:__ZN24BinaryReader_t242807729314set_m_stream_0EP18Stream_t1273022909
brk:_Dictionary_2_System_Collections_Generic_ICollectionU3CSystem_Collections_Generic_KeyValuePairU3CTKeyU2CTValueU3EU3E_Contains_m3033743418_gshared
coi:__ZN25SslStreamBase_t166741340713set_context_5EP19Context_t3971234707
tNj:_SHA384Managed_processWord_m3832940157
p_j:_Encoding_get_DecoderFallback_m1525880676
pEe:__ZL59ITrackingHandler_t1244553475_CustomAttributesCacheGeneratorP21CustomAttributesCache
b4m:_TextGenerator_Populate_Internal_Injected_m1708852755
XEm:_CompositeExpression__ctor_m2434860303
ZZf:_DSASignatureDeformatter__ctor_m2759753186
u$i:_X509ChainElementCollection_System_Collections_IEnumerable_GetEnumerator_m3829089536
p$l:_Collection_1_System_Collections_IEnumerable_GetEnumerator_m801406918_gshared
GTb:__ZNK18ScreenManagerWebGL8GetWidthEv
iJh:_InternalEnumerator_1_Dispose_m3716424577_gshared
hog:_ReflectionProbe_CallReflectionProbeEvent_m1520775591
gsn:__ZN6il2cpp2vm13MetadataCache33GetFieldDefaultValueDataFromIndexEi
gU:__ZN7mecanim5human21ComputeHierarchicMassEiPf
S1:__ZN10SampleClipD2Ev
HRi:__ZNK26HttpWebRequest_t166943651514get_version_21Ev
qem:_Predicate_1_Invoke_m2389850270_gshared
lPf:_SerializationObjectManager_RegisterObject_m951822324
$nb:__Z13GetGISettingsv
OXl:_Collection_1_RemoveAt_m1813368096_gshared
Zaa:__ZN11UnityEngine15CloudWebService20WebRequestRestClientC2Ev
Pyd:_cff_cmap_unicode_init
Q1j:_Array_InternalArray__ICollection_Contains_TisRuntimeObject_m4067783231_gshared
U$b:__ZNSt3__214__split_bufferINS_4pairIj16TextureDimensionEERNS_9allocatorIS3_EEE9push_backEOS3_
Gna:__ZN14FileCacherRead13GetFileLengthEv
Lhm:_UnityAction_1_EndInvoke_m542551745_gshared
MUl:_Collection_1_IsValidItem_m3080586124_gshared
xje:_DropdownItem_set_text_m3702712387
$de:_ClipperRegistry_Register_m2407166513
fs:__ZL22GetComponentsInParentsRK10GameObjectPFbRKN5Unity9ComponentEERN4core8hash_setIPS3_NS8_4hashISA_EENSt3__28equal_toISA_EEEE
LGn:__ZN15dense_hashtableINSt3__24pairIK10KeyWrapperINS1_IPK9EventInfoP11Il2CppClassEEEjEES9_17ReflectionMapHashIS8_EN14dense_hash_mapIS9_jSD_NS9_14EqualsComparerINS0_8equal_toIS8_EEEENS0_9allocatorISB_EEE9SelectKeyESI_SK_E12resize_deltaEjj
Pwf:_MonoCMethod_Invoke_m2700167622
M3i:_KeyMarker__cctor_m2590194914
sko:__ZN6il2cpp8metadata14Il2CppTypeHash4HashEPK10Il2CppType
Alo:__ZN6il2cpp2os13SemaphoreImplC2Eii
_yb:__ZN9GfxDevice25GenerateRenderSurfaceMipsEP17RenderSurfaceBase
_3h:__ZN22Enumerator_t201358790621set_host_enumerator_0E22Enumerator_t3398877024
F0k:_Version__ctor_m872301635
Mld:__ZNSt3__26vectorIN10ClipperLib8IntPointENS_9allocatorIS2_EEE21__push_back_slow_pathIS2_EEvOT_
n1c:__ZL58__ManagedRegistrationHelperFunction_NativeInputSystemProxyPv
d4m:_TextGenerator_PopulateWithErrors_m1222498386
XHn:__ZN6il2cpp2vm10Reflection27GetCustomAttributesCacheForEPK10MethodInfo
JR:__ZN7mecanim12statemachine13StateConstant8TransferI14SafeBinaryReadEEvRT_
MMk:_List_1_System_Collections_Generic_ICollectionU3CTU3E_get_IsReadOnly_m507350231_gshared
m$b:__ZN11ContextGLES6CreateEi
Z4m:_WillRenderCanvases_BeginInvoke_m1804779886
S4d:__ZN25RaycastResult_t336030684911set_index_3Ef
Vnl:__Z68RuntimeInvoker_Boolean_t97287965_RuntimeObject_ObjectU26_t2146539884PFvvEPK10MethodInfoPvPS4_
n_g:_U3CMouseDragOutsideRectU3Ec__Iterator1_Dispose_m267465418
Sij:_Decimal_CompareTo_m3502307243_AdjustorThunk
PFh:_InternalEnumerator_1_System_Collections_IEnumerator_Reset_m3677481164_gshared
J8g:__ZNK22ScrollRect_t413785581417get_m_Velocity_25Ev
HKa:__ZN14StackAllocator16FrameMaintenanceEb
t9a:__Z18ReadStringFromFilePN4core17string_with_labelILi1EEERKNS_12basic_stringIcNS_20StringStorageDefaultIcEEEE
L3c:__ZN9JSONWrite8TransferI13dynamic_arrayIjLj0EEEEvRT_PKc17TransferMetaFlags
ooa:__ZNK10GameObject20QueryComponentByTypeEPKN5Unity4TypeE
mij:_Decimal_System_IConvertible_ToInt32_m1488426794_AdjustorThunk
zOa:__ZN6Camera8TransferI19StreamedBinaryWriteEEvRT_
Zxi:_MonoCustomAttrs_IsUserCattrProvider_m2878058089
vbf:__ZL71InputField_t3762917431_CustomAttributesCacheGenerator_m_HideMobileInputP21CustomAttributesCache
Npn:__ZNK14dense_hash_setI10KeyWrapperIPK19Il2CppGenericMethodEN6il2cpp8metadata23Il2CppGenericMethodHashENS4_14EqualsComparerINS6_26Il2CppGenericMethodCompareEEENSt3__29allocatorIS4_EEE3endEv
KP:__ZN25RuntimeAnimatorController23DestroyCustomControllerEPN7mecanim9animation18ControllerConstantER20RuntimeBaseAllocator
V0m:__ZL25UnresolvedVirtualCall_206P12Il2CppObject25RaycastResult_t3360306849PK10MethodInfo
B6a:__ZN11TextureData5ResetEv
QSc:__Z53Register_UnityEngine_GameObject_get_activeInHierarchyv
JSi:__ZN36IPv6Address_t2709566769_StaticFields14set_Loopback_3EP23IPv6Address_t2709566769
Umh:_ActivationContext_Dispose_m2038725770
ZHb:__Z35Transfer_Blittable_FixedBufferFieldI17RemapPPtrTransferiEvRK29SerializationCommandArgumentsR31RuntimeSerializationCommandInfo
wja:__ZL30InitializeCoreScriptingClassesv
I7l:_ReadOnlyCollection_1_Contains_m1699971074_gshared
ROh:_InternalEnumerator_1_Dispose_m630370856_AdjustorThunk
bj:_glBlitFramebuffer
wub:__ZN17ArchiveFileSystem5TouchER13FileEntryData
KIk:_Enumerator_System_Collections_IEnumerator_get_Current_m3594024719_gshared
UHb:__Z35Transfer_Blittable_SingleValueFieldI14SafeBinaryReadhEvRT_R17GeneralMonoObjectRK23StaticTransferFieldInfo
ijg:__ZNK26PlayableOutput_t317989410514get_m_Handle_0Ev
O3a:__ZNK12CubemapArray22GetTypeVirtualInternalEv
Otm:__ZNK31PKCS12_t4101533061_StaticFields29get_U3CU3Ef__switchU24map6_13Ev
ho:FUNCTION_TABLE_vif
fo:FUNCTION_TABLE_vid
BSg:__ZN22InputField_t376291743118set_m_InputType_23Ei
to:FUNCTION_TABLE_vii
Qob:__Z40scripting_liveness_calculation_from_root18ScriptingObjectPtrPv
saf:__ZL67OptionDataList_t1438173104_CustomAttributesCacheGenerator_m_OptionsP21CustomAttributesCache
YPj:__ZN29TripleDESTransform_t9641690609set_E2_16EP24DESTransform_t4088905499
tDe:__ZL65IContributeDynamicSink_t2255997386_CustomAttributesCacheGeneratorP21CustomAttributesCache
fsi:_Int32_TryParse_m135955795
nPc:__ZN17Gradient_Bindings4InitEv
uUd:__ZN11UnityEngine9Analytics18ConnectSessionInfoC2Ev
i_a:__ZN7Texture23VirtualRedirectTransferER24GenerateTypeTreeTransfer
aud:_UNITY_FT_Set_Transform
IDc:__ZNK32RendererMaterialAnimationBinding12SetPPtrValueERKN11UnityEngine9Animation10BoundCurveEi
Meb:__ZN14SpriteRenderer16CheckConsistencyEv
b7f:__ZNK32Display_t1387065949_StaticFields23get_onDisplaysUpdated_3Ev
MFo:_glDeleteFramebuffers__wrapper
w6k:__Z220RuntimeInvoker_Boolean_t97287965_RuntimeObject_Int32U26_t1369213839_Int32_t2950945753_Int32_t2950945753_Int32_t2950945753_RuntimeObject_SByte_t1669577662_Int32_t2950945753_ContractionU26_t961830454_ContextU26_t3937453398PFvvEPK10MethodInfoPvPS4_
lPm:__ZNK26GUILayoutGroup_t215778969517get_isVertical_11Ev
PA:__ZN7mecanim6memory13HeapAllocator8AllocateEjj
nXe:__ZL73Rect_t2360479859_CustomAttributesCacheGenerator_Rect_get_zero_m4034156123P21CustomAttributesCache
NAh:__ZN16VirtFuncInvoker2IbP12Il2CppObjectS1_E6InvokeEjS1_S1_S1_
cRk:__ZN28ExecutionContext_t17483726279set__sc_0EP27SecurityContext_t2435442044
yye:__ZL78TextInfo_t3810425522_CustomAttributesCacheGenerator_TextInfo_Clone_m3838580862P21CustomAttributesCache
_wd:_cff_blend_build_vector
KTi:_WebHeaderCollection_ToString_m1263025316
mOh:_InternalEnumerator_1_MoveNext_m1015797184_gshared
otl:__Z59RuntimeInvoker_ContactPoint2D_t3390240644_Int32_t2950945753PFvvEPK10MethodInfoPvPS4_
q9k:__Z91RuntimeInvoker_Void_t1185182177_RuntimeObject_RuntimeObject_RuntimeObject_Int32_t2950945753PFvvEPK10MethodInfoPvPS4_
Mzf:_GetterAdapter_Invoke_m3767885970
EKl:_List_1__ctor_m747758800_gshared
VSf:_InstanceComparer__ctor_m2655670473
Xif:_MethodBuilder_get_ReflectedType_m3038768129
oXc:__Z44Register_UnityEngine_RenderTexture_set_widthv
HZj:_String_CreateString_m2818852475
ztd:__ZN20TextRenderingPrivate19NativeTextGenerator13ProcessStringEPj
EHc:__Z22GenerateBoxTilingShapeP22GenerateTilingAreaInfo
Gbb:__ZN28EnlightenRendererInformation8TransferI14SafeBinaryReadEEvRT_
gpm:__ZNK25SslStreamBase_t166741340716get_ownsStream_7Ev
k5m:_CanvasRenderer_get_hasMoved_m2236392341
shb:__ZN14SharedMeshData14GetBoneWeightsEi
Cgg:_MessageEvent__ctor_m1231650089
hrb:__ZNK15Lz4Decompressor16DecompressMemoryEPKvPjPvS2_
IBd:_UNITY_tt_face_build_cmaps
xDn:__ZN15dense_hashtableINSt3__24pairIK10KeyWrapperINS1_IPK10MethodInfoP11Il2CppClassEEEjEES9_17ReflectionMapHashIS8_EN14dense_hash_mapIS9_jSD_NS9_14EqualsComparerINS0_8equal_toIS8_EEEENS0_9allocatorISB_EEE9SelectKeyESI_SK_E13clear_deletedER30dense_hashtable_const_iteratorISB_S9_SD_SM_SI_SK_E
vU:__ZN21AnimationHandleBinderC2Ev
wxi:_MemberAccessException__ctor_m3713703094
Nt:__ZN9Scripting11UnityEngine10Animations21ConstraintSourceProxy9InitProxyEv
Xvf:_MethodBase_get_ContainsGenericParameters_m2144492325
Dze:__ZL117GenericTypeParameterBuilder_t1988827940_CustomAttributesCacheGenerator_GenericTypeParameterBuilder_Equals_m3260957994P21CustomAttributesCache
E9d:__ZNK33StandaloneInputModule_t276046910133get_m_CurrentFocusedGameObject_21Ev
nHc:__ZN4core8hash_mapINS_12basic_stringIcNS_20StringStorageDefaultIcEEEE10vector_setI4PPtrI11SpriteAtlasENSt3__24lessIS8_EE13stl_allocatorIS8_L18MemLabelIdentifier81ELi16EEENS_4hashIS4_EENS9_8equal_toIS4_EEEixERKS4_
Gnd:__ZN11Rigidbody2D8TransferI24GenerateTypeTreeTransferEEvRT_
_0k:_Version_op_Equality_m3804852517
fNj:__ZN23SHA384Managed_t741585759set_H6_13Ey
P0a:__Z35UnityPropertySheet_MakeSortedColorsRKNSt3__23mapIN9ShaderLab16FastPropertyNameE10ColorRGBAfNS_4lessIS2_EENS_9allocatorINS_4pairIKS2_S3_EEEEEER10vector_mapIS2_S3_S5_NS6_INS7_IS2_S3_EEEEE
Jn:FUNCTION_TABLE_iiiiiiffiiiiiiiiiffffiii
dBd:_UNITY_tt_face_load_os2
ePk:__ZNK24UTF7Encoding_t264410847921get_allowOptionals_28Ev
Iak:_Array_InternalArray__ICollection_CopyTo_TisUICharInfo_t75501106_m4268526610_gshared
Rlm:__ZN35ListPool_1_t3185818714_StaticFields26set_U3CU3Ef__mgU24cache0_1EP25UnityAction_1_t4213140406
Ysg:_Transform_RotateAroundInternal_Injected_m3837681813
Mnj:__ZN24StreamReader_t400993589914set_encoding_7EP20Encoding_t1523322056
EL:__ZN18StreamedBinaryRead21TransferSTLStyleArrayI22OffsetPtrArrayTransferIN7mecanim9animation10ValueDeltaEEEEvRT_17TransferMetaFlags
Nmb:__ZN11TimeManager21DidFinishLoadingSceneEv
oHb:__Z29Transfer_Blittable_ArrayFieldI14SafeBinaryRead8Vector4fEvRT_R9ArrayInfoRK23StaticTransferFieldInfo
N4n:__GLOBAL__sub_I_BoehmGC_cpp
hDn:__ZN6il2cpp2gc19AppendOnlyGCHashMapINSt3__24pairIPK10MethodInfoP11Il2CppClassEEP22Il2CppReflectionMethod17ReflectionMapHashIS9_ENS2_8equal_toIS9_EEE3AddERKS9_SB_
gG:__ZN11UnityEngine9Animation32CreateAnimatorGenericBindingsOptERKNS0_20AnimationSetBindingsER9TransformPKN7mecanim9animation14AvatarConstantEPKNS0_21AvatarBindingConstantEbR20RuntimeBaseAllocatorR8Animator
dQ:__ZNK26AnimatorOverrideController22GetTypeVirtualInternalEv
lFi:_Default_check_arguments_m3882727959
eMb:__Z18Transfer_BlittableI19StreamedBinaryWriteLb1EN4math12int3_storageEEvRK29SerializationCommandArgumentsR31RuntimeSerializationCommandInfo
AAh:_Hashtable_get_IsSynchronized_m1426775249
Jah:__ZN21Scrollbar_t149444723318set_m_Direction_19Ei
_Pk:_UTF8Encoding_GetMaxCharCount_m3762459613
uUf:_StreamingContext_get_Context_m541495931_AdjustorThunk
yif:_ModuleBuilder_RegisterToken_m4166846047
B5n:__ZNSt3__218uninitialized_fillIPNS_4pairIK10KeyWrapperIPcES3_EES6_EEvT_S8_RKT0_
K6b:__ZZ23InitPlayerLoopCallbacksvEN51PostLateUpdateUpdateCustomRenderTexturesRegistrator7ForwardEv
kdn:__ZN43AssetFileNameExtensionAttribute_t136124116442set_U3CotherExtensionsU3Ek__BackingField_1EP12Il2CppObject
c5g:_RawImage_OnPopulateMesh_m1115858855
b8k:__Z74RuntimeInvoker_MonoFileType_t221779374_IntPtr_t_MonoIOErrorU26_t1548853198PFvvEPK10MethodInfoPvPS4_
_sn:__ZN6il2cpp2vm13MetadataCache25GetStringLiteralFromIndexEi
Knh:_Hashtable_ToPrime_m33531354
YA:__ZN7mecanim9animation12EvaluateClipEPKNS0_4ClipEPKNS0_9ClipInputEPNS0_10ClipMemoryEPNS0_10ClipOutputE
FAa:__ZL54__ManagedRegistrationHelperFunction_PlayableGraphProxyPv
f5:__ZN11AudioModule6UpdateEv
Rbn:_Physics2D_GetRayIntersectionNonAlloc_Internal_m177321563
l$h:__ZNK22Enumerator_t195756751613get_current_3Ev
i5n:__ZN15dense_hashtableINSt3__24pairIK10KeyWrapperIPcES3_EES4_N6il2cpp5utils15PassThroughHashIS3_EEN14dense_hash_mapIS4_S3_SA_NS4_14EqualsComparerINS0_8equal_toIS3_EEEENS0_9allocatorIS6_EEE9SelectKeyESF_SH_E5clearEv
fPg:__ZN31SoapMethodAttribute_t193500931020set__returnElement_5EP8String_t
c7j:_Array_InternalArray__IndexOf_TisInt32_t2950945753_m738632427_gshared
PBg:__ZN36SynchronizationAttribute_t394666125418set__ownerThread_5EP18Thread_t2300836069
dV:__ZL65__ManagedRegistrationHelperFunction_MeshReconstructionServerProxyPv
VGk:_Enumerator_VerifyState_m2621680056_AdjustorThunk
Cvn:__ZNSt3__214__split_bufferI6pollfdRNS_9allocatorIS1_EEEC2EjjS4_
PJf:_CrossAppDomainData_get_DomainID_m3516796532
Lml:__Z68RuntimeInvoker_Void_t1185182177_Single_t1397266774_SByte_t1669577662PFvvEPK10MethodInfoPvPS4_
RJd:__ZN2UI6Canvas23VirtualRedirectTransferER18StreamedBinaryRead
QFj:_MemoryStream_set_Position_m3169779190
vkc:__ZN13RenderManager29SetCurrentCameraAndStackStateEP6CameraP25CameraStackRenderingState
Q2d:_ExecuteEvents_get_scrollHandler_m2659345019
gLa:__ZNSt3__26__treeINS_12__value_typeIjN4core12basic_stringIcNS2_20StringStorageDefaultIcEEEEEENS_19__map_value_compareIjS7_NS_4lessIjEELb1EEE13stl_allocatorIS7_L18MemLabelIdentifier7ELi16EEE7destroyEPNS_11__tree_nodeIS7_PvEE
iWg:__ZN22InputField_t376291743128get_address_of_m_LineType_26Ev
e$m:__ZL25UnresolvedVirtualCall_109P12Il2CppObject19Decimal_t2948259380PK10MethodInfo
_Pf:__ZNK31OpCodes_t126150456_StaticFields14get_Ldflda_121Ev
wRh:__ZNK29InternalEnumerator_1_t233746511get_array_0Ev
id:_JS_WebRequest_Release
o1d:__ZN23EventSystem_t100366658826set_m_CurrentInputModule_5EP27BaseInputModule_t2019268878
L8:__ZN11UnityEngine15CloudWebService14DataErrorEventD0Ev
OWn:__ZN6il2cpp6icalls8mscorlib6System4Type20internal_from_handleEi
iTk:__ZNK18Thread_t230083606924get_in_currentculture_50Ev
YOe:__ZL72RequiredByNativeCodeAttribute_t4130846357_CustomAttributesCacheGeneratorP21CustomAttributesCache
dpi:__ZNK39RecordProtocol_t3759049701_StaticFields23get_record_processing_0Ev
kzg:_Context__ctor_m254302079
$Un:__ZN6il2cpp2vm9Exception25RaiseOutOfMemoryExceptionERKNS_5utils10StringViewIDsEEP19Il2CppSequencePoint
ook:_KeyGeneratedEventHandler_EndInvoke_m3057317531
ncb:__ZN19ShaderPropertySheet16SetArrayPropertyEN9ShaderLab16FastPropertyNameENS_12PropertyTypeEPKvj
Cbh:_Selectable_FindSelectable_m2348614027
w$j:_DecoderReplacementFallbackBuffer_GetNextChar_m2858228391
P8a:__ZN23TextureStreamingManager17SetFeatureEnabledEb
Kge:_FloatTween_get_duration_m1227071020
PPn:___cxx_global_var_init_1_13081
kMf:__ZN18VirtActionInvoker3IxixE6InvokeEjP12Il2CppObjectxix
Rke:_DropdownItem_OnPointerEnter_m1492957598
Xsd:__ZN13dynamic_arrayIN20TextRenderingPrivate8FontImpl13CharacterInfoELj0EE18resize_initializedEj12ResizePolicy
mzn:__ZN6il2cpp2os4File11GetStdErrorEv
zMi:__ZN25DictionaryNode_t41771946511set_value_1EP12Il2CppObject
x7k:__Z91RuntimeInvoker_Void_t1185182177_Int32U26_t1369213839_Int32U26_t1369213839_Int32_t2950945753PFvvEPK10MethodInfoPvPS4_
men:_StaticAccessorAttribute_set_Type_m2333258271
pCe:__ZL91SafeHandle_t3273388951_CustomAttributesCacheGenerator_SafeHandle_DangerousAddRef_m614714386P21CustomAttributesCache
K4d:__ZN30RaycastHit2DU5BU5D_t428665156021GetAddressAtUncheckedEj
RRd:__ZN11UnityEngine15PlatformWrapper16GetApplicationIdEv
YTn:__ZN6il2cpp6icalls8mscorlib6System2IO6MonoIO16get_ConsoleErrorEv
vDd:_UNITY_TT_Get_VMetrics
_Eg:__ZN23AsyncResult_t419430957219set_call_message_12EP29MonoMethodMessage_t2807636944
Ygl:__Z69RuntimeInvoker_Color_t2555686324_Color_t2555686324_Single_t1397266774PFvvEPK10MethodInfoPvPS4_
Dxk:_EqualityComparer_1__ctor_m2283513024_gshared
jmm:__ZN33ListPool_1_t53650832_StaticFields26set_U3CU3Ef__mgU24cache0_1EP25UnityAction_1_t1080972524
lxh:_SimpleEnumerator__cctor_m2844299657
Lwi:_LocalDataStoreSlot__ctor_m4104083971
Bwk:__ZNK43EqualityComparer_1_t1249878500_StaticFields14get__default_0Ev
o7l:_ReadOnlyCollection_1_System_Collections_Generic_IListU3CTU3E_RemoveAt_m3849058645_gshared
RWm:_AudioSource_ReadExtensionName_m725112169
Gwm:_X509CertificateEnumerator_System_Collections_IEnumerator_Reset_m2039524926
age:__ZN21ColorTween_t80961438029get_address_of_m_StartColor_1Ev
vGj:__ZN21MonoIOStat_t59253398710set_Name_0EP8String_t
Yec:__Z20SetupObjectLightmapsRK26SharedLightmapSettingsDataRK15LightmapIndicesR17ShaderPassContextb
E_a:__ZN7Texture21GetMasterTextureLimitEv
BXf:__ZN30SymmetricAlgorithm_t425422308720set_BlockSizeValue_0Ei
Bib:__ZN13dynamic_arrayI9InputAxisLj0EE18resize_initializedEj12ResizePolicy
nmc:__Z12CanAddScriptR10GameObject17ScriptingClassPtrPS1_S2_
sLn:__ZN6il2cpp2vm10Reflection12HasAttributeEP12Il2CppObjectP11Il2CppClass
rll:__Z103RuntimeInvoker_Boolean_t97287965_RuntimeObject_Vector2_t2156229523_RuntimeObject_Vector3U26_t3464235976PFvvEPK10MethodInfoPvPS4_
wam:_Comparison_1_BeginInvoke_m3263247262_gshared
qia:__ZN9ShaderLabL25StaticInitializeShaderLabEPv
Q:Math_max
Kwg:__ZNK25ConfigHandler_t419243721620get_currentChannel_2Ev
cEa:__ZN9Scripting11UnityEngine8LODProxy9InitProxyEv
GRf:__ZNK23Int16U5BU5D_t368684017814GetAtUncheckedEj
nqg:_HitInfo_SendMessage_m1343099429_AdjustorThunk
tZa:__ZNK13RenderTexture16ExtractImageImplEP14ImageReference13ImageBlitModebi
mxm:__ZN21X509Store_t277741528310set__crl_3Eb
k4f:__ZNK31Camera_t4157153871_StaticFields18get_onPostRender_6Ev
glj:_StackTrace_get_trace_m1194606084
ZVj:_Single_CompareTo_m2785801815_AdjustorThunk
e7n:__ZN6il2cpp2os6Thread16GetCurrentThreadEv
vqf:__ZN31OpCodes_t126150456_StaticFields17set_Stelem_R8_158E17OpCode_t123070264
zAl:_Array_InternalArray__Insert_TisUILineInfo_t4195266810_m3191124053_gshared
gHc:__ZN10GameObject13ComponentPair15SetComponentPtrEPN5Unity9ComponentE
Rtn:_CertificateHandler_ValidateCertificateNative_m2315002656
qgh:__ZNK22StrongName_t409384937715get_publicKey_1Ev
R9e:__ZL75U3COnFinishSubmitU3Ec__Iterator0_t3413438900_CustomAttributesCacheGeneratorP21CustomAttributesCache
s3a:__ZN13sorted_vectorI4PPtrI11SpriteAtlasENSt3__24lessIS2_EE13stl_allocatorIS2_L18MemLabelIdentifier1ELi16EEE21sort_clear_duplicatesEv
mIe:__ZL58ManualResetEvent_t451242010_CustomAttributesCacheGeneratorP21CustomAttributesCache
Eaf:__ZL60FontData_t746620069_CustomAttributesCacheGenerator_m_MinSizeP21CustomAttributesCache
BVm:__ZNK37VertexHelper_t2453304189_StaticFields22get_s_DefaultTangent_9Ev
HZc:__ZN9Scripting11UnityEngine15TextEditorProxy9InitProxyEv
Yth:_Char_System_IConvertible_ToDateTime_m3564102661
o$m:__ZL25UnresolvedVirtualCall_119P12Il2CppObjectS0_S0_iiPK10MethodInfo
LBn:__ZN15dense_hashtableINSt3__24pairIK10KeyWrapperINS1_IPK9FieldInfoP11Il2CppClassEEEjEES9_17ReflectionMapHashIS8_EN14dense_hash_mapIS9_jSD_NS9_14EqualsComparerINS0_8equal_toIS8_EEEENS0_9allocatorISB_EEE9SelectKeyESI_SK_E16reset_thresholdsEv
jW:__ZN13RuntimeStaticINSt3__26vectorI12WebCamDeviceNS0_9allocatorIS2_EEEELb0EE13StaticDestroyEPv
K1a:__ZN6Sprite17MainThreadCleanupEv
SUa:__ZN4PPtrI23ShaderVariantCollectionE8TransferI18StreamedBinaryReadEEvRT_
Hye:__ZL55BinaryWriter_t3992595042_CustomAttributesCacheGeneratorP21CustomAttributesCache
mIo:_glBlendFuncSeparate__wrapper
S4k:__Z37RuntimeInvoker_RuntimeObject_IntPtr_tPFvvEPK10MethodInfoPvPS4_
N0e:__ZL116PlayerConnectionInternal_t3892293164_CustomAttributesCacheGenerator_PlayerConnectionInternal_SendMessage_m2378413408P21CustomAttributesCache
v$:__ZN10AudioMixer14UpdateMuteSoloEv
xma:__Z17GetMonoManagerPtrv
rEk:__ZNK22Enumerator_t20172970767get_l_0Ev
tsk:__ZNK26KeyValuePair_2_t25302173199get_key_0Ev
rQa:__ZN12BaseRenderer25FlattenSharedMaterialDataILb0EEEbRKS_R22PerThreadPageAllocatorR10RenderNode
DAj:__ZN24BinaryReader_t242807729316set_m_encoding_1EP20Encoding_t1523322056
Zq:__ZN17CallbackArrayBaseIPFvP10UnitySceneS1_EPFvPKvS1_S1_EE8RegisterES3_S7_S5_
D4e:__ZL87GUIUtility_t1868551600_CustomAttributesCacheGenerator_U3CguiIsExitingU3Ek__BackingFieldP21CustomAttributesCache
xUe:__ZL101MonoBehaviour_t3962482529_CustomAttributesCacheGenerator_MonoBehaviour_StartCoroutine_Auto_m594129169P21CustomAttributesCache
wc:_JS_Eval_ClearTimeout
sEo:_glDepthFunc__wrapper
dMe:__ZL64ThreadStaticAttribute_t3840787420_CustomAttributesCacheGeneratorP21CustomAttributesCache
ICb:__ZN7ApiGLES16SetPatchVerticesEi
S6n:__ZN6il2cpp5utils13dynamic_arrayIPNS_2os6ThreadELj4EE7reserveEj
Joo:__ZN23CameraShake_t317148869519set_shakeDuration_5Ef
W6m:__ZN38AnimatorControllerPlayable_t101576784114set_m_Handle_0E26PlayableHandle_t1095853803
GHm:_CharacterClass_Compile_m3296067317
wS:__ZN18StreamedBinaryRead21TransferSTLStyleArrayI10vector_mapI8StateKey10StateRangeNSt3__24lessIS2_EENS4_9allocatorINS4_4pairIS2_S3_EEEEEEEvRT_17TransferMetaFlags
w3d:__ZN38ExecuteEvents_t3484638744_StaticFields24set_s_BeginDragHandler_6EP27EventFunction_1_t1977848392
l6n:__ZN6il2cpp2gc16GarbageCollector16InvokeFinalizersEv
r7m:_OnOverrideControllerDirtyCallback_EndInvoke_m2432606376
_sh:_Byte_System_IConvertible_ToInt64_m285584218_AdjustorThunk
cmg:_Rect_get_size_m477575021_AdjustorThunk
Jfn:__ZN6il2cpp2vm5Class20FromGenericParameterEPK22Il2CppGenericParameter
Lba:__ZN19CloudServiceHandler11FlushEventsEv
BAf:__Z25Il2CppCodeGenWriteBarrierI25BooleanU5BU5D_t2897418192EvPPT_S2_
pua:__ZN15GlobalCallbacksC2Ev
zpm:__ZN21TlsStream_t236545396513set_canRead_1Eb
SKg:_MethodCall_System_Runtime_Remoting_Messaging_IInternalMessage_set_Uri_m1919576807
bTf:__ZN25ObjectManager_t165306432517set__finalFixup_5Eb
Sbd:__ZN7b2World10CreateBodyEPK9b2BodyDef
wOa:__ZN6Camera8TransferI18StreamedBinaryReadEEvRT_
tZh:_Comparer_1_System_Collections_IComparer_Compare_m2016223770_gshared
$kg:__ZN20RangeInt_t209468461811set_start_0Ei
lff:__ZL57BaseMeshEffect_t2440176439_CustomAttributesCacheGeneratorP21CustomAttributesCache
fdl:__Z74RuntimeInvoker_DateTime_t3738529785_DateTime_t3738529785_Int32_t2950945753PFvvEPK10MethodInfoPvPS4_
Nvd:_UNITY_FT_New_Memory_Face
u1m:__ZL25UnresolvedVirtualCall_233P12Il2CppObjectS0_S0_PK10MethodInfo
iYl:_Collection_1_System_Collections_IList_IndexOf_m3271188411_gshared
KR:__ZN14SafeBinaryRead21TransferSTLStyleArrayI22OffsetPtrArrayTransferI9OffsetPtrIN7mecanim9animation17BlendTreeConstantEEEEEvRT_17TransferMetaFlags
uNb:__Z29Transfer_Blittable_ArrayFieldI19StreamedBinaryWriteyEvRT_R9ArrayInfoRK23StaticTransferFieldInfo
mCa:__ZN9Scripting11UnityEngine19SetupCoroutineProxy9InitProxyEv
RH:__ZN7mecanim9animation18CreateConstantClipERNS0_12ConstantClipEjR20RuntimeBaseAllocator
std:__ZN20TextRenderingPrivate21TextMeshGeneratorImpl5FlushEv
pCj:_MonoIO_GetFileStat_m678141354
Rhe:__Z15CastclassSealedP12Il2CppObjectP11Il2CppClass
PHc:__ZN15ApplicationInfo14GetSandboxTypeEv
$Hb:__Z18Transfer_BlittableI17RemapPPtrTransferLb1EhEvRK29SerializationCommandArgumentsR31RuntimeSerializationCommandInfo
Iij:_Decimal_IsZero_m4250358244_AdjustorThunk
qKj:_UnmanagedMemoryStream_get_CanRead_m3770815400
blc:__ZN16ReflectionProbes40UpdateRealtimeReflectionProbesTimeslicedEv
_1a:__ZN14SafeBinaryRead21TransferSTLStyleArrayI13dynamic_arrayI8Vector2fLj0EEEEvRT_17TransferMetaFlags
jWm:__ZN23InterfaceActionInvoker1IP24SingleU5BU5D_t1444911251E6InvokeEjP11Il2CppClassP12Il2CppObjectS1_
e8i:_Decimal_u64_m3374804932
skb:__ZNK30RuntimeInitializeOnLoadManager22GetTypeVirtualInternalEv
gon:__ZN15dense_hashtableINSt3__24pairIK10KeyWrapperIN6il2cpp5utils13dynamic_arrayIPK10Il2CppTypeLj4EEEEPFvvEEESA_NS3_8metadata19Il2CppSignatureHashEN14dense_hash_mapISA_SD_SG_NSA_14EqualsComparerINSF_22Il2CppSignatureCompareEEENS0_9allocatorISE_EEE9SelectKeyESK_SM_E12resize_deltaEjj
cDc:__ZN16ReflectionProbes15InitializeClassEv
W8:__ZN13dynamic_arrayIN11UnityEngine15CloudWebService14DataErrorEvent15FileErrorDetailELj0EE18resize_initializedEj12ResizePolicy
yue:__ZL71Enum_t4135868527_CustomAttributesCacheGenerator_Enum_Format_m2588135982P21CustomAttributesCache
Vad:__ZNK12b2WheelJoint17GetReactionTorqueEf
Bqg:_Sprite_GetTextureRect_Injected_m333481368
_4l:_ReadOnlyCollection_1_System_Collections_ICollection_CopyTo_m2527663815_gshared
PKg:_MethodCall__ctor_m2820791328
eZn:__ZN6il2cpp2vm5Image9GetCorlibEv
f9m:_Vector3_get_left_m2428419009
J3n:__ZN6il2cpp2vm11MethodStack17GetStackFramesRawEv
sBe:__ZL50Pointer_t2088917139_CustomAttributesCacheGeneratorP21CustomAttributesCache
Wfo:_GC_reclaim_uninit
ypj:__ZNK11Exception_t21get_inner_exception_1Ev
V5d:__ZN28PointerEventData_t380790109236set_U3ClastPressU3Ek__BackingField_4EP22GameObject_t1113636619
_ra:__ZN16LightmapSettings11UnshareDataEv
v2d:_ExecuteEvents_Execute_m113814934
xpa:__ZN13RuntimeStaticINSt3__23mapIN4core12basic_stringIcNS2_20StringStorageDefaultIcEEEES6_NS0_4lessIS6_EE13stl_allocatorINS0_4pairIKS6_S6_EEL18MemLabelIdentifier13ELi16EEEELb0EE13StaticDestroyEPv
t5f:_Coroutine_ReleaseCoroutine_m947702340
KZh:_Enumerator_System_Collections_IEnumerator_get_Current_m2979767597_AdjustorThunk
Jff:__Z33il2cpp_codegen_string_new_wrapperPKc
shm:__ZN30GenericInterfaceActionInvoker1I17Color_t2555686324E6InvokeEPK10MethodInfoP12Il2CppObjectS0_
$ro:_Player_OnDestroy_m34659532
oZk:_UInt16_GetHashCode_m329858256
v0f:_MD5CryptoServiceProvider_ProcessFinalBlock_m2241588515
r9g:_ScrollRect_GetBounds_m449872505
Mbe:__ZNK44U3COnFinishSubmitU3Ec__Iterator0_t341343890018get_U24disposing_4Ev
Lk:_glIsVertexArray
Ulh:_SmallXmlParser_Read_m3485223434
y1g:__Z25Il2CppCodeGenWriteBarrierI17Func_2_t235587086EvPPT_S2_
FLj:_Int16_Parse_m2276856944
sOh:_InternalEnumerator_1__ctor_m3443175323_AdjustorThunk
REk:__ZNK22Enumerator_t21464574877get_l_0Ev
SAe:__ZL131CustomAttributeData_t1084486650_CustomAttributesCacheGenerator_CustomAttributeData_t1084486650____ConstructorArguments_PropertyInfoP21CustomAttributesCache
ga:invoke_fff
jwo:_mbsinit
t3j:_Array_InternalArray__ICollection_Remove_TisContactPoint2D_t3390240644_m284878234_gshared
WBo:b14
Amn:__ZN14dense_hash_setI10KeyWrapperIPK19Il2CppGenericMethodEN6il2cpp8metadata23Il2CppGenericMethodHashENS4_14EqualsComparerINS6_26Il2CppGenericMethodCompareEEENSt3__29allocatorIS4_EEED2Ev
Yym:_RepeatContext_get_Expression_m255006542
YWc:__Z34RenderTexture_Get_Custom_PropWidthP12Il2CppObject
Z1i:__ZN22MarkU5BU5D_t364542240221GetAddressAtUncheckedEj
MJd:__ZN2UI6Canvas17MainThreadCleanupEv
bya:__ZN6prcoreL12RemapGenericI17TexFormatARGB155517TexFormatRGBA8888EEvPKNS_9InnerInfoE
mEi:__ZN23AssemblyName_t27093193817set_cultureinfo_6EP23CultureInfo_t4157843068
ttf:_TypeBuilder_HasElementTypeImpl_m1871001960
Fya:__ZL50__ManagedRegistrationHelperFunction_AllocatorProxyPv
gCl:_Array_Resize_TisVector2_t2156229523_m3382835435_gshared
ksa:__ZN4core8hash_setINS_4pairIKiP16LightmapSettingsLb0EEENS_9hash_pairINS_4hashIiEES2_S4_EENS_10equal_pairINSt3__28equal_toIiEES2_S4_EEE4growEi
kEn:__ZNK30dense_hashtable_const_iteratorINSt3__24pairIK10KeyWrapperINS1_IPK10MethodInfoP11Il2CppClassEEEjEES9_17ReflectionMapHashIS8_EN14dense_hash_mapIS9_jSD_NS9_14EqualsComparerINS0_8equal_toIS8_EEEENS0_9allocatorISB_EEE9SelectKeyESI_SK_EeqERKSN_
aDb:__ZN7ApiGLES13CreateProgramEv
oXa:__ZN11HaloManager7AddHaloEv
Qdi:__ZNK25RSAParameters_t17284066138get_DQ_4Ev
M0f:__ZNK30SymmetricAlgorithm_t425422308720get_BlockSizeValue_0Ev
r5d:__Z25Il2CppCodeGenWriteBarrierI28RaycastHitU5BU5D_t1690781147EvPPT_S2_
vfj:__ZN33DateTime_t3738529785_StaticFields16set_daysmonth_11EP22Int32U5BU5D_t385246372
E5a:__ZN4crnd12crn_unpackerD2Ev
vh:_emscripten_glTexImage2D
xvj:__ZNK30DateTimeFormatInfo_t240585370119get_amDesignator_11Ev
hXh:_Comparer_1_System_Collections_IComparer_Compare_m2537217645_gshared
mSa:__ZN16MeshVertexFormat20GetVertexDeclarationER9GfxDevice16VertexInputMasksPKS_
lja:__ZN18ScriptingArguments9AddStringEPKc
rgo:_setup_header
Xuh:_Char_ToString_m3588025615
itj:__ZN27NumberFormatInfo_t43587713821set_perMilleSymbol_28EP8String_t
i4j:_SetPropertyUtility_SetStruct_TisAspectMode_t3417192999_m1565063249_gshared
uVl:_Collection_1_get_Count_m2853642267_gshared
vej:__ZNK33CurrentSystemTimeZone_t399835225529get_m_CachedDaylightChanges_5Ev
l5l:_ReadOnlyCollection_1_System_Collections_IList_get_IsReadOnly_m375760151_gshared
uEe:__ZL53IEnvoyInfo_t2180778907_CustomAttributesCacheGeneratorP21CustomAttributesCache
bRf:_SerializationEntry_get_ObjectType_m1155580012
Ou:__ZN11UnityEngine9Animation30CreateAvatarBindingConstantOptER9TransformPKN7mecanim9animation14AvatarConstantER20RuntimeBaseAllocator
u4a:__ZL23stbir__resize_arbitraryPvPKviiiS_iiiffffPfiij14stbir_datatype12stbir_filterS4_10stbir_edgeS5_16stbir_colorspace
Lda:__Z15strcpy_truncatePcPKcjj
rKb:__Z18Transfer_BlittableI24GenerateTypeTreeTransferLb1E8Vector4fEvRK29SerializationCommandArgumentsR31RuntimeSerializationCommandInfo
_Bo:b18
Ooe:__ZNK28GraphicRaycaster_t299969710920get_m_BlockingMask_7Ev
em:_pthread_detach
IDa:__ZN9Scripting11UnityEngine9Playables18PlayableAssetProxy9InitProxyEv
Zle:_FontUpdateTracker_UntrackText_m1981515690
VLl:_List_1_System_Collections_ICollection_get_SyncRoot_m1937857346_gshared
VDb:__ZN11MonoManager8TransferI19StreamedBinaryWriteEEvRT_
iin:___cxx_global_var_init_2_12371
NJc:__ZN15DirectorManager20ScheduleGraphDestroyERK14HPlayableGraph
FQb:__ZNSt3__213__stable_sortIRN10vector_mapI17ScriptingClassPtrPKN5Unity4TypeENS_4lessIS2_EENS_9allocatorINS_4pairIS2_S6_EEEEE13value_compareENS_11__wrap_iterIPSB_EEEEvT0_SJ_T_NS_15iterator_traitsISJ_E15difference_typeEPNSM_10value_typeEi
wfk:_SimpleCollator_FillSurrogateSortKeyRaw_m725998232
SSk:__ZN18Thread_t230083606911set_state_7Ei
iNl:_List_1_AddEnumerable_m1284696147_gshared
ESi:_IPAddress_Equals_m1823478787
zAg:_Context_CreateNewContext_m3053563976
uvc:__ZN9ShaderLab25SerializedTextureProperty8TransferI24GenerateTypeTreeTransferEEvRT_
hEl:_Array_swap_TisVector2_t2156229523_TisVector2_t2156229523_m345092822_gshared
JUl:_Collection_1_get_Item_m1773274637_gshared
fLn:__ZN6il2cpp2gc19AppendOnlyGCHashMapINSt3__24pairIPK14Il2CppAssemblyP11Il2CppClassEEP24Il2CppReflectionAssembly17ReflectionMapHashIS9_ENS2_8equal_toIS9_EEEC2Ev
MBd:_tt_cmap14_char_next
G_m:__ZL24UnresolvedVirtualCall_83P12Il2CppObjectPK10MethodInfo
Hui:__ZN27NumberFormatter_t118292462115set__infinity_9Eb
tFa:__ZN9Scripting11UnityEngine12Experimental9Playables27MaterialEffectPlayableProxy12CleanupProxyEv
vca:__GLOBAL__sub_I_Runtime_Camera_RenderLoops_2_cpp
Bjg:_PlayableOutputHandle_Equals_m2815498676_AdjustorThunk
T7f:_InvokableCall_remove_Delegate_m1376110510
yW:__ZN20DiagnosticSwitchEnumI14FMODDebugTypesE20ApplyPersistentValueEv
YAh:_Hashtable_Clear_m3112193608
Lfo:_GC_block_was_dirty
aUk:__ZN16Timer_t71667102615set_period_ms_5Ex
IPk:_UTF8Encoding_InternalGetByteCount_m771565606
B5i:__ZNK22SortedList_t242769464111get_inUse_1Ev
uYn:__ZNK15dense_hashtableINSt3__24pairIK10KeyWrapperIP14Il2CppIUnknownEjEES5_N6il2cpp5utils11PointerHashIS3_EEN14dense_hash_mapIS5_jSB_NS5_14EqualsComparerINS0_8equal_toIS4_EEEENS0_9allocatorIS7_EEE9SelectKeyESG_SI_E12test_deletedEj
Q5c:__Z18Transfer_BlittableI8JSONReadLb1EyEvRK29SerializationCommandArgumentsR31RuntimeSerializationCommandInfo
RL:__ZN13AnimationClip8TransferI19StreamedBinaryWriteEEvRT_
LTe:__ZL51GUILayer_t2783472903_CustomAttributesCacheGeneratorP21CustomAttributesCache
exe:__ZL56IDictionary_2_t3177279192_CustomAttributesCacheGeneratorP21CustomAttributesCache
oSa:__ZN9GfxDevice20GetVertexDeclarationERK18VertexChannelsInfoNS_30VertexDeclarationMRUCacheIndexE
u5j:_Array_InternalArray__IEnumerable_GetEnumerator_TisUInt64_t4134040092_m1382862496_gshared
ch:_emscripten_glMatrixMode
U3g:_MaskableGraphic_UnityEngine_UI_IClippable_get_gameObject_m1739855597
pxj:_NumberFormatInfo_get_RawPercentGroupSizes_m97703232
YUj:_SecurityFrame_get_Assembly_m2874566710
Izj:_Guid__ctor_m3562600567_AdjustorThunk
Bba:__ZN19CloudServiceHandler19StopEventDispatcherEv
CFg:__ZN21RealProxy_t231205025321set__objectIdentity_5EP20Identity_t1873279371
V7:__ZN11UnityEngine15CloudWebService14DataDispatcher16PrepareDataBlockERNS0_16SessionContainerE
R4b:__ZN18GfxFramebufferGLES5ClearE13GfxClearFlagsRK10ColorRGBAffib
ZDh:__ZN32InternalEnumerator_1_t42399320099set_idx_1Ei
qta:__ZN13PlayableGraphD2Ev
Uio:__ZN6il2cpp6icalls8mscorlib6System9Threading7Monitor4ExitEP12Il2CppObject
z8j:_MonoProperty_StaticGetterAdapterFrame_TisRuntimeObject_m4131530968_gshared
B5l:_ReadOnlyCollection_1_System_Collections_Generic_IListU3CTU3E_get_Item_m4153579838_gshared
IMh:_InternalEnumerator_1_get_Current_m2316281569_gshared
pbc:__ZL12DepthPassJobPN21GfxDeviceAsyncCommand10ArgScratchEPKNS_3ArgE
Ptc:__ZNSt3__26vectorIN9ShaderLab20SerializedSubProgram16TextureParameterENS_9allocatorIS3_EEE6assignINS_11__wrap_iterIPS3_EEEENS_9enable_ifIXaasr21__is_forward_iteratorIT_EE5valuesr16is_constructibleIS3_NS_15iterator_traitsISC_E9referenceEEE5valueEvE4typeESC_SC_
vfg:_MonoBehaviour_IsInvoking_m3285132449
E3h:_Transform_1_EndInvoke_m1701794896_gshared
G8c:__ZN5Unity9rapidjson6WriterI16TempBufferWriterNS0_4UTF8IcEES4_13JSONAllocatorE11WriteDoubleEd
XGn:__ZNK30dense_hashtable_const_iteratorINSt3__24pairIK10KeyWrapperINS1_IPK9EventInfoP11Il2CppClassEEEjEES9_17ReflectionMapHashIS8_EN14dense_hash_mapIS9_jSD_NS9_14EqualsComparerINS0_8equal_toIS8_EEEENS0_9allocatorISB_EEE9SelectKeyESI_SK_EdeEv
gTk:_Thread_SetCachedCurrentUICulture_m1729523031
wBb:__ZN14GfxDeviceStats16CopyAllDrawStatsERKS_
BZg:_InputField_get_minHeight_m2822964544
I2h:__ZN23GenericVirtFuncInvoker1I27DictionaryEntry_t3123975638iE6InvokeEPK10MethodInfoP12Il2CppObjecti
x7e:__ZL70EventSystem_t1003666588_CustomAttributesCacheGenerator_m_FirstSelectedP21CustomAttributesCache
Tn:FUNCTION_TABLE_iiiiiiiiiiii
GMl:_List_1_get_Item_m1686506901_gshared
i4a:__ZN6prcore9BlitImageERK14ImageReferenceRS0_13ImageBlitMode
_Ta:__ZN16GraphicsSettingsD0Ev
hfa:__Z12FormatBufferPciPKcz
TWn:__ZN6il2cpp6icalls8mscorlib6SystemL52FormatExceptionMessageForNonConstructableGenericTypeEPK10Il2CppTypeRKNSt3__26vectorIS5_NS6_9allocatorIS5_EEEE
nom:__ZNK25SslStreamBase_t166741340731get_checkCertRevocationStatus_9Ev
wQd:__ZNSt3__26__treeINS_12__value_typeIN4core12basic_stringIcNS2_20StringStorageDefaultIcEEEE14CallbackArray3IRKS6_R8JSONReadbEEENS_19__map_value_compareIS6_SD_NS_4lessIS6_EELb1EEE13stl_allocatorISD_L18MemLabelIdentifier6ELi16EEE7destroyEPNS_11__tree_nodeISD_PvEE
n:cttz_i8
Owd:_UNITY_FT_GlyphLoader_Add
rnh:_AppDomain_InternalPopDomainRef_m412593501
wof:__ZN31OpCodes_t126150456_StaticFields15set_Bge_Un_S_51E17OpCode_t123070264
KVi:__ZN25OidCollection_t423476684411set__list_0EP21ArrayList_t2718874744
pvg:_ServerIdentity_OnLifetimeExpired_m3729485875
EXm:_AudioListener_INTERNAL_CALL_ReadExtensionPropertyName_m330480156
hDl:_Array_qsort_TisRuntimeObject_TisRuntimeObject_m2939659920_gshared
X2g:__ZNK20MatEntry_t295710709218get_useAlphaClip_8Ev
Def:__ZL78LayoutRebuilder_t541313304_CustomAttributesCacheGenerator_U3CU3Ef__mgU24cache0P21CustomAttributesCache
FYk:__ZN26TypedReference_t149110811921get_address_of_type_0Ev
aGn:__ZNK15dense_hashtableINSt3__24pairIK10KeyWrapperINS1_IPK12PropertyInfoP11Il2CppClassEEEjEES9_17ReflectionMapHashIS8_EN14dense_hash_mapIS9_jSD_NS9_14EqualsComparerINS0_8equal_toIS8_EEEENS0_9allocatorISB_EEE9SelectKeyESI_SK_E12bucket_countEv
bgl:__Z53RuntimeInvoker_Interval_t1802865632_Int32_t2950945753PFvvEPK10MethodInfoPvPS4_
hdj:_Convert_ToUInt16_m867476252
fi:_emscripten_glViewport
rHc:__Z21GenerateTilingAreaJobP22GenerateTilingAreaInfoj
uen:_NativeClassAttribute_set_Declaration_m1218368926
Tbo:__ZN6il2cpp6icalls8mscorlib6System15MonoCustomAttrs17IsDefinedInternalEP12Il2CppObjectP20Il2CppReflectionType
IGk:_Enumerator__ctor_m40451936_AdjustorThunk
lil:__Z53RuntimeInvoker_Vector3_t3722313464_Single_t1397266774PFvvEPK10MethodInfoPvPS4_
i8m:_SkeletonBone_t4134054672_marshal_pinvoke_back
BDe:__ZL115SynchronizationAttribute_t3946661254_CustomAttributesCacheGenerator_SynchronizationAttribute_IsContextOK_m324067792P21CustomAttributesCache
GFi:_CustomAttributeData_get_Constructor_m489601093
jXn:__Z18RegisterAllClassesv
iyd:_cff_parse_font_bbox
Cck:_MSCompatUnicodeTable_Category_m1834196420
Iin:__ZNSt3__24pairIK10KeyWrapperIPK11Il2CppClassEPKcEC2ERKS9_
Ylj:_Double_CompareTo_m3151899116
Rmo:__ZN6il2cpp2os5Event5ResetEv
wBd:_tt_name_ascii_from_other
SJj:_TextWriter_Write_m2252948084
CUm:_ToggleGroup__ctor_m3308114662
Lgi:__ZN23CipherSuite_t341474457517set_clientHMAC_19EP29KeyedHashAlgorithm_t112861511
jVj:__ZN40SecurityManager_t3383402582_StaticFields16set__execution_2EP30SecurityPermission_t2954997752
TCl:_Array_Sort_TisUILineInfo_t4195266810_m3737783007_gshared
xig:_PlayableAsset_Internal_CreatePlayable_m2550417712
Vz:__ZNK17AnimationPlayable27GetNextCompatibleDescendantEj
Zki:_Context_get_LastHandshakeMsg_m2730646725
XLe:__ZL59ResolveEventArgs_t1779456501_CustomAttributesCacheGeneratorP21CustomAttributesCache
Ovd:__ZN13dynamic_arrayIN4core17string_with_labelILi35EEELj0EE6insertEPS2_jRKS2_
x4e:__ZL64GUIUtility_t1868551600_CustomAttributesCacheGenerator_s_SkinModeP21CustomAttributesCache
Cwj:_GregorianCalendar_GetMonth_m3359423849
ERf:_ObjectWriter_BlockWrite_m827549826
cFm:__ZN31CompositeExpression_t125222980217set_expressions_0EP32ExpressionCollection_t1810289389
Vhd:__ZN34b2SolveDiscreteIslandBodySleepTask7TaskJobEPS_j
Wgh:_X509CertificateCollection__ctor_m3365535796
lAk:__Z25Il2CppCodeGenWriteBarrierI30EqualityComparer_1_t2365039146EvPPT_S2_
Ogl:__Z50RuntimeInvoker_Ray_t3785851493_Vector3_t3722313464PFvvEPK10MethodInfoPvPS4_
wZm:__ZL24UnresolvedVirtualCall_19P12Il2CppObject25DSAParameters_t1885824122PK10MethodInfo
fUb:__Z25SetNeedToPerformRenderingb
FGn:__ZN14dense_hash_mapI10KeyWrapperINSt3__24pairIPK9EventInfoP11Il2CppClassEEEj17ReflectionMapHashIS8_ENS9_14EqualsComparerINS1_8equal_toIS8_EEEENS1_9allocatorINS2_IKS9_jEEEEE3endEv
Zxo:__ZN10__cxxabiv116__shim_type_infoD2Ev
Yrg:_Touch_get_phase_m214549210
PEm:_Alternation__ctor_m1629257642
OSd:__ZN8JSONRead12TransferPairINSt3__24pairIN4core12basic_stringIcNS3_20StringStorageDefaultIcEEEEN11UnityEngine9Analytics16LimitEventConfigEEEEEvRT_17TransferMetaFlagsPKN5Unity9rapidjson12GenericValueINSG_4UTF8IcEE13JSONAllocatorEE
OLa:__ZN10GameObjectD2Ev
Dbc:__ZN14qsort_internal30FindAndMovePivotToLastPositionIP15RODataDepthPassi17ROSorterDepthPassEEvT_S4_T0_T1_
Svm:__ZNK26X509Certificate_t48924302515get_m_keyalgo_6Ev
QOh:_InternalEnumerator_1_Dispose_m630370856_gshared
EVd:__ZN20UnityConnectSettings10InitializeEv
can:__ZN32Vector4_t3319028937_StaticFields15set_oneVector_6E19Vector4_t3319028937
Vxi:_MonoCustomAttrs__cctor_m4000462365
Kzk:_EqualityComparer_1__ctor_m1767308726_gshared
$jc:__ZN12CullingGroup10SendEventsEPK17CullingGroupEventj
Hmc:__ZN19CustomRenderTexture4TickEf
ey:__ZN25RuntimeAnimatorController23VirtualRedirectTransferER19StreamedBinaryWrite
a$m:__ZL25UnresolvedVirtualCall_105P12Il2CppObjectxixPK10MethodInfo
xxj:_NumberFormatInfo_get_PerMilleSymbol_m1360140831
wei:_EncryptedData_get_EncryptionAlgorithm_m905084934
c5j:_Array_InternalArray__IEnumerable_GetEnumerator_TisCustomAttributeTypedArgument_t2723150157_m1333528454_gshared
_6d:_PointerInputModule__ctor_m3728889932
Wcb:__ZThn32_NK8Renderer8GetLayerEv
myg:__ZNK25ConfigHandler_t419243721622get_channelInstances_1Ev
XOa:__ZN9Coroutine16CleanupCoroutineEPv
nyd:_cff_parse_vsindex
FEf:_ResourceSet_System_Collections_IEnumerable_GetEnumerator_m2807499934
nUj:_SecurityException_GetObjectData_m1968030344
bMn:__ZNSt3__26vectorIiNS_9allocatorIiEEEC2ERKS3_
QNf:__ZN28MemberInfoU5BU5D_t130209443214SetAtUncheckedEjP12MemberInfo_t
_ri:_Int32_ValidDigit_m1059003769
I0k:__ZN19Version_t345687396012set__Minor_2Ei
JHo:_emscripten_glTexParameterfv__wrapper
Spo:__ZNK18Portal_t102454067114get_disabled_5Ev
pMe:__ZL54MemberFilter_t426314064_CustomAttributesCacheGeneratorP21CustomAttributesCache
M$g:_LayoutGroup_get_rectTransform_m442863741
JEb:__Z18Transfer_BlittableI14SafeBinaryReadLb1E9BoundsIntEvRK29SerializationCommandArgumentsR31RuntimeSerializationCommandInfo
FAc:__ZN2UI13RectTransform17GetLocalPositionZEv
qRc:__Z57Register_UnityEngine_RectTransform_set_anchorMin_Injectedv
jOn:_il2cpp_method_get_param_count
$oa:__ZNK5Unity4Type21FindAllDerivedClassesER13dynamic_arrayIPKS0_Lj0EENS0_17TypeFilterOptionsE
N3l:_ReadOnlyCollection_1_System_Collections_Generic_IListU3CTU3E_get_Item_m3189289772_gshared
pGn:__ZNK15dense_hashtableINSt3__24pairIK10KeyWrapperINS1_IPK12PropertyInfoP11Il2CppClassEEEjEES9_17ReflectionMapHashIS8_EN14dense_hash_mapIS9_jSD_NS9_14EqualsComparerINS0_8equal_toIS8_EEEENS0_9allocatorISB_EEE9SelectKeyESI_SK_E3endEv
uam:__ZN28GenericInterfaceFuncInvoker2Ii39CustomAttributeNamedArgument_t287865710S0_E6InvokeEPK10MethodInfoP12Il2CppObjectS0_S0_
uFl:_LayoutGroup_SetProperty_TisAxis_t3613393006_m3591044743_gshared
lQh:__ZNK31InternalEnumerator_1_t7461369139get_idx_1Ev
cjh:__ZNK29X501_t1758824425_StaticFields16get_givenName_13Ev
Oue:__ZL69RuntimeArray_CustomAttributesCacheGenerator_Array_SetValue_m282347242P21CustomAttributesCache
SQd:__ZN22BaseUnityConnectClient14AppRunningTickEj
VXc:__Z40Transform_CUSTOM_TransformPoint_InjectedP12Il2CppObjectRK8Vector3fRS1_
tFd:_ps_dimension_done
nSf:_MessageFormatter_GetExtraProperties_m305191653
v9k:__Z67RuntimeInvoker_GCHandle_t3351438187_RuntimeObject_Int32_t2950945753PFvvEPK10MethodInfoPvPS4_
opb:__ZN12ScriptMapper23VirtualRedirectTransferER18StreamedBinaryRead
y9i:_DateTime_get_Kind_m2154871796
Eyg:__ZN41LifetimeServices_t3061370510_StaticFields25set__sponsorshipTimeout_3E19TimeSpan_t881159249
tNe:__ZL59HybridDictionary_t4070033136_CustomAttributesCacheGeneratorP21CustomAttributesCache
pbb:__ZN16LightmapSettings8TransferI14SafeBinaryReadEEvRT_
h$b:__ZN17BufferManagerGLES13ReleaseBufferEP14DataBufferGLES
ugi:_CipherSuite_Write_m1172814058
tJj:_SynchronizedWriter_Write_m301917713
CHm:_CapturingGroup_IsComplex_m4061114763
Z8b:__ZN13ComputeBuffer9CopyCountEPS_S0_j
KWh:__ZN21InterfaceFuncInvoker1Ii22UILineInfo_t4195266810E6InvokeEjP11Il2CppClassP12Il2CppObjectS0_
qzo:dynCall_dii
N5c:__Z18Transfer_BlittableI8JSONReadLb1EjEvRK29SerializationCommandArgumentsR31RuntimeSerializationCommandInfo
NOb:__Z18Transfer_BlittableI18StreamedBinaryReadLb1E5RectTIfEEvRK29SerializationCommandArgumentsR31RuntimeSerializationCommandInfo
_ja:__ZNK27SharedObjectDeleteReleaseOpI10UnitySceneEclEPS0_10MemLabelId
DOf:_SerializationObjectManager_RaiseOnSerializedEvent_m272248422
$0m:__ZL25UnresolvedVirtualCall_212P12Il2CppObject20UIVertex_t4057497605PK10MethodInfo
q6f:_Debug_LogWarning_m3752629331
e3d:__ZN38ExecuteEvents_t3484638744_StaticFields27set_s_PointerEnterHandler_0EP27EventFunction_1_t3995630009
q3g:__ZNK27MaskableGraphic_t383922155917get_m_Maskable_24Ev
I9l:_ReadOnlyCollection_1_System_Collections_Generic_IListU3CTU3E_RemoveAt_m4037795630_gshared
kbl:__Z117RuntimeInvoker_Void_t1185182177_RuntimeObject_Int32_t2950945753_Int32_t2950945753_Int32_t2950945753_Int32_t2950945753PFvvEPK10MethodInfoPvPS4_
vab:__ZNK13ScreenManager17GetFullscreenModeEv
V0:__Z30GetAudioSpatializerDefinitionsR13dynamic_arrayIP29AudioEffectInternalDefinitionLj0EE31UnityAudioEffectDefinitionFlags
vVg:__ZN22InputField_t376291743134get_address_of_m_CaretBlinkRate_37Ev
Tbf:__ZL81U3CMouseDragOutsideRectU3Ec__Iterator1_t3909241878_CustomAttributesCacheGeneratorP21CustomAttributesCache
Ube:_U3COnFinishSubmitU3Ec__Iterator0_Reset_m3632769946
gp:stackSave
wqj:__ZNK20Calendar_t166112156918get_m_isReadOnly_0Ev
Faa:__ZN5Unity9rapidjson15GenericDocumentINS0_4UTF8IcEE13JSONAllocatorNS0_12CrtAllocatorEE6StringEPKcjb
UWf:__ZN40Base64Constants_t4102031153_StaticFields17set_DecodeTable_1EP22ByteU5BU5D_t4116647657
Efe:_ColorTween_get_targetColor_m1724075482_AdjustorThunk
OFd:_ps_dimension_end
zVc:__Z41Register_UnityEngine_Mesh_Internal_Createv
Rwb:__ZN16MemoryFileSystem5TouchER13FileEntryData
Teb:__ZN14SpriteRenderer23VirtualRedirectTransferER24GenerateTypeTreeTransfer
l0n:__ZNK15dense_hashtableI10KeyWrapperIP18Il2CppGenericClassES3_N6il2cpp8metadata22Il2CppGenericClassHashEN14dense_hash_setIS3_S6_NS3_14EqualsComparerINS5_25Il2CppGenericClassCompareEEENSt3__29allocatorIS3_EEE8IdentityESA_SD_E12test_deletedERK30dense_hashtable_const_iteratorIS3_S3_S6_SF_SA_SD_E
vfd:__ZNSt3__27__sort3IRN18Overlap2DQueryBase29ColliderHitsByDepthComparitorEPP10Collider2DEEjT0_S7_S7_T_
khi:__ZN16VirtFuncInvoker1IP22ByteU5BU5D_t4116647657P8String_tE6InvokeEjP12Il2CppObjectS3_
Wtl:__Z35RuntimeInvoker_UriScheme_t722425697PFvvEPK10MethodInfoPvPS4_
PIk:_Enumerator_Dispose_m2498245804_AdjustorThunk
Kti:__ZN27NumberFormatter_t118292462112set__val3_21Ej
Skf:__ZNK26AssemblyBuilder_t35988525023get_corlib_enum_type_37Ev
q7i:_Console_Open_m3077673205
Twm:_X509StoreManager_get_CurrentUser_m4040993045
Ilc:__ZN6Camera9SetAspectEf
_6j:_Array_InternalArray__IndexOf_TisDateTime_t3738529785_m2463359116_gshared
Ob:invoke_viiffiii
jlo:__ZN6il2cpp2os13FastMutexImpl6UnlockEv
KKh:_InternalEnumerator_1_MoveNext_m4138204635_gshared
SOb:__Z18Transfer_BlittableI18StreamedBinaryReadLb0E11ColorRGBA32EvRK29SerializationCommandArgumentsR31RuntimeSerializationCommandInfo
SEo:_emscripten_glBindVertexArray__wrapper
boo:__ZN16Bone_t379656409216set_targetTime_5Ef
b7d:__ZN30PointerInputModule_t345317374019set_m_MouseState_15EP21MouseState_t384203932
w4n:__ZN6il2cpp6icalls8mscorlib6System4Enum19get_underlying_typeEP20Il2CppReflectionType
GFm:_Parser_IsECMAScript_m674158805
bX:__ZN10ObjectPoolIN4FMOD3DSPENS0_4DSPIEE7GetFreeEi
MFg:_CADMessageBase_UnmarshalArgument_m2058572696
MMa:__ZN9Transform37InitializeTransformHierarchyRecursiveER18TransformHierarchyRii
lDb:__ZN26SinglePassStereoSupportExt23SetupStereoMatrixParamsE21MonoOrStereoscopicEye24BuiltinShaderMatrixParamRK10Matrix4x4f
EAg:_ContextCallbackObject__ctor_m3499682402
fCl:_Array_Resize_TisVector2_t2156229523_m1564542050_gshared
iAb:__ZN9GfxDevice23CreateAsyncReadbackDataEv
cwo:_fscanf
tWd:__ZNK25UnityWebRequestJavaScript16GetUploadedBytesEv
f4:__Z46AudioListener_CUSTOM_GetNumExtensionPropertiesP12Il2CppObject
Cwn:__ZN6il2cpp6icalls8mscorlib6SystemL16CheckMemberMatchI9FieldInfoNS_5utils10functional6FilterINSt3__212basic_stringIcNS8_11char_traitsIcEENS8_9allocatorIcEEEENS5_13VmStringUtils23CaseInsensitiveComparerEEEEEbPKT_PK11Il2CppClassSN_iRKT0_
LAn:__ZN30dense_hashtable_const_iteratorINSt3__24pairIK10KeyWrapperINS1_IPK14Il2CppAssemblyP11Il2CppClassEEEjEES9_17ReflectionMapHashIS8_EN14dense_hash_mapIS9_jSD_NS9_14EqualsComparerINS0_8equal_toIS8_EEEENS0_9allocatorISB_EEE9SelectKeyESI_SK_EppEv
R6d:__ZNK28PointerEventData_t380790109220get_m_PointerPress_3Ev
kii:__ZN19Context_t397123470715set_sessionId_1EP22ByteU5BU5D_t4116647657
Dij:_Decimal_GetHashCode_m2838600885
Ugl:__Z84RuntimeInvoker_RuntimeObject_RayU26_t3515555043_Single_t1397266774_Int32_t2950945753PFvvEPK10MethodInfoPvPS4_
Mja:__Z14GetMonoManagerv
l7j:_Array_InternalArray__IndexOf_TisMonoResource_t4103430009_m1351751258_gshared
Yxc:__ZN9Scripting39GetScriptingArrayObjectElementNoRefImplE17ScriptingArrayPtri
KQj:__ZN26X509Certificate_t71313162218set_subject_name_4EP8String_t
zDm:_Regex_Init_m289933770
YZb:__ZN13GfxDeviceGLES26SetRandomWriteTargetBufferEi15ComputeBufferID
qgo:_GC_split_block
aCl:_Array_Resize_TisUICharInfo_t75501106_m3903846016_gshared
h6l:_ReadOnlyCollection_1_System_Collections_Generic_ICollectionU3CTU3E_get_IsReadOnly_m3887826072_gshared
dGn:__ZNK15dense_hashtableINSt3__24pairIK10KeyWrapperINS1_IPK12PropertyInfoP11Il2CppClassEEEjEES9_17ReflectionMapHashIS8_EN14dense_hash_mapIS9_jSD_NS9_14EqualsComparerINS0_8equal_toIS8_EEEENS0_9allocatorISB_EEE9SelectKeyESI_SK_E8min_sizeEjj
x6b:__ZZ23InitPlayerLoopCallbacksvEN49EarlyUpdateResetFrameStatsAfterPresentRegistrator7ForwardEv
JHf:__ZN32ContextLevelActivator_t97522336521set_m_NextActivator_0EP12Il2CppObject
Hwo:_poll
k6l:_ReadOnlyCollection_1_System_Collections_IEnumerable_GetEnumerator_m1671097018_gshared
x$k:_UInt64_ToString_m1529093114_AdjustorThunk
Jvg:__ZNK26ServerIdentity_t234220860817get__serverSink_9Ev
_Gf:_TypeLibImportClassAttribute__ctor_m2302178978
Zgk:_Escape_t3294788190_marshal_pinvoke
Icg:_Material__ctor_m1662457592
uYg:_InputField_OnUpdateSelected_m1118869681
kZn:__ZN6il2cpp2vmL36AddNestedTypesToNametoClassHashTableEP40Il2CppNameToTypeDefinitionIndexHashTablePKcRKNSt3__212basic_stringIcNS5_11char_traitsIcEENS5_9allocatorIcEEEEP11Il2CppClass
UTf:_SerializationException__ctor_m3131447373
I5a:__ZN4crnd12crn_unpacker11unpack_dxt1EPPhjjj
SBj:_BinaryWriter_Write_m3577537050
Kxc:__ZNK11ICallString6ToUTF8Ev
Ntl:__Z39RuntimeInvoker_MonoResource_t4103430009PFvvEPK10MethodInfoPvPS4_
Ufn:__ZN15dense_hashtableINSt3__24pairIK10KeyWrapperIPK22Il2CppGenericParameterEP11Il2CppClassEES6_N6il2cpp5utils11PointerHashIS4_EEN14dense_hash_mapIS6_S9_SE_NS6_14EqualsComparerINS0_8equal_toIS5_EEEENS0_9allocatorISA_EEE9SelectKeyESJ_SL_E15insert_noresizeERKSA_
q2h:_Transform_1_Invoke_m2468053724_gshared
I9k:__Z51RuntimeInvoker_Void_t1185182177_TimeSpan_t881159249PFvvEPK10MethodInfoPvPS4_
Ebc:__ZNSt3__211__sift_downIR17ROSorterDepthPassP15RODataDepthPassEEvT0_S5_T_NS_15iterator_traitsIS5_E15difference_typeES5_
a0a:__ZN18UnityPropertySheet11UnityTexEnvC2Ev
zoh:_ArgumentException__ctor_m3200406061
$M:__ZN8Animator17ApplyOnAnimatorIKEiRNS_11AnimatorJobE
Ona:__ZN12FileAccessor4ReadEyyPvPy
y9g:__ZNK22ScrollRect_t413785581432get_m_HorizontalScrollbarRect_36Ev
$oi:__Z25Il2CppCodeGenWriteBarrierI25AsyncCallback_t3962456242EvPPT_S2_
KOl:_List_1_set_Capacity_m2777925136_gshared
u9c:__ZN9Scripting11UnityEngine14Physics2DProxy9InitProxyEv
tWc:__Z46Register_UnityEngine_RectOffset_InternalCreatev
$Ua:__ZN4PPtrI8MaterialE8TransferI19StreamedBinaryWriteEEvRT_
klc:__ZN13RenderTexture9SetHeightEi
Q1:__ZN11AudioSource26KillActiveProviderChannelsEv
rma:__ZN17PersistentManager25PreallocateObjectThreadedEiNS_9LockFlagsE
hA:__ZN7mecanim9animation17ClearMotionOutputEPNS0_18AnimationNodeStateE
rTe:__ZL59LightmapBakeType_t1497855756_CustomAttributesCacheGeneratorP21CustomAttributesCache
Lhi:_CipherSuiteCollection_get_IsFixedSize_m3127823890
QTa:__ZN16LevelGameManager8TransferI24GenerateTypeTreeTransferEEvRT_
BVh:_InternalEnumerator_1_System_Collections_IEnumerator_get_Current_m3537550566_gshared
e9g:_Scrollbar_UpdateVisuals_m2492252165
fFa:__ZN9Scripting11UnityEngine12Experimental10PlayerLoop18PreLateUpdateProxy12CleanupProxyEv
Uum:_PKCS12_get_Keys_m2165478388
dUn:__ZN6il2cpp6icalls8mscorlib6System2IO6MonoIO17GetFileAttributesEP12Il2CppStringPi
g$f:_HMACMD5__ctor_m3008609295
wFe:__ZL61X509KeyStorageFlags_t441861693_CustomAttributesCacheGeneratorP21CustomAttributesCache
lCf:__ZNK20NameOrId_t236469464210get_name_0Ev
Zuo:_hexfloat
pCd:_tt_cmap8_char_index
rYf:__Z25Il2CppCodeGenWriteBarrierI24UInt32U5BU5D_t2770800703EvPPT_S2_
Kja:__Z24scripting_class_get_name17ScriptingClassPtr
vio:__ZNSt3__26__treeINS_12__value_typeIPvPN6il2cpp2os10FileHandleEEENS_19__map_value_compareIS2_S7_NS_4lessIS2_EELb1EEENS_9allocatorIS7_EEEC2ERKSB_
IUi:_Oid__ctor_m911618594
MVm:_VerticalLayoutGroup_CalculateLayoutInputHorizontal_m1404590745
tBf:_TypeDelegator_get_TypeHandle_m1498852405
Vpa:__ZN13RuntimeStaticI15GUIEventManagerLb0EE13StaticDestroyEPv
Ani:__ZNK31TlsServerKeyExchange_t69946915115get_rsaParams_9Ev
vzi:_ShortComparer_Compare_m1881262465
xGb:__Z29Transfer_Blittable_ArrayFieldI14SafeBinaryReadjEvRT_R9ArrayInfoRK23StaticTransferFieldInfo
MJk:_Enumerator_Dispose_m2367589020_gshared
qtl:__Z53RuntimeInvoker_Keyframe_t4206410242_Int32_t2950945753PFvvEPK10MethodInfoPvPS4_
qi:_emscripten_set_keydown_callback
T$j:_EncoderReplacementFallback__ctor_m1483565116
PB:__ZN7mecanim21DestroyValueArrayMaskEPNS_14ValueArrayMaskER20RuntimeBaseAllocator
O2i:_Interpreter_IsWordChar_m2858055765
N2d:__ZNK38ExecuteEvents_t3484638744_StaticFields22get_s_EndDragHandler_8Ev
Qph:__ZNK33Comparer_t1912461351_StaticFields13get_Default_0Ev
WAh:_Hashtable_CopyTo_m2905447224
Wna:__ZN12FileAccessorC2Ev
qsm:__ZNK37BasicConstraintsExtension_t246219527823get_pathLenConstraint_4Ev
C5e:__ZL58ContactFilter2D_t3805203441_CustomAttributesCacheGeneratorP21CustomAttributesCache
Hzk:_EqualityComparer_1_System_Collections_IEqualityComparer_Equals_m3855544238_gshared
jdb:__ZNK8Renderer29FlattenPerMaterialCustomPropsER22PerThreadPageAllocatorR10RenderNode
ece:__ZN24CanvasScaler_t276797995524set_m_PrevScaleFactor_16Ef
g1i:__Z25Il2CppCodeGenWriteBarrierI17Group_t2468205786EvPPT_S2_
_em:_EventFunction_1_Invoke_m2429482587_gshared
joi:__ZNK29HttpsClientStream_t116055256115get__request_20Ev
U1d:_EventTrigger_OnDeselect_m1919608102
Ptn:_CertificateHandler_Dispose_m2100863831
eod:__ZN23ColliderTilingExtensionC2Ev
Akf:_ModuleBuilder_set_wrappers_type_m2998401134
tfa:__ZN14StackAllocator10ReallocateEPvji
Dyn:__ZN6il2cpp2vm7Runtime12GetConfigDirEv
A1l:_Collection_1_SetItem_m794903769_gshared
Kgi:_SecurityParameters_get_ClientWriteMAC_m225554750
cfd:__ZNSt3__27__sort3IR22InverseDepthComparitorP8DepthHitEEjT0_S5_S5_T_
AGk:_Enumerator_MoveNext_m1177880931_AdjustorThunk
Ahd:__ZN14qsort_internal18QSortSingleJobDataIPN25b2SynchronizeFixturesTask14b2DeferredMoveEiPFbRKS2_S5_EE7SortJobEPS8_
Mpg:_SendMouseEvents_SetMouseMoved_m2822596724
W2e:__ZL82Event_t2956885303_CustomAttributesCacheGenerator_Event_get_commandName_m4275147343P21CustomAttributesCache
L3m:_TextGenerator_Populate_m194003733
aGm:__ZN29PositionAssertion_t33392880619set_pos_0Et
f6i:_Enumerator_MoveNext_m635366482
LIi:_DerivedType_get_FullName_m1025358827
cXf:_CryptoConfig_MapNameToOID_m2044758263
m7g:__ZN22ScrollRect_t413785581426set_m_ScrollSensitivity_11Ef
Ir:__ZN13ConstraintJob23ConstraintComponentDataC2ERKS0_
zbf:__ZL70InputField_t3762917431_CustomAttributesCacheGenerator_m_OnValueChangedP21CustomAttributesCache
PSb:__Z39WriteQueueForTransferSignatureIntoCacheRK31TransferFunctionScriptingTraitsRK24TransferRequestSignature17ScriptingClassPtrR23CachedSerializationDataRb
Vmb:__ZN13RenderManager18UpdateAllRenderersEv
P0j:_Encoding_get_UTF8UnmarkedUnsafe_m320312322
wTk:_Thread_Thread_free_internal_m333849022
z2c:__Z35Transfer_Blittable_FixedBufferFieldI9JSONWritexEvRK29SerializationCommandArgumentsR31RuntimeSerializationCommandInfo
Fzi:__Z25Il2CppCodeGenWriteBarrierI24ConstructorInfo_t5769829EvPPT_S2_
m8a:__ZN15QualitySettings23VirtualRedirectTransferER19StreamedBinaryWrite
ZPd:__ZN22BaseUnityConnectClient30OnEnteringStatePausedOrStoppedEv
rld:__ZN10ClipperLib7Clipper18SwapPositionsInAELEPNS_5TEdgeES2_
Y7j:_Array_compare_TisCustomAttributeNamedArgument_t287865710_m2877346442_gshared
q_l:_Collection_1_ConvertItem_m1556170494_gshared
vA:__ZN7mecanim5human12HumanPoseAddERNS0_9HumanPoseERKS1_S4_
r9i:_DateTime_ToUniversalTime_m1945318289
plj:_DllNotFoundException__ctor_m1156705135
hwh:_ArrayList_ToArray_m3827492363
_dh:_Slider_get_stepSize_m1423227661
s$k:_UInt64_Parse_m819899889
fPj:_SymmetricAlgorithm_set_IV_m3196220308
xLi:_GenericTypeParameterBuilder_GetHashCode_m852224381
zdj:_Convert_ToUInt32_m1453583008
stj:_CompareInfo_Compare_m894311506
sMa:__Z24MergeTransformComponentsR9TransformS0_b
Ymn:__ZNK15dense_hashtableI10KeyWrapperIPK19Il2CppGenericMethodES4_N6il2cpp8metadata23Il2CppGenericMethodHashEN14dense_hash_setIS4_S7_NS4_14EqualsComparerINS6_26Il2CppGenericMethodCompareEEENSt3__29allocatorIS4_EEE8IdentityESB_SE_E10test_emptyEj
cAk:__Z25Il2CppCodeGenWriteBarrierI30EqualityComparer_1_t2540240738EvPPT_S2_
q$d:_EventSystem_UpdateModules_m3643806022
i6n:__ZN6il2cpp2gc16GarbageCollector10StartWorldEv
wOm:__ZNK35GUIContent_t3050628031_StaticFields17get_s_TextImage_5Ev
Ced:__ZN15b2CircleContactD0Ev
T6m:_AnimationOffsetPlayable__cctor_m1029460816
ogm:_InvokableCall_1__ctor_m2610016537_gshared
O5e:__ZL54Collision2D_t2842956331_CustomAttributesCacheGeneratorP21CustomAttributesCache
bSj:_Evidence_get_SyncRoot_m2835084965
JIa:__ZN19StreamedBinaryWrite5AlignEv
h4j:_SetPropertyUtility_SetStruct_TisTouchScreenKeyboardType_t1530597702_m2455393348_gshared
pdi:__ZNK22RSAManaged_t175709382019get_KeyGenerated_14Ev
cUa:__ZN16GraphicsSettings23VirtualRedirectTransferER19StreamedBinaryWrite
euk:_DefaultComparer__ctor_m2280347240_gshared
YFe:__ZL59ICryptoTransform_t2733259762_CustomAttributesCacheGeneratorP21CustomAttributesCache
Edm:__ZN23GenericVirtFuncInvoker1Ib40CustomAttributeTypedArgument_t2723150157E6InvokeEPK10MethodInfoP12Il2CppObjectS0_
wRn:__ZNK6il2cpp8metadata19SZArrayClassCompareclEPK11Il2CppClassS4_
cHi:__ZNK24MonoResource_t410343000914get_filename_2Ev
Q7i:_Convert_ToBoolean_m2833489984
kTa:__Z37GetBarycentricCoordinatesForOuterCellPPK8Vector3fRK13dynamic_arrayIS_Lj0EERS0_RK11TetrahedronR8Vector4f
di:_emscripten_glVertexAttribPointer
wyo:__ZNSt11logic_errorD0Ev
HVb:__ZN14PreloadManager26UpdatePreloadingSingleStepENS_21UpdatePreloadingFlagsEi
Ekm:_TweenRunner_1__ctor_m340723704_gshared
Aah:_ScrollRect_SetLayoutHorizontal_m3078869633
RP:__ZN7mecanim9animation28DestroyBlendTreeNodeConstantEPNS0_21BlendTreeNodeConstantER20RuntimeBaseAllocator
CYi:__ZN20X509Chain_t19491740821set_max_path_length_5Ei
JYe:__ZL98RenderTextureDescriptor_t1974534975_CustomAttributesCacheGenerator_U3CmemorylessU3Ek__BackingFieldP21CustomAttributesCache
nse:__ZN30Image_t2670269651_StaticFields11set_s_Uv_44EP25Vector3U5BU5D_t1718750761
lym:_X509Crl_VerifySignature_m1377612461
Cfo:_GC_cond_register_dynamic_libraries
qdj:_Convert_ToUInt16_m1480956416
xya:__ZN6prcoreL25inner_stretch_i8_bilinearEPKNS_9InnerInfoE
xob:__ZL30RegisterFilteredObjectCallbackPP12Il2CppObjectiPv
XZn:__ZN15dense_hashtableINSt3__24pairIK10KeyWrapperINS1_IPKcS4_EEEiEES6_24NamespaceAndNamePairHashN14dense_hash_mapIS6_iS9_NS6_14EqualsComparerI26NamespaceAndNamePairEqualsEENS0_9allocatorIS8_EEE9SelectKeyESD_SF_E16reset_thresholdsEv
c9l:_ReadOnlyCollection_1_System_Collections_Generic_IListU3CTU3E_RemoveAt_m3317217538_gshared
E2e:__ZL54AudioSource_t3935305588_CustomAttributesCacheGeneratorP21CustomAttributesCache
icd:__ZN16PhysicsManager2D19ApplyParticleForcesER13dynamic_arrayI21BatchedColliderResultLj0EE
YHd:__ZL49__ManagedRegistrationHelperFunction_TileDataProxyPv
B8:__ZN11UnityEngine15CloudWebService16SessionContainer24GetSessionHeaderJsonDataERKN4core12basic_stringIcNS2_20StringStorageDefaultIcEEEERNS2_13StringBuilderE
oIi:_DerivedType_GetEvent_m4157575360
lpa:__ZN13RuntimeStaticI21AssetReferenceStorageLb0EE13StaticDestroyEPv
iI:__Z23ConvertCacheToBuildKeysI11QuaternionfEvRN17AnimationCurveTplIT_E5CacheEiP19StreamedClipBuilder
QCe:__ZL56_MethodBuilder_t600455149_CustomAttributesCacheGeneratorP21CustomAttributesCache
vBj:_BinaryWriter__cctor_m874809665
Jzh:_Comparer__ctor_m2831654082
JVe:__ZL54PhysicsUpdate_t81124440_CustomAttributesCacheGeneratorP21CustomAttributesCache
p1k:__ZN25WeakReference_t133488671614set_gcHandle_1E20GCHandle_t3351438187
Tml:__Z72RuntimeInvoker_Bounds_t2266837910_RuntimeObject_Matrix4x4U26_t3606180965PFvvEPK10MethodInfoPvPS4_
ENi:__ZN36NameObjectCollectionBase_t209184736423set_equality_comparer_9EP12Il2CppObject
rcm:__ZN28GenericInterfaceFuncInvoker2IbiiE6InvokeEPK10MethodInfoP12Il2CppObjectii
X2a:__ZN18StreamedBinaryRead16TransferTypelessEPjPKc17TransferMetaFlags
TLk:__ZN17List_1_t25721361014set__version_3Ei
jy:__ZNK25RuntimeAnimatorController30GetAnimationClipOverrideVectorEv
LCf:__ZN26ResourceReader_t330049263930get_address_of_resource_ver_10Ev
LDg:__ZN16VirtFuncInvoker1I19TimeSpan_t881159249P12Il2CppObjectE6InvokeEjS2_S2_
uQf:__ZN27ClrTypeMetadata_t388585303518set_InstanceType_2EP6Type_t
mmh:__ZNK25SmallXmlParser_t97378783916get_nameBuffer_6Ev
AKe:__ZL79Convert_t2465617642_CustomAttributesCacheGenerator_Convert_ToUInt32_m3188121845P21CustomAttributesCache
d4k:__Z48RuntimeInvoker_RuntimeObject_Decimal_t2948259380PFvvEPK10MethodInfoPvPS4_
STk:_ThreadStart_EndInvoke_m3768045394
voj:__ZN22FileStream_t429218306516set_buf_length_9Ei
srb:__ZNK17FileSystemHandler10IsReadOnlyERK13FileEntryData
aVc:__Z34Quaternion_CUSTOM_Inverse_InjectedRK11QuaternionfRS_
Mwn:__ZNSt3__214__split_bufferIP9FieldInfoRNS_9allocatorIS2_EEEC2EjjS5_
tUf:_StreamingContext__ctor_m2604757771_AdjustorThunk
OKb:__Z18Transfer_BlittableI24GenerateTypeTreeTransferLb1EjEvRK29SerializationCommandArgumentsR31RuntimeSerializationCommandInfo
QYl:__ZN24Collection_1_t230466276714set_syncRoot_1EP12Il2CppObject
$ae:__ZNK29AspectRatioFitter_t331240708323get_m_DelayedSetDirty_7Ev
NEn:__ZNK15dense_hashtableINSt3__24pairIK10KeyWrapperINS1_IPK11Il2CppImageP11Il2CppClassEEEjEES9_17ReflectionMapHashIS8_EN14dense_hash_mapIS9_jSD_NS9_14EqualsComparerINS0_8equal_toIS8_EEEENS0_9allocatorISB_EEE9SelectKeyESI_SK_E10test_emptyERK30dense_hashtable_const_iteratorISB_S9_SD_SM_SI_SK_E
Rfn:__ZN6il2cpp2os12FastAutoLockD2Ev
vAe:__ZL68AssemblyCopyrightAttribute_t836190902_CustomAttributesCacheGeneratorP21CustomAttributesCache
YVl:_Collection_1_Add_m1736908447_gshared
Byd:_cff_vstore_done
mtk:__ZNK23Dictionary_2_t13254515225get_serialization_info_13Ev
lLa:__ZN18StreamedBinaryRead21TransferSTLStyleArrayI13dynamic_arrayI17SortingLayerEntryLj0EEEEvRT_17TransferMetaFlags
pgl:__Z68RuntimeInvoker_Void_t1185182177_UInt16_t2177724958_SByte_t1669577662PFvvEPK10MethodInfoPvPS4_
a0k:__ZN25GenericVirtActionInvoker2IP12Il2CppObjectP39UnhandledExceptionEventArgs_t2886101344E6InvokeEPK10MethodInfoS1_S1_S3_
OHh:_InternalEnumerator_1_get_Current_m3008260692_AdjustorThunk
Y$f:_MACTripleDES_HashFinal_m3613553534
K_k:_UInt64_System_IConvertible_ToChar_m2074245892
Ann:__ZN6il2cpp5utils11collections13ArrayValueMapIPK10Il2CppType17Il2CppInteropData26InteropDataToTypeConverterNS_8metadata14Il2CppTypeLessENS8_26Il2CppTypeEqualityComparerEE12SortComparerC2ES7_S9_
Dr:__ZN4core8hash_setIPN5Unity9ComponentENS_4hashIS3_EENSt3__28equal_toIS3_EEE4growEi
jYa:__ZN13RenderTexture6CreateERK12ObjectHandleI17RenderSurface_TagP17RenderSurfaceBaseES6_NS_11CreateFlagsE
MPk:_UTF8Encoding_InternalGetBytes_m1965760031
sf:_emscripten_glClearDepth
DBc:__ZNK8GUILayer22GetTypeVirtualInternalEv
s8a:__ZN14SafeBinaryRead21TransferSTLStyleArrayINSt3__26vectorIN15QualitySettings14QualitySettingENS1_9allocatorIS4_EEEEEEvRT_17TransferMetaFlags
bln:__ZNK14dense_hash_mapI10KeyWrapperIPK19Il2CppGenericMethodEPK26Il2CppGenericMethodIndicesN6il2cpp8metadata23Il2CppGenericMethodHashENS4_14EqualsComparerINS9_26Il2CppGenericMethodCompareEEENSt3__29allocatorINSE_4pairIKS4_S7_EEEEE9SelectKeyclERKSI_
Zgm:_UnityAction_1__ctor_m3007623985_gshared
DNj:__ZNK23SHA384Managed_t741585759get_H5_12Ev
irm:__ZN29TlsServerSettings_t414439643219set_rsaParameters_2E25RSAParameters_t1728406613
ppl:__Z56RuntimeInvoker_Boolean_t97287965_ILTokenInfo_t2325775114PFvvEPK10MethodInfoPvPS4_
bkb:__ZNSt3__26vectorINS_4pairIPKN5Unity4TypeE7Hash128EENS_9allocatorIS7_EEE8__appendEj
B6c:__ZN8JSONRead21TransferSTLStyleArrayI13dynamic_arrayIaLj0EEEEvRT_17TransferMetaFlags
Eyd:_cff_font_load
cH:__Z25AddPPtrCurveToClipBuilderR13dynamic_arrayI12PPtrKeyframeLj0EERKN11UnityEngine9Animation14GenericBindingER18MecanimClipBuilder
OOc:__Z13IsPathCreatedRKN4core12basic_stringIcNS_20StringStorageDefaultIcEEEE
laf:__ZL99Dropdown_t2274391225_CustomAttributesCacheGenerator_Dropdown_DelayedDestroyDropdownList_m2082128994P21CustomAttributesCache
X$h:__ZN22Enumerator_t208672792711set_stamp_2Ei
A4a:__ZL22stbir__encode_scanlineP11stbir__infoiPvPfiii
FZm:__ZL24UnresolvedVirtualCall_28P12Il2CppObjectS0_iiPK10MethodInfo
MFf:_ExternalException__ctor_m2877839282
prd:__ZN20QuadTreeNodeRenderer13StaticDestroyEPv
x9:__ZN11UnityEngine15CloudWebService20WebRequestRestClient5AbortEv
X_l:_Collection_1_InsertItem_m954500348_gshared
Tqm:__Z25Il2CppCodeGenWriteBarrierI22RSAManaged_t1757093820EvPPT_S2_
Ezc:__ZN9Transform12CleanupClassEv
Aaf:__ZL57FontData_t746620069_CustomAttributesCacheGenerator_m_FontP21CustomAttributesCache
Ycg:_Mathf_Sin_m3411839043
nBa:__ZL55__ManagedRegistrationHelperFunction_SetupCoroutineProxyPv
BCi:_OperatingSystem_Clone_m1122165140
NGl:_GameObject_AddComponent_TisRuntimeObject_m3469369570_gshared
gLl:_List_1_CopyTo_m829257792_gshared
zM:__ZN11UnityEngine9Animation33SetGenericTransformPropertyValuesERKNS0_30AnimatorGenericBindingConstantERKN7mecanim10ValueArrayEP9Transformy
gJe:__ZL59AttributeTargets_t1784037988_CustomAttributesCacheGeneratorP21CustomAttributesCache
Rmn:__ZNK15dense_hashtableI10KeyWrapperIPK19Il2CppGenericMethodES4_N6il2cpp8metadata23Il2CppGenericMethodHashEN14dense_hash_setIS4_S7_NS4_14EqualsComparerINS6_26Il2CppGenericMethodCompareEEENSt3__29allocatorIS4_EEE8IdentityESB_SE_E8min_sizeEjj
VK:__ZN11UnityEngine9Animation28AnimationClipBindingConstant8TransferI24GenerateTypeTreeTransferEEvRT_
v4m:_Canvas_add_willRenderCanvases_m1234571137
cZh:__Z25Il2CppCodeGenWriteBarrierI22Comparer_1_t3655984405EvPPT_S2_
mjf:__ZN25ParameterInfo_t186105659814set_NameImpl_3EP8String_t
nKl:_List_1_RemoveAll_m3165362277_gshared
cSk:__ZN32RegisteredWaitHandle_t152953845421set__callsInProcess_8Ei
kXk:_Type_type_is_subtype_of_m1406623598
RAg:__ZN19Context_t328544694415set_datastore_6EP24ObjectU5BU5D_t2843939325
kV:__ZN9Scripting11UnityEngine2XR5Tango29MeshReconstructionServerProxy9InitProxyEv
z5j:_Array_InternalArray__IEnumerable_GetEnumerator_TisRaycastResult_t3360306849_m3650537473_gshared
Q7j:_Array_InternalArray__IndexOf_TisVector2_t2156229523_m424149457_gshared
AWj:_String_System_IConvertible_ToByte_m4057316234
xJj:_TextReader__cctor_m322748985
Zdg:__ZNK21Matrix4x4_t18179018439get_m01_4Ev
YQk:_Thread_get_CurrentThread_m4142136012
kEd:_Dual_Project
Auc:__ZNSt3__26__treeINS_12__value_typeI11ShaderTagIDS2_EENS_19__map_value_compareIS2_S3_NS_4lessIS2_EELb1EEENS_9allocatorIS3_EEE12__find_equalIS2_EERPNS_16__tree_node_baseIPvEENS_21__tree_const_iteratorIS3_PNS_11__tree_nodeIS3_SD_EEiEERPNS_15__tree_end_nodeISF_EESG_RKT_
gcc:__ZNSt3__27__sort4IRNS_6__lessI11CulledLightS2_EEPS2_EEjT0_S6_S6_S6_T_
FLn:__ZN6il2cpp2vm14TypeNameParser26ParseArrayModifierOptionalEv
W5l:_ReadOnlyCollection_1_GetEnumerator_m3522987773_gshared
bla:__Z26scripting_object_get_class18ScriptingObjectPtr
ZSn:__ZN6il2cpp6icalls8mscorlib6System10Reflection8Assembly13get_code_baseEP24Il2CppReflectionAssemblyb
Uhd:__ZN34b2SolveDiscreteIslandBodySleepTaskD0Ev
Ukb:__ZNSt3__26vectorIN4core12basic_stringIcNS1_20StringStorageDefaultIcEEEE13stl_allocatorIS5_L18MemLabelIdentifier13ELi16EEE7reserveEj
_Zf:_DSASignatureDeformatter__ctor_m2889130126
F_i:_X509ChainElementCollection_Clear_m2271223414
dvf:__ZN16VirtFuncInvoker0IP27UnmanagedMarshal_t984015687E6InvokeEjP12Il2CppObject
rBc:__ZNK28MonoBehaviourPropertyBinding15GenerateBindingERKN4core12basic_stringIcNS0_20StringStorageDefaultIcEEEEbRN11UnityEngine9Animation14GenericBindingE
RPl:_List_1_set_Item_m35836043_gshared
Scf:__ZL70ScrollRect_t4137855814_CustomAttributesCacheGenerator_m_OnValueChangedP21CustomAttributesCache
b$i:_X509ChainElementCollection__ctor_m3424079155
qwm:__ZN39X509Certificate_t489243025_StaticFields30set_U3CU3Ef__switchU24map11_25EP24Dictionary_2_t2736202052
F8g:_ScrollRect_get_viewRect_m791243225
$Qh:__ZN32InternalEnumerator_1_t35075654099set_idx_1Ei
C$f:_HMACSHA512__cctor_m4155933671
EAm:_LinkStack_Push_m3081279930
$yj:__ZN6Guid_t8set__b_1Es
Ibk:__Z25Il2CppCodeGenWriteBarrierI29Level2MapComparer_t1716225294EvPPT_S2_
yQd:__Z33GetUnityAnalyticsScriptingClassesv
t0h:_Enumerator_MoveNext_m1107569389_gshared
z9m:__ZN32Vector3_t3722313464_StaticFields29set_positiveInfinityVector_12E19Vector3_t3722313464
WTk:_Timer_Init_m891735195
Nwn:__ZNSt3__26vectorIP9FieldInfoNS_9allocatorIS2_EEE26__swap_out_circular_bufferERNS_14__split_bufferIS2_RS4_EE
xjm:_UnityEvent_3_GetDelegate_m1156357290_gshared
M8n:__ZN6il2cpp6icalls8mscorlib6System11Environment15internalGetHomeEv
LNh:_InternalEnumerator_1__ctor_m4200721464_gshared
jeg:_Matrix4x4_GetHashCode_m4034747639_AdjustorThunk
s$m:__ZL25UnresolvedVirtualCall_123P12Il2CppObjectiPK10MethodInfo
$Fa:__ZN9Scripting11UnityEngine12CubemapProxy12CleanupProxyEv
C1d:__Z25Il2CppCodeGenWriteBarrierI18List_1_t2475741330EvPPT_S2_
jEf:_ResourceCacheItem_t51292791_marshal_pinvoke_cleanup
JHa:__ZNK5Unity9Component7GetNameEv
Fxn:__ZNSt3__214__split_bufferIN6il2cpp6icalls8mscorlib6System12PropertyPairERNS_9allocatorIS5_EEEC2EjjS8_
hmc:__Z23FindMonoScriptFromClass17ScriptingClassPtr
iPj:_SymmetricAlgorithm_get_KeySize_m4185004893
_Hl:_List_1_GetEnumerator_m232588170_gshared
D0g:_U3CDelayedSetDirtyU3Ec__Iterator0_Reset_m160466733
eld:__ZNSt3__26vectorIPN10ClipperLib6OutRecENS_9allocatorIS3_EEE21__push_back_slow_pathIRKS3_EEvOT_
wM:__ZN11UnityEngine9Animation28SetGenericPPtrPropertyValuesERKNS0_30AnimatorGenericBindingConstantERKN7mecanim10ValueArrayE
oJi:_DynamicMethod_ToString_m2710486086
obk:__Z25Il2CppCodeGenWriteBarrierI28TableRangeU5BU5D_t2913440125EvPPT_S2_
_ch:__ZN18Slider_t390372890223set_m_OnValueChanged_25EP23SliderEvent_t3180273144
ZNl:_List_1_System_Collections_IList_Remove_m1070694895_gshared
cOm:_LayoutCache__ctor_m3885940174
$9a:__ZN13ScreenManagerD0Ev
I6m:_AnimationMotionXToDeltaPlayable_GetHandle_m1319190040_AdjustorThunk
rad:__ZNK11b2RopeJoint16GetReactionForceEf
gdo:__ZN6il2cpp6icalls8mscorlib6System11DiagnosticsL39IsCalledFromSystemDiagnosticsStackTraceERKNSt3__26vectorI20Il2CppStackFrameInfoNS4_9allocatorIS6_EEEE
IN:__ZN7mecanim8skeleton26SkeletonPoseComputeGlobalQEPKNS0_8SkeletonEPKNS0_13SkeletonPoseTIN4math4trsXEEEPS7_ii
Yqm:_TlsServerSettings__ctor_m373357120
J_k:_UInt64_System_IConvertible_ToByte_m1501504925_AdjustorThunk
Moi:__ZN49RSASslSignatureFormatter_t2709678514_StaticFields29set_U3CU3Ef__switchU24map16_2EP24Dictionary_2_t2736202052
kYh:__ZN16VirtFuncInvoker2Ii22OrderBlock_t1585977831S0_E6InvokeEjP12Il2CppObjectS0_S0_
Fmi:_TlsClientHello_ProcessAsTls1_m2549285167
Tza:__ZL50__ManagedRegistrationHelperFunction_PreUpdateProxyPv
vkk:_CryptoConvert_ToCapiKeyBlob_m3371450375
wPi:__ZN25FtpWebRequest_t157781830511set_proxy_7EP12Il2CppObject
S6l:_ReadOnlyCollection_1_System_Collections_IList_Clear_m3591436538_gshared
Q7g:_ScrollRect_set_decelerationRate_m723367336
n0m:__ZL25UnresolvedVirtualCall_172P12Il2CppObject15Ray_t3785851493S0_fiPK10MethodInfo
hv:__ZN9BlobWrite8TransferI22OffsetPtrArrayTransferIiEEEvRT_PKc17TransferMetaFlags
D$j:_EncoderExceptionFallback_Equals_m2760188920
Kdo:__ZN6il2cpp6icalls8mscorlib6System7Runtime15InteropServices8GCHandle15GetTargetHandleEP12Il2CppObjectii
WRh:_InternalEnumerator_1__ctor_m43405049_AdjustorThunk
Tqf:__ZN31OpCodes_t126150456_StaticFields15set_Mul_Ovf_182E17OpCode_t123070264
cV:__ZL65__ManagedRegistrationHelperFunction_MeshReconstructionConfigProxyPv
Exe:__ZL94Hashtable_t1853889766_CustomAttributesCacheGenerator_Hashtable_t1853889766____hcp_PropertyInfoP21CustomAttributesCache
j_:__ZN4FMOD6System7releaseEv
y6h:__ZNK15Link_t54431796410get_Next_1Ev
psh:_Boolean_CompareTo_m3665076258
_Wj:_String_Split_m3580120853
jnk:_PrivateKeyInfo__ctor_m2811023496
rna:__Z18PathToAbsolutePathRKN4core12basic_stringIcNS_20StringStorageDefaultIcEEEE
s6e:__ZL95Rigidbody2D_t939494601_CustomAttributesCacheGenerator_Rigidbody2D_AddForce_m1099013366____mode1P21CustomAttributesCache
IPm:_GUILayoutUtility_LayoutFromEditorWindow_m2914699782
F7h:_BigInteger_SetBit_m1723423691
zVk:_TimeSpan_get_TotalMinutes_m3920401708
qOj:__ZNK25SHA512Managed_t17873363398get_H2_9Ev
JI:__ZN13AnimationClip23VirtualRedirectTransferER17RemapPPtrTransfer
aol:__Z78RuntimeInvoker_RuntimeObject_ObjectU26_t2146539884_RuntimeObject_RuntimeObjectPFvvEPK10MethodInfoPvPS4_
Jvj:__ZNK30DateTimeFormatInfo_t240585370123get_shortTimePattern_17Ev
QGm:__ZNK22AnchorInfo_t338701115111get_width_4Ev
hoi:__ZNK29HttpsClientStream_t116055256114get__status_21Ev
XNi:__ZNK27_KeysEnumerator_t424666643216get_m_position_1Ev
cpe:__ZN40GraphicRegistry_t3479976429_StaticFields17set_s_EmptyList_2EP18List_1_t3132410353
kvg:__ZNK26ServerIdentity_t234220860819get__serverObject_8Ev
sVc:__Z22Mesh_CUSTOM_HasChannelP12Il2CppObject30InternalScriptingShaderChannel
JJc:__ZN15DirectorManager17AcquireOutputNodeEv
Nug:__ZN32Vector2_t2156229523_StaticFields14set_upVector_4E19Vector2_t2156229523
Z1a:__Z14resize_trimmedINSt3__26vectorI13dynamic_arrayI8Vector2fLj0EENS0_9allocatorIS4_EEEEEvRT_j
wBl:_Array_InternalArray__set_Item_TisColor32_t2600501292_m1891325855_gshared
S$m:__ZL25UnresolvedVirtualCall_149P12Il2CppObject25PlayableGraph_t3515989261S0_PK10MethodInfo
nRb:__ZN10MonoScript23VirtualRedirectTransferER17RemapPPtrTransfer
QGl:_GameObject_GetComponentInChildren_TisRuntimeObject_m1310240902_gshared
BLi:_Locale_GetText_m2640320736
D2i:__ZN20IntStack_t218932768712set_values_0EP22Int32U5BU5D_t385246372
wZe:__ZL69PersistentCall_t3407714124_CustomAttributesCacheGenerator_m_ArgumentsP21CustomAttributesCache
h5a:__ZN29SerializeTraitsForStringTypesIN4core12basic_stringIcNS0_20StringStorageDefaultIcEEEEE8TransferI24GenerateTypeTreeTransferEEvRS4_RT_
ixa:__ZN6prcoreL21StretchRGB9e5BilinearEPKNS_9InnerInfoE
vWa:__ZN16ReflectionProbes28GetMinBakedCubemapResolutionEv
XSn:__ZN6il2cpp6icalls8mscorlib6System10Reflection8Assembly22load_with_partial_nameEP12Il2CppStringP40mscorlib_System_Security_Policy_Evidence
QQj:_PermissionSet__ctor_m2328457660
k5g:__Z25Il2CppCodeGenWriteBarrierI17List_1_t651996883EvPPT_S2_
L3h:_Enumerator__ctor_m1849900510_gshared
cbo:__GLOBAL__sub_I_String_cpp
Sfn:__ZN15dense_hashtableINSt3__24pairIK10KeyWrapperIPK22Il2CppGenericParameterEP11Il2CppClassEES6_N6il2cpp5utils11PointerHashIS4_EEN14dense_hash_mapIS6_S9_SE_NS6_14EqualsComparerINS0_8equal_toIS5_EEEENS0_9allocatorISA_EEE9SelectKeyESJ_SL_E6insertERKSA_
yGg:_CADMessageBase_MarshalArguments_m1927937746
FYg:_InputField_GenerateCaret_m1459647218
UCf:__ZN26ResourceReader_t330049263912set_hashes_6EP22Int32U5BU5D_t385246372
b$b:__ZN14DataBufferGLES16RecreateWithDataEjPKv
CFc:__Z43Register_UnityEngine_Input_GetKeyDownStringv
eIa:__Z29GetGlobalAllowNameConversionsv
Pak:_Array_InternalArray__Insert_TisTableRange_t3332867892_m558285859_gshared
Zmc:__ZN8Material8SetColorEN9ShaderLab16FastPropertyNameERK10ColorRGBAf
WPi:__ZN26HttpWebRequest_t166943651517set_webHeaders_14EP31WebHeaderCollection_t1942268960
mzg:__ZNK32Context_t3285446944_StaticFields18get_global_count_9Ev
U7e:__ZL77ExecuteEvents_t3484638744_CustomAttributesCacheGenerator_U3CU3Ef__mgU24cacheFP21CustomAttributesCache
Erj:__ZN20TextInfo_t381042552221get_address_of_data_8Ev
wwk:__ZN43EqualityComparer_1_t1249878500_StaticFields14set__default_0EP30EqualityComparer_1_t1249878500
aKk:_Enumerator_System_Collections_IEnumerator_Reset_m3754523291_gshared
oLa:__ZN15SerializeTraitsI13dynamic_arrayI17SortingLayerEntryLj0EEE8TransferI19StreamedBinaryWriteEEvRS2_RT_
vHo:_glUniform3uiv__wrapper
rJe:__ZL77Convert_t2465617642_CustomAttributesCacheGenerator_Convert_ToByte_m2375887898P21CustomAttributesCache
Lqo:_GUIManager__ctor_m1293982016
Q_i:_X509CertificateEnumerator__ctor_m943731472
EOj:_SHA512Managed_processLength_m2162821715
clg:_RangeInt_get_end_m4128831787
mgm:_InvokableCall_1_Find_m1741895083_gshared
aAo:dynCall_iiifiii
BVd:__Z25GetUnityConnectModuleSpecv
HMl:_List_1_set_Item_m2082115010_gshared
F0j:_Encoding_GetBytes_m3735967069
Pjd:__ZN23ColliderTilingExtension5ResetEv
_ph:_Array_Initialize_m3004991267
u2b:__ZN14GfxContextGLES43AddRenderSurfaceToDeferredFBOInvalidateListEPK17RenderSurfaceGLES
ITn:__ZN6il2cpp6icalls8mscorlib6System9Threading6Thread15Thread_internalEP12Il2CppThreadP14Il2CppDelegate
bKa:__ZN11NamedObject23VirtualRedirectTransferER14SafeBinaryRead
goe:__ZN19Graphic_t166033561130set_m_OnDirtyLayoutCallback_14EP23UnityAction_t3245792599
Jgf:__Z25Il2CppCodeGenWriteBarrierI24LocalBuilder_t3562264111EvPPT_S2_
Evd:__ZNSt3__26vectorIN20TextRenderingPrivate8FontImpl13CharacterInfoE13stl_allocatorIS3_L18MemLabelIdentifier1ELi16EEE6insertENS_11__wrap_iterIPKS3_EERS9_
Slb:__ZN23PreloadManagerOperation6IsDoneEv
PQg:__ZNK46RemotingConfiguration_t4113740665_StaticFields16get__errorMode_5Ev
Lph:_Array_CreateInstance_m1027597705
RIl:_List_1_GrowIfNeeded_m3796726_gshared
Ayh:__ZNK29BitArrayEnumerator_t89349621814get__current_1Ev
RDn:__ZNK15dense_hashtableINSt3__24pairIK10KeyWrapperINS1_IPK10MethodInfoP11Il2CppClassEEEjEES9_17ReflectionMapHashIS8_EN14dense_hash_mapIS9_jSD_NS9_14EqualsComparerINS0_8equal_toIS8_EEEENS0_9allocatorISB_EEE9SelectKeyESI_SK_E8min_sizeEjj
sAa:__ZL44__ManagedRegistrationHelperFunction_LODProxyPv
ipd:__ZN10Effector2D10EndContactEP9b2Contact
uao:__ZN6il2cpp5utils11StringUtils11Utf16ToUtf8ERKNSt3__212basic_stringIDsNS2_11char_traitsIDsEENS2_9allocatorIDsEEEE
gam:_Comparison_1__ctor_m2649066178_gshared
tbi:_MD4Managed_Decode_m4273685594
tcl:__Z50RuntimeInvoker_Int64_t3736567304_Int16_t2552820387PFvvEPK10MethodInfoPvPS4_
Gen:_UnityEngineModuleAssembly__ctor_m242195730
lyh:__ZN20BitArray_t408788350914set__version_2Ei
_Km:__ZN14Uri_t10023632421set_cachedHashCode_15Ei
j2m:__ZL25UnresolvedVirtualCall_276P12Il2CppObjectiPK10MethodInfo
Dnb:__ZN21LightProbeProxyVolume18HasHardwareSupportEv
Ged:__ZNK20b2SeparationFunction17FindMinSeparationEPiS0_f
gwi:_IntPtr__ctor_m620280096
wya:__ZN6prcoreL31inner_stretch_argb8888_bilinearEPKNS_9InnerInfoE
VCd:_UNITY_FT_Outline_Decompose
Lx:__ZN18StreamedBinaryRead8TransferI9OffsetPtrIN7mecanim8skeleton13SkeletonPoseTIN4math4trsXEEEEEEvRT_PKc17TransferMetaFlags
Psm:_GeneralNames_get_IPAddresses_m4242915644
Vaj:_Decimal_op_Implicit_m3873897383
XFk:_Enumerator_Dispose_m3500272053_AdjustorThunk
pon:__ZNSt3__24pairIK10KeyWrapperIN6il2cpp5utils13dynamic_arrayIPK10Il2CppTypeLj4EEEEPFvvEEC2ERKSD_
f2e:__ZL84AudioSampleProvider_t3950279772_CustomAttributesCacheGenerator_sampleFramesAvailableP21CustomAttributesCache
qKh:__ZNK32InternalEnumerator_1_t398717028111get_array_0Ev
iPa:__Z20scripting_object_new17ScriptingClassPtr
ipe:__ZN27GridLayoutGroup_t304622046119set_m_Constraint_16Ei
ive:__ZL69RuntimeArray_CustomAttributesCacheGenerator_Array_Reverse_m3714848183P21CustomAttributesCache
Vnk:_KeyGeneratedEventHandler_Invoke_m2527485594
DIj:__ZNK24StreamWriter_t126637890414get_byte_buf_5Ev
gse:_Image_get_layoutPriority_m1290204116
vBn:__ZN24dense_hashtable_iteratorINSt3__24pairIK10KeyWrapperINS1_IPK9FieldInfoP11Il2CppClassEEEjEES9_17ReflectionMapHashIS8_EN14dense_hash_mapIS9_jSD_NS9_14EqualsComparerINS0_8equal_toIS8_EEEENS0_9allocatorISB_EEE9SelectKeyESI_SK_E30advance_past_empty_and_deletedEv
sIm:_Repetition_get_Expression_m2673886232
GEi:__ZN23AssemblyName_t27093193814set_revision_5Ei
Phj:_Decimal__ctor_m1925875020_AdjustorThunk
zNf:_SerializationCallbacks__ctor_m3863304525
grd:__GLOBAL__sub_I_TerrainScriptingClasses_cpp
YTa:__ZN18ShadowMapJobHeaderD0Ev
bGm:__ZN18Parser_t243050938310set_caps_2EP21ArrayList_t2718874744
jFe:__ZL59SerializationInfo_t950877179_CustomAttributesCacheGeneratorP21CustomAttributesCache
jOg:_ReturnMessage_get_Exception_m3375728265
L:Math_exp
V8m:_Vector3_Min_m1803158933
wn:FUNCTION_TABLE_iiifi
obi:__ZNK21MD4Managed_t95754006311get_state_4Ev
god:__ZN13BoxCollider2D15InitializeClassEv
prm:_TlsServerSettings_set_CertificateTypes_m2047242411
sSm:_SymmetricTransform_OFB_m3690147804
jUh:_InternalEnumerator_1_MoveNext_m3713722659_AdjustorThunk
kSb:__ZN13MonoBehaviour9SetScriptERK4PPtrI10MonoScriptE18ScriptingObjectPtr
L7i:__ZN19Decimal_t29482593808set_hi_6Ej
POb:__Z18Transfer_BlittableI18StreamedBinaryReadLb1E5RectTIiEEvRK29SerializationCommandArgumentsR31RuntimeSerializationCommandInfo
icn:_RaycastHit2D_get_collider_m1549426026
aLn:__ZN14dense_hash_mapI10KeyWrapperINSt3__24pairIPK9FieldInfoP11Il2CppClassEEEj17ReflectionMapHashIS8_ENS9_14EqualsComparerINS1_8equal_toIS8_EEEENS1_9allocatorINS2_IKS9_jEEEEED2Ev
bPn:___cxx_global_var_init_1_13047
kIb:__Z18Transfer_BlittableI17RemapPPtrTransferLb0E8Vector2fEvRK29SerializationCommandArgumentsR31RuntimeSerializationCommandInfo
hYn:__ZNSt3__218uninitialized_copyIPNS_4pairIK10KeyWrapperIP14Il2CppIUnknownEjEES8_EET0_T_SA_S9_
TTj:__ZN40SecurityElement_t1046076091_StaticFields29set_invalid_attr_name_chars_6EP22CharU5BU5D_t3528271667
gZh:__ZNK35Comparer_1_t3655984405_StaticFields14get__default_0Ev
Yxl:__ZNK40RSAPKCS1KeyExchangeFormatter_t276109610112get_random_1Ev
Njh:_PKCS12_get_RNG_m2649456600
ptb:__ZNK10FileSystem16LastErrorMessageEv
fDj:__ZN32FileNotFoundException_t22539102515set_fileName_11EP8String_t
kPe:__ZL104NativeClassAttribute_t2601352714_CustomAttributesCacheGenerator_U3CQualifiedNativeNameU3Ek__BackingFieldP21CustomAttributesCache
Rbb:__ZN4PPtrI11LightProbesE8TransferI18StreamedBinaryReadEEvRT_
Gin:__ZN15dense_hashtableINSt3__24pairIK10KeyWrapperIPK11Il2CppClassEPKcEES6_N6il2cpp5utils11PointerHashIS3_EEN14dense_hash_mapIS6_S9_SE_NS6_14EqualsComparerINS0_8equal_toIS5_EEEENS0_9allocatorISA_EEE9SelectKeyESJ_SL_E14squash_deletedEv
Uwo:_fputc
s1d:_EventSystem_Update_m1662072334
$Zj:_SystemException__ctor_m4132668650
FXd:__ZN22UnityWebRequestManager10InitializeEv
F6n:___cxx_global_var_init_14087
Hlb:__ZNSt3__26__treeINS_12__value_typeIN4core12basic_stringIcNS2_20StringStorageDefaultIcEEEE4PPtrI6ObjectEEENS_19__map_value_compareIS6_SA_NS_4lessIS6_EELb1EEE13stl_allocatorISA_L18MemLabelIdentifier52ELi16EEE15__emplace_multiIJRNS_4pairIS6_S9_EEEEENS_15__tree_iteratorISA_PNS_11__tree_nodeISA_PvEEiEEDpOT_
Mho:__ZN6il2cpp6icalls8mscorlib6System10Reflection4Emit13ModuleBuilder20create_modified_typeEP27Il2CppReflectionTypeBuilderP12Il2CppString
tdo:__ZN6il2cpp8metadataL7CompareIhEEiRKT_S4_
$ud:_raccess_guess_darwin_newvfs
zcb:__ZN8Renderer23VirtualRedirectTransferER18StreamedBinaryRead
WIb:__ZL26Transfer_SimpleNativeClassI17RemapPPtrTransfer8GradientLb1EEvRK29SerializationCommandArgumentsR31RuntimeSerializationCommandInfo
u0d:_RaycasterManager_RemoveRaycasters_m3057093063
FGc:__ZN12CachedWriter9InitWriteER15CacheWriterBase
wJc:__Z21UnsignedInt64ToStringy
D6g:_GetRaycastNonAllocCallback_BeginInvoke_m3984885848
LKh:_InternalEnumerator_1_MoveNext_m4138204635_AdjustorThunk
sCm:_PatternCompiler_BeginLink_m1295557963
VYj:__ZN33Encoding_t1523322056_StaticFields24set_isoLatin1Encoding_23EP20Encoding_t1523322056
Sdf:__ZL70CanvasScaler_t2767979955_CustomAttributesCacheGenerator_m_PhysicalUnitP21CustomAttributesCache
tzj:_GuidParser_ThrowFormatException_m3223388534
YHm:_Group_GetAnchorInfo_m3730312864
Oaf:__ZL50Graphic_t1660335611_CustomAttributesCacheGeneratorP21CustomAttributesCache
z1g:__ZNK38LayoutUtility_t2745813735_StaticFields26get_U3CU3Ef__amU24cache0_0Ev
nWk:_TimeSpan_op_LessThanOrEqual_m300470010
ago:_GC_print_static_roots
H1e:__ZL139AnimatorOverrideController_t3582062219_CustomAttributesCacheGenerator_AnimatorOverrideController_OnInvalidateOverrideController_m3380737075P21CustomAttributesCache
XAg:_ContextAttribute_Freeze_m3288175579
jT:__ZN15SerializeTraitsI9OffsetPtrIN7mecanim9animation17BlendTreeConstantEEE8TransferI19StreamedBinaryWriteEEvRS4_RT_
Dln:__ZNSt3__218uninitialized_fillIPNS_4pairIK10KeyWrapperIPK19Il2CppGenericMethodEPK26Il2CppGenericMethodIndicesEESB_EEvT_SD_RKT0_
Xsa:__ZZN15DirectorManager15InitializeClassEvEN41FixedUpdateDirectorFixedUpdateRegistrator7ForwardEv
eIn:__ZN6il2cpp2vmL10IsAssemblyEP12Il2CppObject
OFj:_MemoryStream_get_Position_m3733941202
Tjo:__ZN6il2cpp2os9MutexImpl7TryLockEjb
Vlm:_ListPool_1_Clear_m2587502754_gshared
_Jm:__ZN27Uri_t100236324_StaticFields30set_U3CU3Ef__switchU24map16_32EP24Dictionary_2_t2736202052
Nfo:_GC_clear_fl_links
_Ki:_GenericTypeParameterBuilder_InvokeMember_m1647304778
F5k:__Z58RuntimeInvoker_RuntimeTypeHandle_t3027515415_RuntimeObjectPFvvEPK10MethodInfoPvPS4_
fSj:__ZN20Evidence_t200814414826set_assemblyEvidenceList_2EP21ArrayList_t2718874744
Yqc:__ZL10KeyHandleriPK23EmscriptenKeyboardEventPv
P3i:_Slot_t3975888750_marshal_pinvoke
BEo:_glLinkProgram__wrapper
Jrb:__ZN18ScriptingArguments8AddInt64Ex
Hxa:__ZN6prcoreL12RemapGenericI17TexFormatARGB888815TexFormatBGR888EEvPKNS_9InnerInfoE
fDb:__ZN26SinglePassStereoSupportExt19SaveStereoConstantsEv
uua:__ZNSt3__26vectorIP10MemoryPool13stl_allocatorIS2_L18MemLabelIdentifier76ELi16EEE21__push_back_slow_pathIRKS2_EEvOT_
Oyj:_TextInfo_get_ListSeparator_m1628160079
cOn:_il2cpp_unity_liveness_calculation_from_root
L7e:__ZL77ExecuteEvents_t3484638744_CustomAttributesCacheGenerator_U3CU3Ef__mgU24cache6P21CustomAttributesCache
Ach:_Selectable_OnCanvasGroupChanged_m472903475
hHg:__ZNK32CADMethodReturnMessage_t2812984718get__returnValue_4Ev
rii:_ClientContext_get_SslStream_m1583577309
fXn:__ZN6il2cpp6icalls8mscorlib6System13Globalization11CultureInfo35construct_internal_locale_from_nameEP17Il2CppCultureInfoP12Il2CppString
n5l:_ReadOnlyCollection_1_System_Collections_IList_set_Item_m4015530489_gshared
Ecn:__ZL18incMultConstant128PyS_ii
bLb:__ZL22Transfer_ManagedObjectI24GenerateTypeTreeTransferLb1EEvRK29SerializationCommandArgumentsR31RuntimeSerializationCommandInfo
b3k:__Z100RuntimeInvoker_Boolean_t97287965_RuntimeObject_Int32_t2950945753_RuntimeObject_UInt16U26_t2814738322PFvvEPK10MethodInfoPvPS4_
ctl:__Z56RuntimeInvoker_ILTokenInfo_t2325775114_Int32_t2950945753PFvvEPK10MethodInfoPvPS4_
t_f:_HMAC_get_BlockSizeValue_m455678067
G9b:__ZN15RenderNodeQueueC2E10MemLabelId
Xun:__ZN6il2cpp2vm21ThreadPoolCompartment20SpawnNewWorkerThreadEv
WDf:_ResourceEnumerator_FillCache_m1661715061
U6l:_ReadOnlyCollection_1_System_Collections_IList_IndexOf_m3664838805_gshared
QId:__ZL17CleanupModule_TLSv
mHe:__ZL72SecuritySafeCriticalAttribute_t3505979402_CustomAttributesCacheGeneratorP21CustomAttributesCache
ui:_emscripten_set_main_loop_timing
l3f:_Bounds_get_min_m3755135869
jdj:_Convert_ToUInt16_m3523269149
U2f:_Bounds_get_center_m1418449258
U2n:__ZN24dense_hashtable_iteratorINSt3__24pairIK10KeyWrapperIP12Il2CppObjectEN6il2cpp2gc9CachedCCWEEES5_NS7_5utils11PointerHashIS3_EEN14dense_hash_mapIS5_S9_SD_NS5_14EqualsComparerINS0_8equal_toIS4_EEEENS0_9allocatorISA_EEE9SelectKeyESI_SK_EC2EPK15dense_hashtableISA_S5_SD_SM_SI_SK_EPSA_SS_b
u0b:__ZN14DataBufferGLES12RecordRenderEv
R0m:__ZL25UnresolvedVirtualCall_202P12Il2CppObject22OrderBlock_t1585977831PK10MethodInfo
M2d:_ExecuteEvents_get_endDragHandler_m2879610446
pAi:__ZNK34DefaultMemberAttribute_t327509242217get_member_name_0Ev
Dmc:__ZN14ImageReference10FlipImageYEv
dFc:__Z29Input_CUSTOM_GetKeyDownStringP12Il2CppString
ywa:__ZN6prcoreL17RGBAFloatToRGB9e5EPKNS_9InnerInfoE
aUl:__ZN19Stack_1_t392349561923get_address_of__array_0Ev
SNa:__ZN21ScalableBufferManager20GetHeightScaleFactorEv
_tc:__ZNSt3__26vectorIN9ShaderLab20SerializedSubProgram15VectorParameterENS_9allocatorIS3_EEE8__appendEj
$W:__ZN4FMOD3DSP9setBypassEb
Oqc:__Z19NormalizeWheelInputf
Fne:_Graphic_DoMeshGeneration_m3548487693
Npc:__Z29StdTemplateConversionFunctionIsaEbPvR14SafeBinaryRead
bK:__ZN11KeyframeTplIfE8TransferI14SafeBinaryReadEEvRT_
tE:__ZNK4PPtrI13MonoBehaviourEcvPS0_Ev
SEm:_Repetition__ctor_m1672362629
Q7c:__Z29Transfer_Blittable_ArrayFieldI8JSONReadhEvRT_R9ArrayInfoRK23StaticTransferFieldInfo
gVj:_SecurityFrame_ToString_m339310712_AdjustorThunk
Yke:__ZN19FontData_t74662006917set_m_FontStyle_2Ei
Sxc:__ZN11MonoManager25GetImageFromAssemblyIndexEi
GHh:_InternalEnumerator_1_get_Current_m3008260692_gshared
umo:__ZN6il2cpp2os20ThreadLocalValueImpl8SetValueEPv
yco:__ZN6il2cpp2os11Environment17GetProcessorCountEv
Yaj:_Decimal_op_Implicit_m2299919277
B2c:__Z18Transfer_BlittableI9JSONWriteLb1EtEvRK29SerializationCommandArgumentsR31RuntimeSerializationCommandInfo
zHi:__ZNK30ConstructorBuilder_t281352410816get_parameters_3Ev
Wnf:__ZN31OpCodes_t126150456_StaticFields15set_Ldc_I4_1_23E17OpCode_t123070264
jKj:_UnexceptionalStreamReader_ReadToEnd_m920589220
Ufj:_DateTime_System_IConvertible_ToType_m1242864300
xXj:_String_IndexOf_m1298810678
Ae:___syscall85
OKd:__ZN2UI14CanvasRenderer18UpdateTRSHierarchyEb
YFn:__ZNK24dense_hashtable_iteratorINSt3__24pairIK10KeyWrapperINS1_IPK12PropertyInfoP11Il2CppClassEEEjEES9_17ReflectionMapHashIS8_EN14dense_hash_mapIS9_jSD_NS9_14EqualsComparerINS0_8equal_toIS8_EEEENS0_9allocatorISB_EEE9SelectKeyESI_SK_EdeEv
jHl:_Mesh_GetAllocArrayFromChannel_TisVector3_t3722313464_m2332439905_gshared
_Un:__ZN6il2cpp5utils10StringViewIDsE5EmptyEv
L9b:__ZNSt3__26__sortIRPFbP10GUIElementS2_EPS2_EEvT0_S7_T_
fQ:__ZN26AnimatorOverrideController23VirtualRedirectTransferER18StreamedBinaryRead
dIi:_ConstructorBuilder_GetILGenerator_m1750792206
$Yj:_EncoderFallback_get_ReplacementFallback_m818398284
p7n:__ZN6il2cpp2os6Thread19DetachCurrentThreadEv
Z1d:_EventTrigger_OnBeginDrag_m4203438710
ovg:_ClientActivatedIdentity_OnLifetimeExpired_m635240647
ODb:__ZN11MonoManager23VirtualRedirectTransferER24GenerateTypeTreeTransfer
vEl:_Dictionary_2_Do_CopyTo_TisRuntimeObject_TisRuntimeObject_m2344529027_gshared
_Ci:__Z25Il2CppCodeGenWriteBarrierI30ResolveEventHolder_t2120639521EvPPT_S2_
vF:__ZN23AnimationPlayableOutput17SetSourcePlayableEP8Playable
h9c:__GLOBAL__sub_I_Modules_Physics2D_0_cpp
eag:_SupportedRenderingFeatures_set_active_m3446087961
KNf:__ZN24TypeMetadata_t313952326017set_MemberTypes_1EP22TypeU5BU5D_t3940880105
ful:__Z37RuntimeInvoker_UILineInfo_t4195266810PFvvEPK10MethodInfoPvPS4_
W5f:_CullingGroup_Dispose_m782801025
Dsk:_Dictionary_2_System_Collections_IDictionary_GetEnumerator_m529247385_gshared
x8:__ZN11UnityEngine15CloudWebService14DataDispatcher15SetupWebRequestEv
jzk:_EqualityComparer_1_get_Default_m1038871402_gshared
eSd:__ZN11UnityEngine15PlatformWrapper13GetShaderCapsEv
Wyi:__ZN37MonoEnumInfo_t3694469084_StaticFields18set_global_cache_5EP21Hashtable_t1853889766
Phc:__ZNSt3__211__sift_downIR26RenderDeferredObjectSorterP16RenderObjectDataEEvT0_S5_T_NS_15iterator_traitsIS5_E15difference_typeES5_
r7e:__ZL99CertificateHandler_t2739891000_CustomAttributesCacheGenerator_CertificateHandler_Release_m648790222P21CustomAttributesCache
RZf:__ZN16VirtFuncInvoker1IP22ByteU5BU5D_t4116647657S1_E6InvokeEjP12Il2CppObjectS1_
eLi:_GenericTypeParameterBuilder_IsDefined_m98179866
j5e:__ZL82Physics2D_t1528932956_CustomAttributesCacheGenerator_Physics2D_Raycast_m1377762210P21CustomAttributesCache
Plk:_KeyPairPersistence_get_MachinePath_m3812267291
T6i:_Stack_Peek_m2216191248
Hfj:_DateTime_System_IConvertible_ToDecimal_m1044850612_AdjustorThunk
YEc:__ZN21FixedBehaviourManager6UpdateEv
GOc:__ZN9Transform9SetParentEPS_NS_15SetParentOptionE
RRa:__ZN19ShaderPropertySheet8SetFloatEN9ShaderLab16FastPropertyNameEfNS_8SetFlagsE
UFm:__ZN25CharacterClass_t83912086014set_pos_cats_3EP20BitArray_t4087883509
umb:__ZN19RuntimeSceneManager24BeginIntegrateMainThreadEP10UnityScene
qAf:__ZNK25ParameterInfo_t186105659815get_marshalAs_6Ev
XMd:__ZN2UI17SystemProfilerApi9EndSampleENS0_10SampleTypeE
zGn:__ZNK30dense_hashtable_const_iteratorINSt3__24pairIK10KeyWrapperINS1_IPK12PropertyInfoP11Il2CppClassEEEjEES9_17ReflectionMapHashIS8_EN14dense_hash_mapIS9_jSD_NS9_14EqualsComparerINS0_8equal_toIS8_EEEENS0_9allocatorISB_EEE9SelectKeyESI_SK_EptEv
Lmi:_TlsServerCertificate_ProcessAsSsl3_m1306583193
y8n:__ZNSt3__2plIcNS_11char_traitsIcEENS_9allocatorIcEEEENS_12basic_stringIT_T0_T1_EERKS9_S6_
VIj:_StringReader_CheckObjectDisposedException_m3796163530
VZk:_UInt32_System_IConvertible_ToInt16_m1659441601
xBh:__ZN30GenericInterfaceActionInvoker2IP12Il2CppObjectS1_E6InvokeEPK10MethodInfoS1_S1_S1_
iuc:__ZN9ShaderLab20SerializedSubProgramaSERKS0_
kzo:_roundf
cth:_Byte_System_IConvertible_ToSingle_m324484566_AdjustorThunk
_zn:__ZNK14dense_hash_mapI10KeyWrapperINSt3__24pairIPK14Il2CppAssemblyP11Il2CppClassEEEj17ReflectionMapHashIS8_ENS9_14EqualsComparerINS1_8equal_toIS8_EEEENS1_9allocatorINS2_IKS9_jEEEEE9SelectKeyclERKSI_
GEa:__ZN9Scripting11UnityEngine12Experimental3U2D15SpriteBoneProxy9InitProxyEv
d8i:_Decimal_op_Explicit_m2848387298
Pfk:__ZN25SortKeyBuffer_t294527527014set_options_21Ei
ODk:_KeyValuePair_2_ToString_m1238786018_gshared
Hy:__ZN8Animator15SetPrepareStageEv
Bv:__ZN34BlobWriteTransferSTLStyleArrayImplI22OffsetPtrArrayTransferIN4math4trsXEEEclERS3_17TransferMetaFlagsR9BlobWrite
g7g:__ZN22ScrollRect_t413785581418set_m_Horizontal_5Eb
tU:__ZN8AnimatorC2E10MemLabelId18ObjectCreationMode
tgn:__ZN6il2cpp2vmL24SetupTypeHierarchyLockedEP11Il2CppClassRKNS_2os12FastAutoLockE
cQf:__ZNK31OpCodes_t126150456_StaticFields11get_Box_137Ev
SWj:_String_Clone_m3573869765
cOj:__ZN25SHA512Managed_t178733633911set_wOff_17Ei
Zqc:__ZL11TextHandleriPK23EmscriptenKeyboardEventPv
_ec:__Z20CalculateLightMatrixRK15SharedLightDataP10Matrix4x4f
$5b:__ZNSt3__26vectorIP17FileSystemHandlerNS_9allocatorIS2_EEE21__push_back_slow_pathIRKS2_EEvOT_
Sud:_destroy_face
xjk:_ASN1_get_Length_m1923878580
ABm:__ZNK17Regex_t365730985314get_roptions_8Ev
HSf:_SerializableTypeMetadata_WriteTypeData_m1099030367
KFo:_glBlendEquationSeparate__wrapper
WSd:__ZNSt3__26vectorIPN11UnityEngine15CloudWebService14CloudEventInfoE13stl_allocatorIS4_L18MemLabelIdentifier88ELi16EEE21__push_back_slow_pathIS4_EEvOT_
Tuj:__ZN36CultureInfo_t4157843068_StaticFields23set_shared_by_number_36EP21Hashtable_t1853889766
$io:__ZN6il2cpp6icalls8mscorlib6System8Security12Cryptography24RNGCryptoServiceProvider13RngInitializeEP11Il2CppArray
uSf:_CodeGenerator__cctor_m3167429173
XOe:__ZL68UsedByNativeCodeAttribute_t1703770351_CustomAttributesCacheGeneratorP21CustomAttributesCache
wBm:_Regex_get_RightToLeft_m2317867572
QZ:__ZN20SoundChannelInstance7setMuteEb
i3k:__Z81RuntimeInvoker_Void_t1185182177_RuntimeObject_Int32_t2950945753_Int32_t2950945753PFvvEPK10MethodInfoPvPS4_
AOg:__ZNK33ServerObjectReplySink_t296604298615get__identity_1Ev
Yfj:_DateTimeUtils_ToString_m1782212840
xIl:_List_1__cctor_m972674764_gshared
YBi:_NumberFormatter_NumberToString_m3906556024
ggo:_set_bits
I_e:__ZL85Logger_t274032455_CustomAttributesCacheGenerator_Logger_set_filterLogType_m3622751173P21CustomAttributesCache
Lod:__ZN7b2World18SetContactListenerEP17b2ContactListener
J0b:__ZN18GfxFramebufferGLES22MakeCurrentFramebufferENS_7BuiltinE
Fco:__ZN6il2cpp2vm12MarshalAlloc4FreeEPv
cWn:__ZN6il2cpp5utils13dynamic_arrayIP12Il2CppObjectLj4EE8allocateEj
d3n:__ZNK24dense_hashtable_iteratorINSt3__24pairIK10KeyWrapperIP12Il2CppObjectEN6il2cpp2gc9CachedCCWEEES5_NS7_5utils11PointerHashIS3_EEN14dense_hash_mapIS5_S9_SD_NS5_14EqualsComparerINS0_8equal_toIS4_EEEENS0_9allocatorISA_EEE9SelectKeyESI_SK_EeqERKSN_
wch:__ZN22Selectable_t325002844143set_U3CisPointerInsideU3Ek__BackingField_14Eb
WVa:__ZN12CachedReader4ReadEPvj
V5g:__Z25Il2CppCodeGenWriteBarrierI49GetRayIntersectionAllNonAllocCallback_t2311174851EvPPT_S2_
BQg:__ZN46RemotingConfiguration_t4113740665_StaticFields28set_wellKnownClientEntries_6EP21Hashtable_t1853889766
XBf:_TypeFilter_EndInvoke_m998903841
i9d:_StandaloneInputModule_ProcessMouseEvent_m2923582521
XHc:__Z18RegisterUnityClassI11GameManagerEvPKc
Vof:__ZN31OpCodes_t126150456_StaticFields14set_Ldind_I_76E17OpCode_t123070264
H6e:__ZL49Canvas_t3310196443_CustomAttributesCacheGeneratorP21CustomAttributesCache
Pyf:_MonoMethod_ShouldPrintFullName_m1607666412
Y4i:__ZNK35SortedList_t2427694641_StaticFields18get_INITIAL_SIZE_0Ev
lec:__Z24CalculateLightShadowFadeRK6CamerafffR8Vector4f
iif:__ZN25MethodBuilder_t280731675311set_rtype_1EP6Type_t
Uja:__ZN19RuntimeSceneManagerD2Ev
kgg:_PlayerConnectionInternal__ctor_m2406218802
l6m:__Z25Il2CppCodeGenWriteBarrierI17Object_t631007953EvPPT_S2_
HOm:__ZNK20GUIStyle_t395690151115get_m_Margin_11Ev
pqj:_CCGregorianCalendar_GetMonth_m1547203696
uGk:_Enumerator_Dispose_m786980821_AdjustorThunk
QOb:__Z18Transfer_BlittableI18StreamedBinaryReadLb0E10Matrix4x4fEvRK29SerializationCommandArgumentsR31RuntimeSerializationCommandInfo
nvk:_DefaultComparer__ctor_m1019370711_gshared
tKm:__ZN27Uri_t100236324_StaticFields20set_UriSchemeNews_24EP8String_t
Jxm:__ZN19X509Crl_t114876738816set_nextUpdate_3E20DateTime_t3738529785
W3n:__ZN6il2cpp2osL23ConvertAccessModeToUnixEi
Omd:__ZN13BoxCollider2DD0Ev
N7i:__ZN19Decimal_t29482593808set_lo_7Ej
Jej:__ZNK33CurrentSystemTimeZone_t399835225522get_utcOffsetWithDLS_8Ev
Coe:__ZN28GraphicRaycaster_t299969710914set_m_Canvas_8EP18Canvas_t3310196443
PBf:_TypeDelegator_IsPrimitiveImpl_m2362421338
Qig:_CreateOutputMethod_BeginInvoke_m3202548900
Mye:__ZL51Directory_t828876208_CustomAttributesCacheGeneratorP21CustomAttributesCache
Fqh:_SimpleEnumerator_Reset_m2182001888
WGa:__ZN9Scripting11UnityEngine16ApplicationProxy9InitProxyEv
Wql:__Z86RuntimeInvoker_Int32_t2950945753_Vector2_t2156229523_Vector2_t2156229523_RuntimeObjectPFvvEPK10MethodInfoPvPS4_
Y$e:__ZL96Transform_t3600365921_CustomAttributesCacheGenerator_Transform_Rotate_m1538690078____relativeTo2P21CustomAttributesCache
U7j:_Array_LastIndexOf_TisRuntimeObject_m1677937501_gshared
hzj:__ZN6Guid_t8set__j_9Eh
r4:__ZN11AudioSource18IsPlayingScriptingEv
ulk:_KeyBuilder_IV_m2230195376
Sad:__ZNK12b2WheelJoint10GetAnchorAEv
zIo:_glShaderSource__wrapper
dvb:__ZN25MultiBlocksMemoryFileData17AdjustBlocksCountEj
nTn:__ZNSt3__214__split_bufferIN6il2cpp2vm22EmbeddedResourceRecordERNS_9allocatorIS3_EEED2Ev
U6n:__ZN6il2cpp5utils13dynamic_arrayIPNS_2os6ThreadELj4EE10reallocateEPS4_j
fld:__ZN10ClipperLib14PointInPolygonERKNS_8IntPointEPNS_5OutPtE
Szj:__ZNK6Guid_t8get__d_3Ev
Ysd:__ZN13TextRendering4Font8TransferI24GenerateTypeTreeTransferEEvRT_
Izb:__ZN9GfxDevice15EndProfileEventEPN9profiling6MarkerE
thn:__ZN6il2cpp2vm5Class9HasParentEP11Il2CppClassS3_
tXh:_Comparer_1__ctor_m319670016_gshared
_k:_glStencilMask
X7n:__ZN6il2cpp2os10ThreadImpl16GetCurrentThreadEv
wOi:_TypeConverterAttribute_GetHashCode_m948291090
uch:__ZN22Selectable_t325002844132get_address_of_m_Interactable_10Ev
Qqc:__ZN15GUIEventManager10QueueEventERK10InputEvent
CEa:__ZN9Scripting11UnityEngine15GameObjectProxy9InitProxyEv
$Mm:__ZNK26GUILayoutGroup_t215778969515get_isWindow_15Ev
jVl:_Collection_1_Clear_m1300437781_gshared
g3e:__ZL62EventType_t3528516131_CustomAttributesCacheGenerator_mouseMoveP21CustomAttributesCache
hFf:_DecimalConstantAttribute__ctor_m3583301917
RCa:__ZN9Scripting11UnityEngine9Rendering18CommandBufferProxy12CleanupProxyEv
QK:__ZN24GenerateTypeTreeTransfer21TransferSTLStyleArrayINSt3__26vectorI24CompressedAnimationCurve13stl_allocatorIS3_L18MemLabelIdentifier26ELi16EEEEEEvRT_17TransferMetaFlags
vka:__ZNSt3__227__insertion_sort_incompleteIRPFbRKN18AwakeFromLoadQueue4ItemES4_EPS2_EEbT0_S9_T_
Dfo:_GC_push_conditional_with_exclusions
JRm:__ZN22TextEditor_t275985536624set_m_DblClickInitPos_12Ei
IB:__ZN21AnimationPosePlayableD0Ev
BEd:_Compute_Point_Displacement
DJe:__ZL80Convert_t2465617642_CustomAttributesCacheGenerator_Convert_ToDecimal_m2858622624P21CustomAttributesCache
zdg:__ZNK37MathfInternal_t624072491_StaticFields22get_FloatMinDenormal_1Ev
Mfb:__Z31DrawSpriteDeformedFromNodeQueueRK15RenderNodeQueuej16VertexInputMasksi
hyc:__Z44Register_UnityEngine_RenderTexture_set_depthv
xum:__ZNK26X509Certificate_t48924302521get_m_keyalgoparams_7Ev
$v:__ZN7mecanim5human11CreateHumanEPNS_8skeleton8SkeletonEPNS1_13SkeletonPoseTIN4math4trsXEEER20RuntimeBaseAllocator
g5f:_Component_GetComponentInParent_m779177818
Bqn:__ZN15dense_hashtableINSt3__24pairIK10KeyWrapperIPK11Il2CppClassEPKcEES6_N6il2cpp5utils11PointerHashIS3_EEN14dense_hash_mapIS6_S9_SE_NS6_14EqualsComparerINS0_8equal_toIS5_EEEENS0_9allocatorISA_EEE9SelectKeyESJ_SL_E13clear_deletedER30dense_hashtable_const_iteratorISA_S6_SE_SN_SJ_SL_E
Nwg:__ZN21InterfaceFuncInvoker1IP8String_tS1_E6InvokeEjP11Il2CppClassP12Il2CppObjectS1_
pId:_unitytls_x509_export_der
bOb:__Z18Transfer_BlittableI18StreamedBinaryReadLb1EiEvRK29SerializationCommandArgumentsR31RuntimeSerializationCommandInfo
Jwi:_InvalidOperationException__ctor_m1685032583
qTn:__ZNKSt3__26vectorIcNS_9allocatorIcEEE8max_sizeEv
s3n:__ZN6il2cpp2vm12GenericClass17GetTypeDefinitionEP18Il2CppGenericClass
y7g:__ZN22ScrollRect_t413785581415set_m_Content_4EP25RectTransform_t3704657025
Cpk:_Dictionary_2_System_Collections_ICollection_get_SyncRoot_m2069913662_gshared
kae:_UIBehaviour_IsDestroyed_m3033055982
_oi:__Z25Il2CppCodeGenWriteBarrierI28HandshakeMessage_t3696583168EvPPT_S2_
$el:__Z109RuntimeInvoker_Void_t1185182177_RuntimeObject_RuntimeObject_SByte_t1669577662_Int32_t2950945753_RuntimeObjectPFvvEPK10MethodInfoPvPS4_
KMl:__ZN18List_1_t137237425612set__items_1EP28UILineInfoU5BU5D_t1655937503
stg:_Enumerator_Reset_m39541243
wWg:_InputField_get_readOnly_m3111985574
IWa:__ZN14RenderSettings27UpdateIndirectSpecularColorEv
CTe:__ZL59RectOffset_t1369453676_CustomAttributesCacheGenerator_m_PtrP21CustomAttributesCache
Xt:__ZN9Scripting11UnityEngine10Animations27AnimationMixerPlayableProxy9InitProxyEv
axn:__ZN6il2cpp6icalls8mscorlib6System8MonoType16GetMethodsByNameEP20Il2CppReflectionTypeP12Il2CppStringibS5_
yEe:__ZL73ObjRef_t2141158884_CustomAttributesCacheGenerator_U3CU3Ef__switchU24map26P21CustomAttributesCache
J8e:__ZL102PointerEventData_t3807901092_CustomAttributesCacheGenerator_PointerEventData_set_pointerId_m1888344330P21CustomAttributesCache
M1m:__ZL25UnresolvedVirtualCall_251P12Il2CppObjectPK10MethodInfo
v2e:__ZL88AudioClip_t3680889665_CustomAttributesCacheGenerator_AudioClip_get_ambisonic_m3815052287P21CustomAttributesCache
Ero:_Player_Animate_m1521745661
nT:__Z17TransferOffsetPtrI9OffsetPtrI8Vector2fE19StreamedBinaryWriteEvRT_PKcRjRT0_
g0g:_U3CDelayedSetDirtyU3Ec__Iterator0__ctor_m3936335621
Yto:_strncmp
wdb:__ZN4PPtrI10GameObjectE8TransferI14SafeBinaryReadEEvRT_
fwm:__ZNK26X509Certificate_t48924302515get_m_subject_9Ev
UVm:_AudioClipPlayable_Equals_m3705880618_AdjustorThunk
j_e:__ZL106PlayableAsset_t3219022681_CustomAttributesCacheGenerator_PlayableAsset_Internal_CreatePlayable_m2550417712P21CustomAttributesCache
cKe:__ZL78Convert_t2465617642_CustomAttributesCacheGenerator_Convert_ToSByte_m2486156346P21CustomAttributesCache
qBm:__Z25Il2CppCodeGenWriteBarrierI17Match_t3408321083EvPPT_S2_
czl:_RijndaelTransform__cctor_m2439033240
RWb:__ZNSt3__27__sort3IRNS_4lessIN22BuiltinResourceManager8ResourceEEEPS3_EEjT0_S7_S7_T_
_Sb:__Z23TransferScriptingObjectI19StreamedBinaryWriteEvRT_18ScriptingObjectPtr17ScriptingClassPtrPK15MonoScriptCache
Lve:__ZL175U3CGetEnumeratorU3Ec__Iterator0_t1202911786_CustomAttributesCacheGenerator_U3CGetEnumeratorU3Ec__Iterator0_System_Collections_Generic_IEnumeratorU3CTU3E_get_Current_m322251035P21CustomAttributesCache
rZm:__ZL24UnresolvedVirtualCall_14P12Il2CppObject25RSAParameters_t1728406613PK10MethodInfo
BFd:_ps_hints_t2mask
xFl:_LayoutGroup_SetProperty_TisVector2_t2156229523_m2721164497_gshared
b3j:_Array_InternalArray__ICollection_Remove_TisMonoResource_t4103430009_m238733686_gshared
twi:_IntPtr_ToString_m1831665121
m5k:__Z74RuntimeInvoker_Int32_t2950945753_RuntimeObject_RuntimeObject_RuntimeObjectPFvvEPK10MethodInfoPvPS4_
heh:_Slider_Set_m1476104429
eCf:__ZN28GenericInterfaceFuncInvoker1IP10Assembly_tP28ResolveEventArgs_t1779456501E6InvokeEPK10MethodInfoP12Il2CppObjectS3_
are:_Image_set_fillClockwise_m2210525152
YHc:__Z18RegisterUnityClassI12ScriptMapperEvPKc
g1m:__ZL25UnresolvedVirtualCall_219P12Il2CppObjectaaiPK10MethodInfo
lCb:__ZNSt3__26vectorIN20GpuProgramParameters14ConstantBufferENS_9allocatorIS2_EEE21__push_back_slow_pathIRKS2_EEvOT_
bCl:_Array_Resize_TisUILineInfo_t4195266810_m2197625248_gshared
jhg:_PlayerConnection_DisconnectedCallback_m1697017309
fib:__Z19GetTimeSinceStartupv
X2f:__ZNK18Bounds_t226683791014get_m_Center_0Ev
Vre:_Image_AddQuad_m2161647989
FRj:__ZNK40SecurityElement_t1046076091_StaticFields30get_invalid_attr_value_chars_7Ev
_$d:_BaseInputModule_DeactivateModule_m856719157
L7n:__ZN6il2cpp2os10ThreadImpl11SetPriorityENS0_14ThreadPriorityE
CJk:_Enumerator_System_Collections_IEnumerator_Reset_m2953002685_gshared
b5k:__Z50RuntimeInvoker_Int64_t3736567304_Int32_t2950945753PFvvEPK10MethodInfoPvPS4_
xpe:__ZNK27GridLayoutGroup_t304622046116get_m_Spacing_15Ev
XEd:_TT_Load_Composite_Glyph
bOh:__ZN32InternalEnumerator_1_t25766417799set_idx_1Ei
Mzb:__ZN9GfxDevice16DeleteTimerQueryEP13GfxTimerQuery
FQl:_List_1_Insert_m1695211546_gshared
a9h:__ZN21InterfaceFuncInvoker2IbP22BigInteger_t2902905090iE6InvokeEjP11Il2CppClassP12Il2CppObjectS1_i
Xjl:__Z49RuntimeInvoker_Void_t1185182177_Color_t2555686324PFvvEPK10MethodInfoPvPS4_
Eza:__ZL51__ManagedRegistrationHelperFunction_UnityEventProxyPv
a$a:__ZN9ShaderLab11shaderprops9GetTexEnvEPK19ShaderPropertySheetS3_NS_16FastPropertyNameE16TextureDimensionb
qKl:_List_1_Sort_m3232912161_gshared
APm:_GUILayoutGroup_CalcHeight_m1669391299
zcc:__ZN29RenderNodeQueuePrepareContextC2Ev
XNn:_il2cpp_gc_disable
qvc:__ZN9ShaderLab20SerializedSubProgram16TextureParameter8TransferI24GenerateTypeTreeTransferEEvRT_
FBo:dynCall_viiiiiiiiiiiii
DRf:__ZN18VirtActionInvoker1I19Decimal_t2948259380E6InvokeEjP12Il2CppObjectS0_
b_f:_DSASignatureDeformatter_SetKey_m2999549245
Ijo:__ZN6il2cpp2os11MutexHandle4WaitEb
Gxb:__ZN9GfxDevice19SaveStereoConstantsEv
Hjo:__ZN6il2cpp2os11MutexHandle4WaitEj
tPc:__ZL34GetComponentsImplementationRecurseILb1ELi1ELi1EEbR10GameObjectbRK17CompareParametersRK39GetComponentsImplementation_ReturnValue
l6k:__Z114RuntimeInvoker_Boolean_t97287965_RuntimeObject_RuntimeObject_Int32_t2950945753_Int32_t2950945753_Int32_t2950945753PFvvEPK10MethodInfoPvPS4_
gHi:_AssemblyBuilder_GetTypes_m3415680380
Rwa:__ZN6prcoreL17RemapGenericFloatI15TexFormatRGHalf18TexFormatARGBFloatEEvPKNS_9InnerInfoE
yyk:__ZNK43EqualityComparer_1_t3632197202_StaticFields14get__default_0Ev
Rkj:_StackFrame_GetMethod_m1395840764
UUn:__ZN6il2cpp6icalls8mscorlib6SystemL10AssignRealIfEEvNS2_17WidenedValueUnionEPv14Il2CppTypeEnumjj
mZa:__ZNK13RenderTexture13GetDataHeightEv
AUb:__Z18SimulateMouseInputi
e8b:__ZN13RenderManager23AddRemoveCamerasDelayedEv
qml:__Z119RuntimeInvoker_Void_t1185182177_RuntimeObject_Single_t1397266774_Single_t1397266774_SByte_t1669577662_Int32_t2950945753PFvvEPK10MethodInfoPvPS4_
yBa:__ZL51__ManagedRegistrationHelperFunction_Vector2IntProxyPv
fJb:__Z35Transfer_Blittable_FixedBufferFieldI17RemapPPtrTransferyEvRK29SerializationCommandArgumentsR31RuntimeSerializationCommandInfo
q$g:_LayoutElement_OnEnable_m1760066426
mUd:__ZN11UnityEngine9Analytics15AnalyticsConfigC2Ev
PCi:_OverflowException__ctor_m4029085969
xrh:_BitConverter__cctor_m3841343255
kTh:__ZNK32InternalEnumerator_1_t196306608311get_array_0Ev
At:__ZN9Scripting11UnityEngine13AnimatorProxy12CleanupProxyEv
JWb:__ZNSt3__27__sort4IRN10vector_mapIiN17InstancingBatcher12PropertyTypeENS_4lessIiEE13stl_allocatorINS_4pairIiS3_EEL18MemLabelIdentifier1ELi16EEE13value_compareEPS8_EEjT0_SF_SF_SF_T_
A3m:_TextGenerator_get_characterCount_m864136654
fRh:__ZNK32InternalEnumerator_1_t35075654099get_idx_1Ev
LYi:__ZN33X509Chain_t194917408_StaticFields29set_U3CU3Ef__switchU24mapB_12EP24Dictionary_2_t2736202052
kSj:__ZN30EvidenceEnumerator_t170816666714set_hostEnum_1EP12Il2CppObject
jlc:__ZN13RenderTexture8SetWidthEi
Xzc:__ZNK28RectTransformPropertyBinding12SetPPtrValueERKN11UnityEngine9Animation10BoundCurveEi
cXb:__ZN18FrameTimingManager18GetVSyncsPerSecondEv
c0j:__ZN44EncoderReplacementFallbackBuffer_t186318716217set_replacement_0EP8String_t
ZEd:_UNITY_FT_GlyphLoader_CheckSubGlyphs
TXc:__Z12RotateAround15TransformAccessRKN4math7_float3Ef
Hyh:__ZN35CaseInsensitiveComparer_t367003580013set_culture_2EP23CultureInfo_t4157843068
yun:_RemoteSettings_RemoteSettingsUpdateCompleted_m2956290507
dom:__ZN31InternalAsyncResult_t350428282013set__buffer_9EP22ByteU5BU5D_t4116647657
sTk:__ZN18Thread_t230083606916set_ec_to_set_37EP28ExecutionContext_t1748372627
xWl:_Collection_1_System_Collections_ICollection_CopyTo_m1516601228_gshared
jqa:__ZN23DefaultMeshVertexFormatC2E18VertexChannelsInfo
HXl:_Collection_1_CopyTo_m4278237485_gshared
zOg:_ServerObjectReplySink_SyncProcessMessage_m512968558
Dbn:_Physics2D_Raycast_m2082490717
bLj:_Int16_System_IConvertible_ToDouble_m1661805412
_Zl:_Collection_1_Add_m3860636938_gshared
rai:__ZNK23ARC4Managed_t26418584528get_y_15Ev
hod:__ZZN13BoxCollider2D15InitializeClassEvEN41FunctorImpl_40kSpriteTilingPropertyChange4CallEPviR11MessageData
nGg:__ZN18ObjRef_t214115888417set__serverType_5EP6Type_t
gLk:_List_1_Insert_m4050947056_gshared
zha:__ZN9ShaderLab16FastPropertyName4InitEPKc
UMh:_InternalEnumerator_1__ctor_m39232262_AdjustorThunk
lzi:__ZNK37MonoEnumInfo_t3694469084_StaticFields20get_short_comparer_8Ev
lck:__ZNK24TailoringInfo_t86643365420get_TailoringCount_2Ev
lR:__ZN14SafeBinaryRead21TransferSTLStyleArrayI13dynamic_arrayI4PPtrI13MonoBehaviourELj0EEEEvRT_17TransferMetaFlags
m_a:__ZN6ObjectC2E10MemLabelId18ObjectCreationMode
M1l:_Collection_1_System_Collections_IEnumerable_GetEnumerator_m3596816767_gshared
zNm:__Z25Il2CppCodeGenWriteBarrierI26GUILayoutGroup_t2157789695EvPPT_S2_
_Nh:_InternalEnumerator_1_get_Current_m3911557813_AdjustorThunk
b6c:__ZN8JSONRead21TransferSTLStyleArrayI31ArrayOfManagedObjectsTransfererEEvRT_17TransferMetaFlags
TJ:__ZNSt3__26vectorIN13AnimationClip9PPtrCurveE13stl_allocatorIS2_L18MemLabelIdentifier26ELi16EEE6resizeEj
eA:__ZN17AnimationPlayable17GetAnimationClipsER13dynamic_arrayIP13AnimationClipLj0EE
Vth:_Char_System_IConvertible_ToByte_m2347554595_AdjustorThunk
o8f:__ZN26PersistentCall_t340771412417set_m_CallState_4Ei
ZWe:__ZL59TooltipAttribute_t3957072629_CustomAttributesCacheGeneratorP21CustomAttributesCache
V0e:__ZL99TextGenerator_t3211863866_CustomAttributesCacheGenerator_TextGenerator_Internal_Destroy_m1142896160P21CustomAttributesCache
NYa:__ZN13RenderTexture9SetMipMapEb
hjn:__ZN15dense_hashtableINSt3__24pairIK10KeyWrapperIPK11Il2CppClassEPKcEES6_N6il2cpp5utils11PointerHashIS3_EEN14dense_hash_mapIS6_S9_SE_NS6_14EqualsComparerINS0_8equal_toIS5_EEEENS0_9allocatorISA_EEE9SelectKeyESJ_SL_E13set_empty_keyERKSA_
plh:__ZN26SecurityParser_t412448007711set_root_13EP27SecurityElement_t1046076091
nHm:_BalancingGroup_Compile_m2575117193
wta:__Z18GetDirectorManagerv
bWl:_Collection_1_GetEnumerator_m1824095167_gshared
WPj:__ZN29TripleDESTransform_t9641690609set_E3_14EP24DESTransform_t4088905499
Csm:__ZN50ExtendedKeyUsageExtension_t3929363080_StaticFields29set_U3CU3Ef__switchU24map14_4EP24Dictionary_2_t2736202052
q5a:__Z18UploadAsyncTextureR7Texturej
Mri:_Int32_Equals_m2976157357_AdjustorThunk
RJa:__ZN11NamedObject8TransferI19StreamedBinaryWriteEEvRT_
E$e:__ZL99SceneManager_t2787271929_CustomAttributesCacheGenerator_SceneManager_LoadScene_m2298600132____mode1P21CustomAttributesCache
Nil:__Z73RuntimeInvoker_Single_t1397266774_Vector2_t2156229523_Vector2_t2156229523PFvvEPK10MethodInfoPvPS4_
MFh:__ZN32InternalEnumerator_1_t411633109011set_array_0EP11Il2CppArray
QOg:_SoapAttribute_get_XmlNamespace_m859394681
GYj:__ZN33Encoding_t1523322056_StaticFields33set_utf8EncodingWithoutMarkers_21EP20Encoding_t1523322056
wym:_X509ExtensionCollection_System_Collections_IEnumerable_GetEnumerator_m1475785462
c$b:__ZN7ApiGLES19UploadBufferSubDataEjN2gl12BufferTargetEllPKv
o8m:_SkeletonBone_t4134054672_marshal_pinvoke_cleanup
Kva:__ZNSt3__216__rotate_forwardINS_11__wrap_iterIPN4core12basic_stringIcNS2_20StringStorageDefaultIcEEEEEEEET_S9_S9_S9_
pug:_Vector2_GetHashCode_m3916089713
Mha:__ZdaPv
QXg:_Navigation_get_mode_m1766451275
LZg:__ZNK40U3CCaretBlinkU3Ec__Iterator0_t258988903813get_U24this_2Ev
Mlh:_SmallXmlParserException__ctor_m1976648878
aVf:__ZN31RuntimeMethodHandle_t113392498422get_address_of_value_0Ev
xle:__ZNK19FontData_t74662006915get_m_MaxSize_5Ev
zR:__ZN7mecanim12statemachine20StateMachineConstant8TransferI14SafeBinaryReadEEvRT_
$Yg:__ZNK22InputField_t376291743131get_m_HasDoneFocusTransition_62Ev
WXg:_Selectable_get_isPointerDown_m3518318267
Zfg:__ZN40PlayerEditorConnectionEvents_t341178751324set_disconnectionEvent_2EP33ConnectionChangeEvent_t3251856151
jPj:_SymmetricAlgorithm_set_KeySize_m3805756466
Cqh:__ZNK27SimpleEnumerator_t43389224912get_length_2Ev
jli:__ZNK19Context_t397123470725get_readSequenceNumber_17Ev
mHa:__ZN9Scripting5Unity11Collections8LowLevel6Unsafe47NativeDisableUnsafePtrRestrictionAttributeProxy9InitProxyEv
gth:_Byte_System_IConvertible_ToUInt32_m1049546902_AdjustorThunk
_fg:__Z25Il2CppCodeGenWriteBarrierI33ConnectionChangeEvent_t3251856151EvPPT_S2_
dgl:__Z53RuntimeInvoker_Double_t594665363_Interval_t1802865632PFvvEPK10MethodInfoPvPS4_
f9g:__ZN21Scrollbar_t149444723327get_address_of_m_Tracker_26Ev
bEg:_LeaseSink_RenewLease_m578578728
Moc:__Z21InitializeBatchedJobsv
c5m:_CanvasGroup_get_blocksRaycasts_m1805542303
kMj:_SHA1Internal_ProcessBlock_m1991889327
dGb:__Z19TransferField_ArrayI14SafeBinaryRead27Converter_SimpleNativeClassI8GUIStyleEEvRK23StaticTransferFieldInfoR31RuntimeSerializationCommandInfoRT0_
L1m:__ZL25UnresolvedVirtualCall_250P12Il2CppObjectPK10MethodInfo
uQb:__ZN18StreamedBinaryRead21TransferSTLStyleArrayI13dynamic_arrayIN4math12int3_storageELj0EEEEvRT_17TransferMetaFlags
oCl:_Array_Sort_TisRuntimeObject_TisRuntimeObject_m1685639929_gshared
ojo:__ZN6il2cpp5utils10MemoryPoolC2Ev
kRg:_RemotingServices_SetMessageTargetIdentity_m4083751943
bWa:__ZN14RenderSettings5ResetEv
iGa:__ZN9Scripting11UnityEngine15ColorGamutProxy9InitProxyEv
v1c:__ZN5Unity9rapidjson12GenericValueINS0_4UTF8IcEE13JSONAllocatorE10FindMemberIS4_EENS0_21GenericMemberIteratorILb0ES3_S4_EERKNS1_IS3_T_EE
uIl:__ZN18List_1_t305805257312set__items_1EP28OrderBlockU5BU5D_t2389202590
VNh:_InternalEnumerator_1_System_Collections_IEnumerator_get_Current_m3892960115_AdjustorThunk
Dxc:__ZN9ShaderLabL18AddPropertyToArrayERK19ShaderPropertySheetR13dynamic_arrayIiLj0EERKNS_8FloatValE
sVn:__ZNSt3__212basic_stringIDsNS_11char_traitsIDsEENS_9allocatorIDsEEE6appendEPKDsj
hSm:_SymmetricTransform_Finalize_m4129642865
B0i:_CaptureCollection_CopyTo_m3566922817
Exf:_MonoEventInfo_t346866618_marshal_pinvoke_cleanup
Z_f:_HMAC_HashCore_m3684104066
qbm:__ZN28GenericInterfaceFuncInvoker2Ii20UIVertex_t4057497605S0_E6InvokeEPK10MethodInfoP12Il2CppObjectS0_S0_
o8c:__ZN5Unity9rapidjson13GenericReaderINS0_4UTF8IcEES3_13JSONAllocatorE11ParseNumberILj1ENS0_25GenericInsituStringStreamIS3_EENS0_15GenericDocumentIS3_S4_S4_EEEEvRT0_RT1_
K7:__ZN11UnityEngine15CloudWebService14DataDispatcherD0Ev
q7h:__ZNK22BigInteger_t290290509012get_length_0Ev
Xeb:__ZN14SpriteRenderer14OnChangeSpriteEv
kxm:__ZN22X509Stores_t137393623714set__trusted_1EP21X509Store_t2777415283
vZl:_Collection_1_RemoveItem_m2911050674_gshared
mVf:_RuntimeTypeHandle_GetHashCode_m3999856879
ilk:__ZN22DSAManaged_t280026018216set_j_missing_12Eb
$2k:__Z79RuntimeInvoker_UInt16_t2177724958_RuntimeObject_Int32_t2950945753_RuntimeObjectPFvvEPK10MethodInfoPvPS4_
E7n:__ZN6il2cpp2os10ThreadImplD2Ev
NWe:__ZL56ResetInputAxis_t866062302_CustomAttributesCacheGeneratorP21CustomAttributesCache
Gbd:__ZN12b2MouseJoint23InitVelocityConstraintsERK12b2SolverData
K1c:__ZN8Gradient8TransferI9JSONWriteEEvRT_
LUc:__Z51Register_UnityEngine_Sprite_GetTextureRect_Injectedv
_4e:__ZL81TextEditor_t2759855366_CustomAttributesCacheGenerator_TextEditor__ctor_m242049450P21CustomAttributesCache
R7i:_Convert_ToBoolean_m2833621053
jKa:__ZNK12TLSAllocatorI14StackAllocatorE22GetAllocatedMemorySizeEv
vw:__ZN7mecanim6memory16ChainedAllocator8AllocateEjj
e0:__ZN11AudioSource23VirtualRedirectTransferER18StreamedBinaryRead
LNe:__ZL62WebHeaderCollection_t1942268960_CustomAttributesCacheGeneratorP21CustomAttributesCache
yIa:__ZN17RemapPPtrTransfer12PushMetaFlagE17TransferMetaFlags
Mfk:__ZN19Context_t174453113024set_QuickCheckPossible_7Eb
eyk:_EqualityComparer_1_System_Collections_IEqualityComparer_GetHashCode_m2138064395_gshared
t1:__ZNK7WeakPtrI20SoundChannelInstanceE10SharedData9GetRawPtrEv
$rb:__ZN12HandlerChain4NameEv
vge:_FloatTween_t1274330004_marshal_pinvoke
gBl:_Array_InternalArray__set_Item_TisMonoWin32Resource_t1904229483_m4042549565_gshared
$Ti:__ZN20WebProxy_t201676054227set_useDefaultCredentials_4Eb
oLj:_Int16_System_IConvertible_ToType_m3672347013_AdjustorThunk
LHb:__Z29Transfer_Blittable_ArrayFieldI14SafeBinaryReadN4math12int3_storageEEvRT_R9ArrayInfoRK23StaticTransferFieldInfo
oUj:_SecurityException_ToString_m3228070608
LLj:_Int16_ToString_m2013897809
AXk:_Type_GetType_m1766533001
sql:__Z60RuntimeInvoker_Int32_t2950945753_ResourceCacheItem_t51292791PFvvEPK10MethodInfoPvPS4_
rGh:__ZN31InternalEnumerator_1_t4544632379set_idx_1Ei
Emm:__ZN28SslHandshakeHash_t21075817729set_md5_4EP25HashAlgorithm_t1432317219
rUj:_String_Substring_m2848979100
I8n:__ZN6il2cpp5utils10StringViewIDsEC2ILj2EEERAT__KDs
ZNd:__Z44Register_UnityEngine_CanvasRenderer_get_cullv
Pen:__ZN15dense_hashtableINSt3__24pairIK10KeyWrapperIPK22Il2CppGenericParameterEP11Il2CppClassEES6_N6il2cpp5utils11PointerHashIS4_EEN14dense_hash_mapIS6_S9_SE_NS6_14EqualsComparerINS0_8equal_toIS5_EEEENS0_9allocatorISA_EEE9SelectKeyESJ_SL_ED2Ev
UGl:_ScriptableObject_CreateInstance_TisRuntimeObject_m1552711675_gshared
hUj:_SecurityException_get_PermissionType_m2237538728
nqc:__Z29StdTemplateConversionFunctionIbbEbPvR14SafeBinaryRead
bao:__ZNK15dense_hashtableINSt3__24pairIK10KeyWrapperIPK19Il2CppGenericMethodEP10MethodInfoEES6_N6il2cpp8metadata23Il2CppGenericMethodHashEN14dense_hash_mapIS6_S9_SD_NS6_14EqualsComparerINSC_26Il2CppGenericMethodCompareEEENS0_9allocatorISA_EEE9SelectKeyESH_SJ_E12test_deletedEj
gEb:__Z44InitializeTransferFunctionScriptingTraitsForI17RemapPPtrTransferEvR31TransferFunctionScriptingTraits
ftj:__ZN27NumberFormatInfo_t43587713829set_percentNegativePattern_25Ei
h7g:__ZN22ScrollRect_t413785581416set_m_Vertical_6Eb
kUj:__ZNK28SecurityException_t97554447315get__granted_13Ev
Mzc:__ZNSt3__26vectorI16MessageForwarder13stl_allocatorIS1_L18MemLabelIdentifier7ELi8EEE6resizeEj
n_i:_X509Chain_SelectBestFromCollection_m1068759221
M3g:__ZN22RectMask2D_t347488943718set_m_ForceClip_10Eb
vSm:_SymmetricTransform_TransformBlock_m851059707
WHn:__ZN6il2cpp2vm10Reflection27GetCustomAttributesCacheForEP11Il2CppClass
Xte:__ZL68IntPtr_t_CustomAttributesCacheGenerator_IntPtr_ToPointer_m4157623054P21CustomAttributesCache
zIg:__ZNK34MethodCall_t861078140_StaticFields30get_U3CU3Ef__switchU24map1F_11Ev
f4h:_Enumerator_Dispose_m4166166038_gshared
zib:__Z11StringToKeyRKN4core12basic_stringIcNS_20StringStorageDefaultIcEEEE
hGm:_Regex_System_Runtime_Serialization_ISerializable_GetObjectData_m4061390789
DSl:_Enumerator_System_Collections_IEnumerator_Reset_m2261065994_AdjustorThunk
_8g:_ScrollRect_get_verticalNormalizedPosition_m3693218937
tmb:__ZN18LoadSceneOperation21MustCompleteNextFrameEv
jeh:_Slider_UpdateDrag_m1102107039
Vwf:_MonoMethodInfo_get_method_info_m88651774
b4:__ZNK12AudioManager16GetAudioListenerEv
F4f:_Color_Equals_m4060997379_AdjustorThunk
Kpk:_Dictionary_2_System_Collections_Generic_ICollectionU3CSystem_Collections_Generic_KeyValuePairU3CTKeyU2CTValueU3EU3E_CopyTo_m331407443_gshared
_7n:__ZN6il2cpp2osL23CleanupThreadIfCanceledEPv
tEn:__ZNK14dense_hash_mapI10KeyWrapperINSt3__24pairIPK11Il2CppImageP11Il2CppClassEEEj17ReflectionMapHashIS8_ENS9_14EqualsComparerINS1_8equal_toIS8_EEEENS1_9allocatorINS2_IKS9_jEEEEE4sizeEv
gVf:_RuntimeTypeHandle__ctor_m3315980708_AdjustorThunk
W0i:__ZNK15Key_t272552300113get_options_1Ev
RGe:__ZL69IIdentityPermissionFactory_t3268650966_CustomAttributesCacheGeneratorP21CustomAttributesCache
J4m:_Canvas_set_overrideSorting_m4088794420
Okc:__ZNSt3__26vectorI11CameraStackNS_9allocatorIS1_EEE8__appendEj
Nuk:_DefaultComparer_Equals_m2585095694_gshared
sCa:__ZN9Scripting11UnityEngine13Serialization34FormerlySerializedAsAttributeProxy9InitProxyEv
z6f:_Logger_set_filterLogType_m3622751173
uNf:__ZN25GenericVirtActionInvoker1I28StreamingContext_t3711869237E6InvokeEPK10MethodInfoP12Il2CppObjectS0_
X5k:__Z172RuntimeInvoker_Void_t1185182177_RuntimeObject_CodePointIndexerU26_t4059079874_ByteU2AU26_t57153304_ByteU2AU26_t57153304_CodePointIndexerU26_t4059079874_ByteU2AU26_t57153304PFvvEPK10MethodInfoPvPS4_
nA:__ZN7mecanim9animation12GetHumanPoseERKNS0_18ClipMuscleConstantEPKNS0_10ValueDeltaERNS_5human9HumanPoseE
eC:__ZN22AnimationMixerPlayable17ProcessRootMotionEP35AnimationPlayableEvaluationConstantP32AnimationPlayableEvaluationInputP33AnimationPlayableEvaluationOutput
dsk:_Dictionary_2__ctor_m518943619_gshared
vPd:__ZL55__ManagedRegistrationHelperFunction_RemoteSettingsProxyPv
xna:__Z13GetFileSystemv
yYm:_AudioSourceExtension_ExtensionUpdate_m2790353999
Upa:__ZN13RuntimeStaticI15GUIEventManagerLb0EE16StaticInitializeEPv
yfg:_MonoBehaviour_IsObjectMonoBehaviour_m2134950949
lYg:_InputField_MoveDown_m4006004038
UMg:__ZNK29MonoMethodMessage_t280763694422get_methodSignature_10Ev
Xsg:_Transform_RotateAroundInternal_m1612579057
Z0k:_Version_CompareTo_m3146217210
ucd:__ZN24RigidbodyMovementState2D21ResetAngularMoveStateEv
$eb:__ZThn32_N14SpriteRenderer15AddAsRenderNodeER15RenderNodeQueueRK20DeprecatedSourceData
P9j:_Array_InternalArray__ICollection_CopyTo_TisKeyValuePair_2_t71524366_m1056941380_gshared
G8m:_Vector3_Equals_m906392898_AdjustorThunk
YWk:_Type_get_IsClass_m589177581
SPe:__ZL62NativeTypeAttribute_t2250406315_CustomAttributesCacheGeneratorP21CustomAttributesCache
Zie:__ZNK20Dropdown_t227439122518get_m_ItemImage_22Ev
nEi:__Z25Il2CppCodeGenWriteBarrierI29StrongNameKeyPair_t3411219591EvPPT_S2_
tDb:__ZN19ShaderPropertySheet9SetMatrixEN9ShaderLab16FastPropertyNameERK10Matrix4x4fNS_8SetFlagsE
tei:__ZNK25EncryptedData_t357754873326get__encryptionAlgorithm_2Ev
B7a:__Z29GetTextureSizeAllowedMultiple13TextureFormat
Qsn:__ZN6il2cpp2os6Atomic22CompareExchangePointerI21CustomAttributesCacheEEPT_PVS5_S5_S5_
Cij:_Decimal_Subtract_m835601464
q6b:__ZZ23InitPlayerLoopCallbacksvEN52InitializationAsyncUploadTimeSlicedUpdateRegistrator7ForwardEv
azc:__Z46CleanupSpriteRendererAnimationBindingInterfacev
nfl:__Z73RuntimeInvoker_Boolean_t97287965_RuntimeObject_IPv6AddressU26_t3285609463PFvvEPK10MethodInfoPvPS4_
Pag:__ZNK21SpriteBone_t30332009616get_m_Position_1Ev
L$i:_X509ExtensionCollection_get_IsSynchronized_m2607599544
cVk:_TimeSpan__ctor_m3689759052_AdjustorThunk
Emo:__ZNK6il2cpp8metadata19Il2CppSignatureHashclERKNS_5utils13dynamic_arrayIPK10Il2CppTypeLj4EEE
fNn:_il2cpp_array_element_size
Axi:_MissingMemberException__ctor_m2571045846
Ese:__ZL62ComVisibleAttribute_t1362837655_CustomAttributesCacheGeneratorP21CustomAttributesCache
JKl:_List_1_System_Collections_IEnumerable_GetEnumerator_m1824431956_gshared
dLa:__ZNSt3__26__treeINS_12__value_typeIN4core12basic_stringIcNS2_20StringStorageDefaultIcEEEEjEENS_19__map_value_compareIS6_S7_NS_4lessIS6_EELb1EEE13stl_allocatorIS7_L18MemLabelIdentifier7ELi16EEE25__emplace_unique_key_argsIS6_JNS_4pairIS6_jEEEEENSH_INS_15__tree_iteratorIS7_PNS_11__tree_nodeIS7_PvEEiEEbEERKT_DpOT0_
ej:_glCheckFramebufferStatus
bio:__ZN6il2cpp2os11EventHandle4WaitEv
aCh:_U3CGetEnumeratorU3Ec__Iterator0_System_Collections_Generic_IEnumeratorU3CTU3E_get_Current_m9057020_gshared
G_j:__ZN19Decoder_t220418272521set_fallback_buffer_1EP33DecoderFallbackBuffer_t2402303981
Fja:__Z43scripting_class_get_method_from_name_filter17ScriptingClassPtrPKciN24ScriptingMethodFiltering18MethodSearchFilterEPK16ScriptingTypePtr
xba:__ZN19CloudServiceHandler20StartEventDispatcherERKN11UnityEngine15CloudWebService18CloudServiceConfigERNS1_23WebRequestRestHeaderMapE
XS:__ZN7mecanim9animation18ControllerConstant8TransferI19StreamedBinaryWriteEEvRT_
iBn:__ZN24dense_hashtable_iteratorINSt3__24pairIK10KeyWrapperINS1_IPK9FieldInfoP11Il2CppClassEEEjEES9_17ReflectionMapHashIS8_EN14dense_hash_mapIS9_jSD_NS9_14EqualsComparerINS0_8equal_toIS8_EEEENS0_9allocatorISB_EEE9SelectKeyESI_SK_EC2EPK15dense_hashtableISB_S9_SD_SM_SI_SK_EPSB_SS_b
toe:_GraphicRaycaster__ctor_m646559428
Vfi:_CipherSuite_get_CipherAlgorithmType_m137858741
Owm:__ZNK20X509Chain_t86378360013get__status_4Ev
Nbd:__ZNK15b2DistanceJoint17GetReactionTorqueEf
xyh:_BitArrayEnumerator_get_Current_m4220391712
MDi:__Z37il2cpp_codegen_get_executing_assemblyPK10MethodInfo
pyo:__ZN10__cxxabiv112_GLOBAL__N_110construct_Ev
PTc:__Z104Register_UnityEngine_Experimental_Rendering_GraphicsFormatUtility_GetGraphicsFormat_Native_TextureFormatv
ONk:__ZNK15StringBuilder_t18get__maxCapacity_4Ev
ila:__ZN4core8hash_setINS_4pairIKi17ThreadedAwakeDataLb0EEENS_9hash_pairINS_4hashIiEES2_S3_EENS_10equal_pairINSt3__28equal_toIiEES2_S3_EEE4growEi
til:__Z48RuntimeInvoker_OperatingSystemFamily_t1868066375PFvvEPK10MethodInfoPvPS4_
Kqb:__ZN9Transform23VirtualRedirectTransferER17RemapPPtrTransfer
FTm:__ZNK24AesTransform_t295712361118get_expandedKey_12Ev
wSi:_IPAddress_get_ScopeId_m4237202723
Okg:_Quaternion_Equals_m2038868948_AdjustorThunk
qjh:_X509Certificate_GetUnsignedBigInteger_m1025066663
hFm:_ExpressionCollection_get_Item_m3510736379
Gaf:__ZL62FontData_t746620069_CustomAttributesCacheGenerator_m_AlignmentP21CustomAttributesCache
z8d:_StandaloneInputModule_get_inputActionsPerSecond_m3946624274
RPk:_UTF8Encoding_InternalGetCharCount_m82458470
Kug:_Vector2__cctor_m2108982652
P2d:__ZNK38ExecuteEvents_t3484638744_StaticFields19get_s_DropHandler_9Ev
khg:_U3CBlockUntilRecvMsgU3Ec__AnonStorey2_U3CU3Em__0_m2225790220
_3d:__ZN38ExecuteEvents_t3484638744_StaticFields22set_s_CancelHandler_16EP27EventFunction_1_t2658898854
$Sh:_InternalEnumerator_1_MoveNext_m2734554195_AdjustorThunk
FXn:__ZN14dense_hash_mapI10KeyWrapperIP14Il2CppIUnknownEjN6il2cpp5utils11PointerHashIS1_EENS3_14EqualsComparerINSt3__28equal_toIS2_EEEENS9_9allocatorINS9_4pairIKS3_jEEEEE15set_deleted_keyERSF_
uPb:__ZL22Transfer_ManagedObjectI18StreamedBinaryReadLb0EEvRK29SerializationCommandArgumentsR31RuntimeSerializationCommandInfo
_ni:__ZN27SslClientStream_t391462466126set_ClientCertSelection_17EP40CertificateSelectionCallback_t3743405224
lPn:__ZN6il2cpp2gc9AllocatorIP12Il2CppThreadE10deallocateEPvj
Jfi:__ZN23CipherSuite_t341474457518set_keyBlockSize_9Ei
qIn:__ZN13Il2CppHashMapIPK14Il2CppAssemblyPK22Il2CppMonoAssemblyNameN6il2cpp5utils11PointerHashIS1_EENSt3__28equal_toIS2_EENSA_9allocatorINSA_4pairIK10KeyWrapperIS2_ES5_EEEEEC2EjRKS9_RKSC_
BDg:_RenewalDelegate_BeginInvoke_m1180839451
boh:_DelegatePInvokeWrapper_AppDomainInitializer_t682969308
_Go:b100
q$e:__ZL141SupportedRenderingFeatures_t353898663_CustomAttributesCacheGenerator_SupportedRenderingFeatures_IsMixedLightingModeSupportedByRef_m2282093837P21CustomAttributesCache
fJ:__ZN14AnimationEvent8TransferI14SafeBinaryReadEEvRT_
Bma:__ZN8Remapper6RemoveEi
qim:_UnityEvent_1__ctor_m3777630589_gshared
Bvb:__ZN10MemoryFile4ReadEyPvPy
E0j:_Encoding_GetBytes_m3148649984
ZPc:__ZN9Scripting27CreateArgumentNullExceptionEPKc
Mvd:__ZL36CleanupTextRenderingScriptingClassesv
Gvj:_DateTimeFormatInfo_get_ShortDatePattern_m2502330401
glc:__ZN15ReflectionProbe17UseRendererResultEP13ProbeRenderer
R2n:__ZNK24dense_hashtable_iteratorINSt3__24pairIK10KeyWrapperIP12Il2CppObjectEN6il2cpp2gc9CachedCCWEEES5_NS7_5utils11PointerHashIS3_EEN14dense_hash_mapIS5_S9_SD_NS5_14EqualsComparerINS0_8equal_toIS4_EEEENS0_9allocatorISA_EEE9SelectKeyESI_SK_EptEv
tVc:__Z34Mesh_CUSTOM_SetArrayForChannelImplP12Il2CppObject30InternalScriptingShaderChannel34InternalScriptingVertexChannelTypeiP11Il2CppArrayi
P_k:_UInt64_System_IConvertible_ToDecimal_m806594027_AdjustorThunk
GUj:__ZNK36RuntimeDeclSecurityEntry_t314446915610get_size_1Ev
ejm:_UnityEvent_1_GetDelegate_m274387680_gshared
Oen:__ZN14dense_hash_mapI10KeyWrapperIPK22Il2CppGenericParameterEP11Il2CppClassN6il2cpp5utils11PointerHashIS2_EENS4_14EqualsComparerINSt3__28equal_toIS3_EEEENSC_9allocatorINSC_4pairIKS4_S6_EEEEED2Ev
sHl:_List_1__ctor_m3395838871_gshared
v2l:_Collection_1_IsFixedSize_m3698021882_gshared
Ogh:__ZNK22StrongName_t409384937720get_tokenAlgorithm_3Ev
Puk:_DefaultComparer_GetHashCode_m2651362016_gshared
qKi:__ZNK24FieldBuilder_t262704999310get_type_1Ev
Nci:__ZN25RSAParameters_t172840661314set_InverseQ_5EP22ByteU5BU5D_t4116647657
SBl:_Array_Resize_TisCustomAttributeNamedArgument_t287865710_m885566878_gshared
Coa:__ZN17TransformInternal19FreeTransformThreadER18TransformHierarchyjj
idl:__Z85RuntimeInvoker_RuntimeObject_RuntimeObject_SByte_t1669577662_ExceptionU26_t3600731591PFvvEPK10MethodInfoPvPS4_
ztk:_DefaultComparer__ctor_m2556554241_gshared
wu:__ZN11UnityEngine9Animation28GenericAnimationBindingCache25RegisterIAnimationBindingEPKN5Unity4TypeEiP17IAnimationBinding
dyg:_FormatterData__ctor_m3990517908
GCj:_DirectoryInfo__ctor_m481305441
cBo:dynCall_viiffiii
lCa:__ZN9Scripting11UnityEngine11SpriteProxy12CleanupProxyEv
M$i:_X509ExtensionCollection_get_SyncRoot_m2667861032
ign:__ZN6il2cpp2vm5Class15GetElementClassEP11Il2CppClass
wha:__ZN10MemoryPoolC2E10MemLabelIdbPKciii
Zno:__Z25Il2CppCodeGenWriteBarrierI22Rigidbody2D_t939494601EvPPT_S2_
o_l:_Collection_1_SetItem_m941095285_gshared
Twk:__ZNK42EqualityComparer_1_t892922493_StaticFields14get__default_0Ev
FTd:__ZN14UnityAnalytics25UnregisterGlobalCallbacksEv
zjc:__Z40ProcessCameraIndexListIsNodeVisibleInOutRK22SceneCullingParametersPK9SceneNodePK4AABBR9IndexList
XPm:_GUIScrollGroup_SetHorizontal_m291416666
qCa:__ZN9Scripting11UnityEngine19SerializeFieldProxy9InitProxyEv
FLd:__ZN2UI6Canvas13UpdateBatchesEb
RVi:_X509BasicConstraintsExtension_Decode_m120598446
sF:__ZNK23AnimationPlayableOutput11DerivesFromE17ScriptingClassPtr
ITi:__ZNK44WebHeaderCollection_t1942268960_StaticFields20get_allowed_chars_16Ev
Wjj:_Delegate_Remove_m334097152
pil:__Z49RuntimeInvoker_Boolean_t97287965_Rect_t2360479859PFvvEPK10MethodInfoPvPS4_
hOf:_ObjectReader_ReadObjectGraph_m340866276
Pcl:__Z51RuntimeInvoker_UInt32_t2560061978_Int16_t2552820387PFvvEPK10MethodInfoPvPS4_
nYb:__ZNK13GfxDeviceGLES12GetWireframeEv
JSm:_DelegatePInvokeWrapper_Action_t1264377477
ppo:__ZNK17Enemy_t176572958915get_animator_19Ev
Jga:__ZN24ProfilerCallbacksHandlerC2E10MemLabelId
Vkh:__ZNK25X509Extension_t317339365218get_extnCritical_1Ev
s1i:__ZNK25GroupCollection_t697704849get_gap_1Ev
n3e:__ZL64EventType_t3528516131_CustomAttributesCacheGenerator_dragUpdatedP21CustomAttributesCache
Hgg:__Z25Il2CppCodeGenWriteBarrierI24MessageEvent_t1491597365EvPPT_S2_
dci:_PKCS1_Verify_v15_m4192025173
Iyb:__ZN9GfxDevice18AllocRenderSurfaceEb
Hth:_Char__cctor_m2787437263
vGc:__ZN10TagManager32GetSortingLayerUniqueIDFromValueEi
Nae:_AspectRatioFitter_get_rectTransform_m2996235303
qif:__ZNK25MethodBuilder_t280731675316get_parameters_2Ev
mLa:__ZN10TagManager8TransferI19StreamedBinaryWriteEEvRT_
txj:_NumberFormatInfo_get_PercentPositivePattern_m1800841633
ooe:_Graphic_UnregisterDirtyMaterialCallback_m2707090617
ghg:__ZN28MessageEventArgs_t117057578410set_data_1EP22ByteU5BU5D_t4116647657
PYh:_Comparer_1_System_Collections_IComparer_Compare_m1313384821_gshared
Oxn:__ZN6il2cpp6icalls8mscorlib6SystemL16CheckMemberMatchI12PropertyInfoNS_5utils10functional6FilterINSt3__212basic_stringIcNS8_11char_traitsIcEENS8_9allocatorIcEEEENS5_13VmStringUtils23CaseInsensitiveComparerEEEEEbPKT_PK11Il2CppClassSN_iRKT0_
h1g:_LayoutRebuilder_GetHashCode_m1943075341
zLi:_GenericTypeParameterBuilder_MakeGenericType_m3048165991
pHo:_glUniform1uiv__wrapper
Bdd:__ZNK14b2PolygonShape5CloneEP16b2BlockAllocator
Uxj:__ZNK22RegionInfo_t109027022617get_englishName_6Ev
Cma:__ZN17PersistentManager26GetStreamNameSpaceInternalEi
DYg:__ZN22InputField_t376291743128set_m_CachedInputRenderer_45EP26CanvasRenderer_t2598313366
b1:__ZN4FMOD6System11createSoundEPKcjP22FMOD_CREATESOUNDEXINFOPPNS_5SoundE
zn:FUNCTION_TABLE_iiifiiii
wTh:_InternalEnumerator_1_System_Collections_IEnumerator_Reset_m1451164462_AdjustorThunk
xrd:__ZN13SpeedTreeWind20AdvanceWithoutUpdateEd
s2f:__ZN46AttributeHelperEngine_t2735742303_StaticFields28set__requireComponentArray_2EP34RequireComponentU5BU5D_t2245623724
wum:__ZNK37X509CertificateEnumerator_t351593469816get_enumerator_0Ev
Gfj:_DateTime_System_IConvertible_ToDecimal_m1044850612
jNk:_List_1_IndexOf_m2206067159_gshared
qVn:__ZN6il2cpp2vm9Exception11FromNameMsgEPK11Il2CppImagePKcS6_RKNS_5utils10StringViewIDsEEi
eGh:_InternalEnumerator_1_System_Collections_IEnumerator_Reset_m1318888374_AdjustorThunk
Dia:__ZN9ShaderLab19CommonPropertyNames13StaticCleanupEPv
rwn:__ZN6il2cpp5utils10functional6FilterINSt3__212basic_stringIcNS3_11char_traitsIcEENS3_9allocatorIcEEEENS0_13VmStringUtils23CaseInsensitiveComparerEED2Ev
Awf:_Module_IsResource_m553227372
Rla:__Z31scripting_method_get_returntype18ScriptingMethodPtr
Ppi:__ZNK36ReceiveRecordAsyncResult_t368090765722get__resultingBuffer_5Ev
jBg:__Z25Il2CppCodeGenWriteBarrierI30LogicalCallContext_t3342013719EvPPT_S2_
Jbb:__ZN15SerializeTraitsI12LightmapDataE8TransferI24GenerateTypeTreeTransferEEvRS0_RT_
uRj:_SecurityElement_AddAttribute_m311510562
gEi:__ZN23AssemblyName_t27093193814set_version_13EP19Version_t3456873960
BIo:_glStencilOpSeparate__wrapper
nHl:__ZNK38ExecuteEvents_t3484638744_StaticFields30get_s_InternalTransformList_18Ev
xLc:__ZN4Mesh5SetUvEiPKfjj
L8a:__ZN7Texture13SetAnisoLimitENS_20AnisotropicFilteringE
eLa:__ZNSt3__26__treeINS_12__value_typeIjN4core12basic_stringIcNS2_20StringStorageDefaultIcEEEEEENS_19__map_value_compareIjS7_NS_4lessIjEELb1EEE13stl_allocatorIS7_L18MemLabelIdentifier7ELi16EEE25__emplace_unique_key_argsIjJNS_4pairIjS6_EEEEENSH_INS_15__tree_iteratorIS7_PNS_11__tree_nodeIS7_PvEEiEEbEERKT_DpOT0_
ekg:_PropertyName_Equals_m3623975820
Lz:__ZN21AnimationClipPlayable22PrepareAnimationEventsEfR13dynamic_arrayI22AnimationClipEventInfoLj0EE
hrh:_Attribute_IsDefined_m4069052474
Af:_emscripten_glCompressedTexSubImage2D
j2b:__ZN13GfxDeviceGLES22MemoryBarrierImmediateEyN2gl17MemoryBarrierTypeE
Y6m:__ZN38AnimatorControllerPlayable_t101576784125get_address_of_m_Handle_0Ev
WZg:_U3CCaretBlinkU3Ec__Iterator0_Dispose_m860898205
wxa:__ZN6prcoreL26RemapGenericFloatToIntegerI18TexFormatARGBFloat17TexFormatARGB8888EEvPKNS_9InnerInfoE
chd:__ZN14qsort_internal5QSortIPN35b2SynchronizeContinuousFixturesTask14b2DeferredMoveEiPFbRKS2_S5_EEEvT_S8_T0_T1_
QQl:_List_1_set_Capacity_m1977188119_gshared
qOc:__Z46GetShaderModelNumericValueFromRequirementsMask18ShaderRequirements
lzd:_cff_ps_has_glyph_names
Wai:__ZNK22MD2Managed_t137710153511get_state_4Ev
Pwe:__ZL86MSCompatUnicodeTable_t1453885583_CustomAttributesCacheGenerator_U3CU3Ef__switchU24map2P21CustomAttributesCache
ftk:_Dictionary_2_Resize_m3287623642_gshared
Rdo:_GC_write
ojl:__Z98RuntimeInvoker_Boolean_t97287965_PlayableOutputHandle_t4208053793_PlayableOutputHandle_t4208053793PFvvEPK10MethodInfoPvPS4_
z0f:_RC2_Create_m2516417038
P0i:__ZNK24FactoryCache_t232711888714get_mru_list_2Ev
Rne:_Graphic_OnPopulateMesh_m767318148
xr:__ZN17ConstraintManagerD2Ev
z$f:_HMACSHA512_set_ProduceLegacyHmacValues_m3961135292
UZm:__ZL24UnresolvedVirtualCall_43P12Il2CppObjectS0_PK10MethodInfo
c7h:_Dictionary_2_Remove_m4193450060_gshared
X4f:__ZNK19Color32_t26005012927get_g_2Ev
RAi:_MulticastDelegate_GetObjectData_m3957553424
Pvi:_Int64_TryParse_m3606398488
pBl:_Array_InternalArray__set_Item_TisMark_t3471605523_m1299772331_gshared
V0c:__Z44Register_UnityEngine_GUIStyle_SetDefaultFontv
mPj:__ZNK30SymmetricAlgorithm_t425422308715get_ModeValue_7Ev
UH:__Z19AddCurveToDenseClipI8Vector3fEvRN7mecanim9animation9DenseClipEiRK17AnimationCurveTplIT_E
oN:__ZN9BlobWrite8TransferI22OffsetPtrArrayTransferIKN4math7_float3EEEEvRT_PKc17TransferMetaFlags
cJa:__ZN5Unity9Component23VirtualRedirectTransferER18StreamedBinaryRead
THj:__ZN24StreamReader_t400993589914set_foundCR_13Eb
mId:_unitytls_key_parse_der
aEi:__ZN49AssemblyInformationalVersionAttribute_t303776499110set_name_0EP8String_t
BHa:__ZN9Scripting5Unity11Collections8LowLevel6Unsafe46NativeContainerIsAtomicWriteOnlyAttributeProxy12CleanupProxyEv
uum:_X509Certificate_get_DSA_m565099499
LSi:__Z25Il2CppCodeGenWriteBarrierI23IPv6Address_t2709566769EvPPT_S2_
bFg:__ZN23CADArgHolder_t58304931411set_index_0Ei
aOk:_StringBuilder_Remove_m940064945
bjb:__ZN14SafeBinaryRead21TransferSTLStyleArrayI13dynamic_arrayI16SplashScreenLogoLj0EEEEvRT_17TransferMetaFlags
ZBb:__ZN13dynamic_arrayIN16GeometryJobTasks15GeometryJobTaskELj0EE18resize_initializedEjRKS1_12ResizePolicy
bBf:__Z25Il2CppCodeGenWriteBarrierI15RSA_t2385438082EvPPT_S2_
tYf:_DESCryptoServiceProvider_GenerateIV_m683687014
qBj:_BinaryWriter__ctor_m2439641268
xGa:__ZN9Scripting11UnityEngine14BoundsIntProxy12CleanupProxyEv
bDa:__ZN9Scripting11UnityEngine15RectOffsetProxy12CleanupProxyEv
GZd:__ZN9Scripting11UnityEngine12Experimental2XR18TrackingStateProxy12CleanupProxyEv
o9a:__ZL21SetAnisoLimitEnumImplN7Texture20AnisotropicFilteringEb
yMb:__Z18Transfer_BlittableI19StreamedBinaryWriteLb1EtEvRK29SerializationCommandArgumentsR31RuntimeSerializationCommandInfo
yXk:_Type_GetTypeHandle_m1526957577
Wof:__ZN31OpCodes_t126150456_StaticFields15set_Ldind_R4_77E17OpCode_t123070264
f4m:__ZNK25TextGenerator_t321186386619get_m_CachedVerts_8Ev
ofh:_Text_get_fontSize_m1677872538
u9i:__ZNK33DateTime_t3738529785_StaticFields14get_MaxValue_2Ev
lSh:_InternalEnumerator_1_System_Collections_IEnumerator_Reset_m3217592429_gshared
PLk:_List_1_System_Collections_IList_get_Item_m995551621_gshared
mFg:__ZN21CADObjRef_t321912773012set_objref_0EP18ObjRef_t2141158884
bDk:__ZNK21HashSet_1_t164505563816get_threshold_10Ev
Jwm:__ZN20X509Chain_t86378360011set_certs_1EP37X509CertificateCollection_t1542168550
Q7k:__Z49RuntimeInvoker_Void_t1185182177_Int16_t2552820387PFvvEPK10MethodInfoPvPS4_
vQm:__ZN19GUISkin_t124437228215set_m_Styles_28EP24Dictionary_2_t3742157810
lFc:__Z29Input_CUSTOM_GetMouseButtonUpi
GLj:_Int16_Parse_m138525169
jNj:__ZN23SHA384Managed_t7415857516set_byteCount2_7Ey
dRd:__ZN11UnityEngine9Analytics18ConnectSessionInfo12ToJsonStringERN4core12basic_stringIcNS2_20StringStorageDefaultIcEEEE
Sxn:__ZN6il2cpp6icalls8mscorlib6System8MonoType16InternalGetEventEP20Il2CppReflectionTypeP12Il2CppStringi
LUj:__ZNK40SecurityManager_t3383402582_StaticFields17get__lockObject_0Ev
kLm:_UriScheme_t722425697_marshal_pinvoke_back
cBd:_UNITY_tt_face_load_maxp
AFc:__Z46Input_CUSTOM_INTERNAL_set_compositionCursorPosRK13Vector2fIcall
nz:__ZN7mecanim5human12FullBodyMaskEv
RXm:__ZNK46AudioExtensionManager_t3220897493_StaticFields21get_m_NextStopIndex_4Ev
GIk:__ZN22Enumerator_t312384892810set_next_1Ei
pco:__ZN6il2cpp6icalls8mscorlib6System9Threading10WaitHandle16WaitAny_internalEP11Il2CppArrayib
vbc:__ZN13BatchRenderer15ApplyShaderPassER17ShaderPassContextPK18SharedMaterialDataP6ShaderPN9ShaderLab4PassEi13BatchingFlagsbbPKNS7_10GrabPassesEPK22DeviceRenderStateBlock
roj:__ZN22FileStream_t429218306521set_append_startpos_5Ex
Hfb:__ZN19ShaderPropertySheet11ComputeHashEv
Zmn:__ZN30dense_hashtable_const_iteratorI10KeyWrapperIPK19Il2CppGenericMethodES4_N6il2cpp8metadata23Il2CppGenericMethodHashEN14dense_hash_setIS4_S7_NS4_14EqualsComparerINS6_26Il2CppGenericMethodCompareEEENSt3__29allocatorIS4_EEE8IdentityESB_SE_EppEv
Bie:_Resources_t1597885468_marshal_pinvoke_cleanup
fed:__ZN12b2EPCollider24ComputePolygonSeparationEv
w9:__ZN11UnityEngine15CloudWebService20WebRequestRestClient6IsDoneEv
wEm:_Group__ctor_m2980794822
VW:__ZN9Scripting11UnityEngine5Audio24AudioPlayableOutputProxy9InitProxyEv
ofm:_CachedInvokableCall_1_Invoke_m502907382_gshared
JOe:__ZL79Enumerable_t538148348_CustomAttributesCacheGenerator_Enumerable_Any_m1084009618P21CustomAttributesCache
Ol:_llvm_fabs_f32
OAg:__ZNK29LocalDataStoreSlot_t74084196810get_slot_0Ev
$8:__ZN11UnityEngine15CloudWebService16SessionContainer16GetJsonDataBlockEjRKN4core12basic_stringIcNS2_20StringStorageDefaultIcEEEERS6_PjSA_
Zqe:__ZN17Image_t267026965130get_address_of_m_FillAmount_37Ev
qjk:_ASN1_Decode_m1695284166
$Ca:__ZN9Scripting11UnityEngine14TransformProxy12CleanupProxyEv
ofi:__ZN23GenericVirtFuncInvoker0IP28ValidationResult_t3834298736E6InvokeEPK10MethodInfoP12Il2CppObject
uZl:_Collection_1_RemoveAt_m2240641437_gshared
SJn:__ZN10KeyWrapperIPK10Il2CppTypeEC2ENS3_11KeyTypeEnumE
Fmj:_Enum_ToString_m3248653065
uyj:__ZNK19SortKey_t39553367329get_key_2Ev
byg:__ZNK46RemotingConfiguration_t4113740665_StaticFields30get_serverProviderTemplates_12Ev
HAc:__Z27RegisterAllowNameConversionR20AllowNameConversionsPKcS2_S2_
Xka:__ZN14SafeBinaryReadD2Ev
m4j:_SetPropertyUtility_SetStruct_TisFillMethod_t1167457570_m4164776730_gshared
SPg:__ZNK18ObjRef_t21411588849get_uri_1Ev
BHk:__ZN22Enumerator_t34368197257set_l_0EP18List_1_t1547575848
PJk:_Enumerator_MoveNext_m3859993671_gshared
jso:_Portal_MainMenu_OnTriggerEnter2D_m2294953872
Csd:__ZN14SafeBinaryRead21TransferSTLStyleArrayI13dynamic_arrayIN20TextRenderingPrivate8FontImpl13CharacterInfoELj0EEEEvRT_17TransferMetaFlags
f9h:_SequentialSearchPrimeGeneratorBase_IsPrimeAcceptable_m1127740833
e0i:_Capture__ctor_m3103117740
Ayb:__ZNK9GfxDevice22GetActiveRenderTargetsERA8_12ObjectHandleI17RenderSurface_TagP17RenderSurfaceBaseERS4_
r7l:_ReadOnlyCollection_1_System_Collections_Generic_ICollectionU3CTU3E_get_IsReadOnly_m3551835259_gshared
r_k:_UInt32_CompareTo_m2218823230
H8c:__ZN5Unity9rapidjson8internal6Grisu2EdPcPiS3_
mvj:_DateTimeFormatInfo_GetEraName_m3151483707
flg:_RangeInt_get_end_m4128831787_AdjustorThunk
Huf:__Z40il2cpp_codegen_method_get_declaring_typeP10MethodInfo
hDk:__ZNK21HashSet_1_t164505563815get_comparer_11Ev
yd:_SDL_PauseAudio
vhl:__Z54RuntimeInvoker_Int32_t2950945753_LayerMask_t3493934918PFvvEPK10MethodInfoPvPS4_
Dhg:_Object_Internal_InstantiateSingle_m4074556765
CNn:_il2cpp_class_from_type
ZUa:__ZN4PPtrI6ShaderE8TransferI19StreamedBinaryWriteEEvRT_
tun:_RemoteSettings_RemoteSettingsUpdated_m1182006011
LUi:__ZNK15Oid_t355212026012get__value_0Ev
Hdn:_NativeHeaderAttribute__ctor_m457462113
eKe:__ZL77Convert_t2465617642_CustomAttributesCacheGenerator_Convert_ToSByte_m516918950P21CustomAttributesCache
iqb:__ZN2UI13RectTransform8TransferI18StreamedBinaryReadEEvRT_
Cia:__ZN9ShaderLab19CommonPropertyNames16StaticInitializeEPv
Bob:__ZN13MemoryManager31DisallowAllocationsOnThisThreadEv
jDn:__ZN14dense_hash_mapI10KeyWrapperINSt3__24pairIPK10MethodInfoP11Il2CppClassEEEj17ReflectionMapHashIS8_ENS9_14EqualsComparerINS1_8equal_toIS8_EEEENS1_9allocatorINS2_IKS9_jEEEEE4findERSH_
fph:_Array_GetLongLength_m561139708
U4e:__ZL101GUIUtility_t1868551600_CustomAttributesCacheGenerator_GUIUtility_t1868551600____guiDepth_PropertyInfoP21CustomAttributesCache
P_n:__ZN6il2cpp2vmL14FindNestedTypeEP11Il2CppClassPKc
Deh:_SpriteState_get_pressedSprite_m3868967445_AdjustorThunk
g0:__ZN11AudioSource23VirtualRedirectTransferER24GenerateTypeTreeTransfer
hLc:__ZN7Texture11SetWrapModeE15TextureWrapMode
NQd:__ZN22BaseUnityConnectClient13ResumeSessionEv
Qab:__ZN14Texture2DArray23VirtualRedirectTransferER14SafeBinaryRead
n7h:__ZN22BigInteger_t290290509010set_data_1EP24UInt32U5BU5D_t2770800703
gec:__ZNK6Camera21CalculateCanDoShadowsEv
Wmj:__ZNK29Enum_t4135868527_StaticFields16get_split_char_0Ev
G1f:_Application_InvokeOnBeforeRender_m2875673833
GUm:_ToggleGroup_set_allowSwitchOff_m4192200290
i7n:__ZN6il2cpp2os6Thread12SetStackSizeEj
T3g:_MaskableGraphic_RecalculateMasking_m183336762
WFl:_Array_InternalArray__get_Item_TisRuntimeObject_m3347010206_gshared
l0j:__ZNK44EncoderReplacementFallbackBuffer_t186318716223get_fallback_assigned_2Ev
Itf:_TypeBuilder_IsSubclassOf_m3458909121
Nqf:__ZN31OpCodes_t126150456_StaticFields15set_Conv_U1_176E17OpCode_t123070264
TAo:dynCall_viffii
XWi:__ZN40X509Certificate2_t714049126_StaticFields17set_commonName_15EP22ByteU5BU5D_t4116647657
kAn:__ZNK10KeyWrapperINSt3__24pairIPK14Il2CppAssemblyP11Il2CppClassEEE8isNormalEv
vkh:_X509Certificate__cctor_m198658613
Ngl:__Z68RuntimeInvoker_Ray_t3785851493_Vector3_t3722313464_Int32_t2950945753PFvvEPK10MethodInfoPvPS4_
FGi:__ZN26AssemblyBuilder_t35988525026set_versioninfo_culture_46EP8String_t
HSd:__ZN11UnityEngine9Analytics13ConnectConfig13SessionConfig8TransferI8JSONReadEEvRT_
pPf:_MemberTypeMetadata__ctor_m2376841411
Byc:__Z18RegisterUnityClassI7TextureEvPKc
GQg:__ZN46RemotingConfiguration_t4113740665_StaticFields30set_clientProviderTemplates_11EP21Hashtable_t1853889766
axa:__ZN6prcoreL27StretchGenericFloatBilinearI15TexFormatRFloatEEvPKNS_9InnerInfoE
mbk:__ZN22TableRange_t333286789216set_IndexStart_3Ei
WJg:_ErrorMessage_get_MethodSignature_m3912515700
LCg:_Identity_get_EnvoySink_m1643114474
KNe:__ZL139ServicePointManager_t170559685_CustomAttributesCacheGenerator_ServicePointManager_t170559685____CheckCertificateRevocationList_PropertyInfoP21CustomAttributesCache
pqg:__ZN41FormerlySerializedAsAttribute_t285908311415set_m_oldName_0EP8String_t
EXn:__ZN14dense_hash_mapI10KeyWrapperIP14Il2CppIUnknownEjN6il2cpp5utils11PointerHashIS1_EENS3_14EqualsComparerINSt3__28equal_toIS2_EEEENS9_9allocatorINS9_4pairIKS3_jEEEEE13set_empty_keyERSF_
Mmj:_Enum_ToObject_m1628250250
XAm:__ZNK16Mark_t347160552311get_Start_0Ev
hC:__Z24ProcessAnimationMixBeginP35AnimationPlayableEvaluationConstantP32AnimationPlayableEvaluationInputP33AnimationPlayableEvaluationOutput
h4d:__Z25Il2CppCodeGenWriteBarrierI26EventFunction_1_t955952873EvPPT_S2_
fFf:__ZN43CompilationRelaxationsAttribute_t172144211111set_relax_0Ei
yTe:__ZL136GraphicsFormatUtility_t3491748452_CustomAttributesCacheGenerator_GraphicsFormatUtility_GetGraphicsFormat_Native_TextureFormat_m433736368P21CustomAttributesCache
epf:__ZN31OpCodes_t126150456_StaticFields10set_Add_87E17OpCode_t123070264
$wm:__ZN22X509Stores_t137393623716set__storePath_0EP8String_t
p6a:__Z14PadImageBorderR14ImageReferenceii
iEn:__ZN15dense_hashtableINSt3__24pairIK10KeyWrapperINS1_IPK10MethodInfoP11Il2CppClassEEEjEES9_17ReflectionMapHashIS8_EN14dense_hash_mapIS9_jSD_NS9_14EqualsComparerINS0_8equal_toIS8_EEEENS0_9allocatorISB_EEE9SelectKeyESI_SK_E4findERSA_
hsn:__ZN6il2cpp2vm13MetadataCache28GetFieldDefaultValueForFieldEPK9FieldInfo
A6j:_Array_IndexOf_TisUIVertex_t4057497605_m3336763564_gshared
BXl:__ZN21InterfaceFuncInvoker1I22OrderBlock_t1585977831iE6InvokeEjP11Il2CppClassP12Il2CppObjecti
QC:__ZN27AnimationLayerMixerPlayableD2Ev
Tee:_ColorBlock_Equals_m518833916_AdjustorThunk
cLk:_List_1_GetEnumerator_m2838255531_gshared
afi:__ZN16VirtFuncInvoker2IbP26X509Certificate_t713131622P22Int32U5BU5D_t385246372E6InvokeEjP12Il2CppObjectS1_S3_
JHh:_InternalEnumerator_1_System_Collections_IEnumerator_get_Current_m1514266661_AdjustorThunk
cY:__ZN12AudioManager39HandlePendingAudioConfigurationCallbackEv
egi:__ZNK23CipherSuite_t341474457510get_name_2Ev
XNf:__ZN24ObjectReader_t194095739214set__context_1E28StreamingContext_t3711869237
Kym:__ZN25RepeatContext_t121486307611set_start_0Ei
Ug:_emscripten_glIsFramebuffer
fok:_RSAManaged_EncryptValue_m799827583
skc:__ZN12_GLOBAL__N_16qAtan2Eff
jdh:__ZNK18Slider_t390372890218get_m_FillImage_26Ev
D2k:__Z61RuntimeInvoker_UInt32_t2560061978_RuntimeObject_RuntimeObjectPFvvEPK10MethodInfoPvPS4_
ngh:__ZN35StrongName_t4093849377_StaticFields16set_lockObject_4EP12Il2CppObject
FSg:__ZN22InputField_t376291743124set_m_HideMobileInput_27Eb
Nc:_JS_Sound_SetLoopPoints
Zjo:__ZN6il2cpp2vm26MetadataAllocGenericMethodEv
n3j:_Array_InternalArray__ICollection_Remove_TisUInt16_t2177724958_m1766181761_gshared
w4b:__ZN19ConstantBuffersGLES12RecordRenderEv
DIg:__ZN21MethodCall_t86107814022set__methodSignature_4EP22TypeU5BU5D_t3940880105
hjm:_UnityEvent_1__ctor_m3675246889_gshared
TOn:__ZNK22RaycastHit_t105600196613get_m_Point_0Ev
B3c:__ZN9JSONWrite8TransferI10RectOffsetEEvRT_PKc17TransferMetaFlags
EGk:__ZN22Enumerator_t16668526157set_l_0EP18List_1_t4072576034
Z5a:__ZN4crnd12symbol_codec11decode_bitsEj
gpl:__Z59RuntimeInvoker_Boolean_t97287965_KeyValuePair_2_t3842366416PFvvEPK10MethodInfoPvPS4_
fci:_EncryptedPrivateKeyInfo__ctor_m3415744930
Bed:__ZN15b2CircleContact8EvaluateEP10b2ManifoldRK11b2TransformS4_
tUi:_AsnEncodedData__ctor_m3792312694
gWi:_OidEnumerator_Reset_m2503707245
USm:_AesManaged_GenerateIV_m1368817386
XEc:__ZN21FixedBehaviourManagerD0Ev
bsi:__Z37il2cpp_codegen_check_mul_overflow_i64xxxx
oX:__ZN4FMOD6System12createReverbEPPNS_6ReverbE
ebo:__ZN6il2cpp2vm6String21InitializeEmptyStringEP11Il2CppClass
bWc:__Z51Register_UnityEngine_AnimationCurve_Internal_Createv
Nxe:__ZL48Queue_t3637523393_CustomAttributesCacheGeneratorP21CustomAttributesCache
CC:__ZN7mecanim19ValueArrayBlendNodeILb1EEEvRKNS_10ValueArrayERKNS_14ValueArrayMaskERS1_RS4_RNS_16ValueArrayWeightEf
rWf:_CodeAccessPermission_GetHashCode_m880096813
KWm:__ZNK46AudioSpatializerExtensionDefinition_t59789618616get_definition_1Ev
etd:__ZN18StreamedBinaryRead21TransferSTLStyleArrayI13dynamic_arrayIcLj0EEEEvRT_17TransferMetaFlags
PDi:_AssemblyConfigurationAttribute__ctor_m3236176989
U3n:__ZN6il2cpp2osL21IsSpecialZeroSizeFileEP4stat
BBf:_TypeDelegator_GetEvent_m3148520673
KJm:__ZNK34UriParser_t3890150400_StaticFields11get_table_1Ev
xmm:_ObjectPool_1_get_countInactive_m526975942_gshared
LZm:__ZL24UnresolvedVirtualCall_34P12Il2CppObjectPK10MethodInfo
qvg:_RemotingServices_DisposeIdentity_m2605848806
Xva:__ZNK9Transform11GetPositionEv
NEj:_WriteDelegate_EndInvoke_m952736984
jjd:__ZNK29b2ClearContactIslandFlagsTask13GetRangeCountEv
Y7m:__ZNK21HumanBone_t246533951811get_limit_2Ev
qzj:_GuidParser_Reset_m2640004655
dNb:__Z35Transfer_Blittable_FixedBufferFieldI19StreamedBinaryWritedEvRK29SerializationCommandArgumentsR31RuntimeSerializationCommandInfo
tzc:__ZN23SharedMeshRenderingData18UnloadVertexStreamEi
zWn:__ZN6il2cpp2vm8Liveness10StartWorldEPFvvE
qjl:__Z64RuntimeInvoker_Void_t1185182177_PlayableOutputHandle_t4208053793PFvvEPK10MethodInfoPvPS4_
rLd:__ZN31CanvasBatchIntermediateRenderer11AddSubBatchERK16DrawBuffersRangePK19ShaderPropertySheet
GXh:__ZN16VirtFuncInvoker2IiP12Il2CppObjectS1_E6InvokeEjS1_S1_S1_
VBc:__ZN19RenderEventsContextC2Ei
O6:__Z6simd4fRKf
z$e:__ZL67SceneManager_t2787271929_CustomAttributesCacheGenerator_sceneLoadedP21CustomAttributesCache
Bwj:_GregorianCalendar_GetEra_m2369958449
jVf:_RuntimeTypeHandle_GetObjectData_m1599302095_AdjustorThunk
$f:_emscripten_glEnable
RYd:__GLOBAL__sub_I_Runtime_VR_PluginInterface_0_cpp
nKh:_InternalEnumerator_1_System_Collections_IEnumerator_get_Current_m2982675020_gshared
UKa:__ZN10TagManager23VirtualRedirectTransferER14SafeBinaryRead
kcf:__ZL51RawImage_t3182918964_CustomAttributesCacheGeneratorP21CustomAttributesCache
KWj:_String_System_IConvertible_ToType_m3431692856
lFg:_CADObjRef__ctor_m2673939978
zhi:_CipherSuiteCollection_System_Collections_IList_Contains_m1220133031
Z1l:_Collection_1_System_Collections_IList_get_Item_m2931804586_gshared
tPn:__ZN6il2cpp2vm6Thread16RequestInterruptEP12Il2CppThread
MPg:_ObjRef_get_EnvoyInfo_m1782007847
yta:__ZN14PlayableOutput26ClearInvalidSourcePlayableEv
ahc:__Z15InitLightMeshesv
ixf:_MonoCMethod_ToString_m3992577062
POn:_RaycastHit_get_collider_m1464180279
pwe:__ZL76MarshalAsAttribute_t3522571978_CustomAttributesCacheGenerator_MarshalTypeRefP21CustomAttributesCache
rfn:__ZNK15dense_hashtableINSt3__24pairIK10KeyWrapperIPK22Il2CppGenericParameterEP11Il2CppClassEES6_N6il2cpp5utils11PointerHashIS4_EEN14dense_hash_mapIS6_S9_SE_NS6_14EqualsComparerINS0_8equal_toIS5_EEEENS0_9allocatorISA_EEE9SelectKeyESJ_SL_E10test_emptyEj
fEf:__ZN6il2cpp2vm3CCW11GetOrCreateEP12Il2CppObjectRK10Il2CppGuid
sza:__ZL50__ManagedRegistrationHelperFunction_CoroutineProxyPv
Vjg:__ZNK24PropertyName_t37498351898get_id_0Ev
h_j:__ZN16VirtFuncInvoker3IbDsDsiE6InvokeEjP12Il2CppObjectDsDsi
H8l:_ReadOnlyCollection_1_System_Collections_IList_Contains_m2904046095_gshared
N3e:__ZL56GUISkin_t1244372282_CustomAttributesCacheGenerator_m_boxP21CustomAttributesCache
yyj:_SortKey_GetHashCode_m3547067087
wpj:_Exception__ctor_m1406832249
$1g:_LayoutUtility_U3CGetFlexibleHeightU3Em__7_m2991026842
Qwd:_cf2_arrstack_init
eGl:_Array_InternalArray__get_Item_TisResourceCacheItem_t51292791_m1306056717_gshared
pll:__Z157RuntimeInvoker_Void_t1185182177_RuntimeObject_RuntimeObject_RuntimeObject_RuntimeObject_RuntimeObject_RuntimeObject_RuntimeObject_RuntimeObject_RuntimeObjectPFvvEPK10MethodInfoPvPS4_
H0d:_EventSystem_get_pixelDragThreshold_m1103650852
bQe:__ZL60StaticAccessorType_t186341701_CustomAttributesCacheGeneratorP21CustomAttributesCache
Tea:__Z15CleanLogHandler7LogTypePKcz
HBi:_NumberFormatter_NumberToString_m2481532188
tWl:__ZN24Collection_1_t166750607514set_syncRoot_1EP12Il2CppObject
KXk:_Type_GetMethod_m1512604930
v9g:_ScrollRect_InternalGetBounds_m599803667
Wqj:__ZN36CompareInfo_t1092934962_StaticFields25set_useManagedCollation_0Eb
e3:__ZN14AudioBehaviour15ThreadedCleanupEv
ewj:__ZNK30DateTimeFormatInfo_t240585370127get_allShortDatePatterns_32Ev
WRb:__ZN6Camera17RemoveImageFilterERK11ImageFilter
DCb:__ZNSt3__218__insertion_sort_3IR25ValueParameterArraySorterPN20GpuProgramParameters14ValueParameterEEEvT0_S6_T_
ald:__ZN10ClipperLib7Clipper27ProcessEdgesAtTopOfScanbeamEx
yNe:__ZL67EditorBrowsableAttribute_t1475454531_CustomAttributesCacheGeneratorP21CustomAttributesCache
Nzh:_Comparer__cctor_m3311686689
aZm:_SampleFramesHandler__ctor_m3908528909
hae:_UIBehaviour_OnDidApplyAnimationProperties_m2143584361
cKm:_Uri__ctor_m3040793867
m$h:_Enumerator_VerifyState_m1203790900_gshared
pWk:_TimeZone__ctor_m1831364098
Qco:__ZN6il2cpp2vm13ManagedObject7GetIidsEPjPP10Il2CppGuid
CJh:_InternalEnumerator_1_get_Current_m3500427238_AdjustorThunk
wMd:__ZN2UI26InitializeDeviceForOverlayEi
nqf:__ZN31OpCodes_t126150456_StaticFields17set_Ldelem_R8_150E17OpCode_t123070264
bpo:_EndScreen_Update_m144100406
wga:__Z27LogRepeatingStringWithFlagsRKN4core12basic_stringIcNS_20StringStorageDefaultIcEEEE15LogMessageFlagsi
__k:_UInt64_System_IConvertible_ToSingle_m925613075
Smj:_Enum_IsDefined_m1442314461
VSk:_Thread__cctor_m817723615
GWm:_AudioExtensionManager_RegisterBuiltinDefinitions_m2742744104
Rz:__ZN17AnimationPlayable28ComputeNeedsBindingRebuildedEv
U1k:__Z46RuntimeInvoker_SByte_t1669577662_RuntimeObjectPFvvEPK10MethodInfoPvPS4_
Qy:__ZN17AnimationPlayable23RequestAllocateBindingsEv
FZd:__ZN9Scripting11UnityEngine12Experimental2XR18TrackingStateProxy9InitProxyEv
mOd:__Z53RectTransformUtility_CUSTOM_PixelAdjustPoint_InjectedRK8Vector2fP12Il2CppObjectS3_RS_
rvh:__ZNK21ArrayList_t271887474412get__items_2Ev
Adm:_Predicate_1_EndInvoke_m3884403745_gshared
u$j:_DecoderReplacementFallbackBuffer_Fallback_m1261056214
kum:__ZN31PKCS12_t4101533061_StaticFields29set_U3CU3Ef__switchU24map8_15EP24Dictionary_2_t2736202052
kKk:_Enumerator_Dispose_m2367983719_gshared
O9b:__ZNSt3__227__insertion_sort_incompleteIRPFbP10GUIElementS2_EPS2_EEbT0_S7_T_
Lzi:_Binder_get_DefaultBinder_m950908649
fHj:__ZN38SearchPattern_t3793128359_StaticFields18set_InvalidChars_1EP22CharU5BU5D_t3528271667
Dnj:_StreamReader__ctor_m1616861391
tCd:_tt_cmap6_char_index
pQd:__ZN18UnityConnectClient33OnPlayerSessionStateChangedStaticEPS_jyy
bgd:__ZN19ProcessContactsDataD2Ev
zT:__ZN25RuntimeAnimatorController12CleanupClassEv
qxl:_RSA_ToXmlString_m2922661427
q3i:__ZNK21Enumerator_t66135868618get_currentValue_6Ev
gaa:__ZNK11UnityEngine15CloudWebService23WebRequestUploadHandler11GetProgressEv
eIj:__ZN24StreamWriter_t126637890420set_internalStream_3EP18Stream_t1273022909
O$b:__ZN7ApiGLES4LoadE16GfxDeviceLevelGL
x3e:__ZL61GUIContent_t3050628031_CustomAttributesCacheGenerator_m_ImageP21CustomAttributesCache
maj:_Convert_ToDecimal_m2233265097
ZSm:__ZNK24AesTransform_t29571236119get_Nk_13Ev
E0n:__ZN15dense_hashtableI10KeyWrapperIP18Il2CppGenericClassES3_N6il2cpp8metadata22Il2CppGenericClassHashEN14dense_hash_setIS3_S6_NS3_14EqualsComparerINS5_25Il2CppGenericClassCompareEEENSt3__29allocatorIS3_EEE8IdentityESA_SD_E15insert_noresizeERKS3_
BDc:__ZZL31RegisterOtherRendererPropertiesR22GenericPropertyBindingEN30Wrapper_RendererReceiveShadows13GetFloatValueEPv
Rii:__ZN28HandshakeMessage_t369658316817set_contentType_7Eh
I1j:_Array_InternalArray__ICollection_Contains_TisSlot_t384495010_m688761886_gshared
z7a:__ZN17SharedTextureDataC2E10MemLabelIdii13TextureFormatjiibb
OUb:__ZN8Material11SetPassFastEPN9ShaderLab4PassER17ShaderPassContextP6Shaderib
i$l:_Collection_1_IsFixedSize_m3748602684_gshared
Ifj:_DateTime_System_IConvertible_ToDouble_m2116720007
K9h:_BitConverterLE_GetUIntBytes_m795219058
ZFa:__ZN9Scripting11UnityEngine17CullingGroupProxy12CleanupProxyEv
WUk:_WaitHandle_WaitOne_m2577152516
eWf:_SByte_Parse_m2899090751
z9d:__ZN33StandaloneInputModule_t276046910123set_m_LastMoveVector_17E19Vector2_t2156229523
nOb:__Z18Transfer_BlittableI18StreamedBinaryReadLb0EN4math12int3_storageEEvRK29SerializationCommandArgumentsR31RuntimeSerializationCommandInfo
Ara:__Z18GetITerrainManagerv
D7g:__ZNK22ScrollRect_t413785581416get_m_Vertical_6Ev
yui:_NumberFormatter_AppendExponent_m1258666517
bDh:_ArrayReadOnlyList_1_GetEnumerator_m1835926958_gshared
Vti:_NumberFormatter_AddOneToDecHex_m1662045257
ewc:__ZN19StreamedBinaryWrite21TransferSTLStyleArrayINSt3__26vectorIN9ShaderLab20SerializedSubProgram12UAVParameterENS1_9allocatorIS5_EEEEEEvRT_17TransferMetaFlags
Hpa:__ZN20GlobalCachingManager7DisposeEv
Rac:__Z12SetupLODFadeR9GfxDeviceR17ShaderPassContextf
u1a:__ZNK14PlayableOutput7GetTypeEv
r4c:__ZN9JSONWrite8TransferI13dynamic_arrayI4AABBLj0EEEEvRT_PKc17TransferMetaFlags
Yve:__ZL69Type_t_CustomAttributesCacheGenerator_Type_GetConstructors_m576905011P21CustomAttributesCache
O9i:__ZNK33DateTime_t3738529785_StaticFields20get_daysmonthleap_12Ev
Pgc:__ZL24CollectForwardObjectsJobP27CollectForwardObjectsHeader
azj:__ZN6Guid_t8set__c_2Es
Eqn:__ZNK15dense_hashtableINSt3__24pairIK10KeyWrapperIPK11Il2CppClassEPKcEES6_N6il2cpp5utils11PointerHashIS3_EEN14dense_hash_mapIS6_S9_SE_NS6_14EqualsComparerINS0_8equal_toIS5_EEEENS0_9allocatorISA_EEE9SelectKeyESJ_SL_E12test_deletedERK24dense_hashtable_iteratorISA_S6_SE_SN_SJ_SL_E
GW:__ZL58__ManagedRegistrationHelperFunction_AudioClipPlayableProxyPv
r6c:__ZN8JSONRead21TransferSTLStyleArrayI13dynamic_arrayIdLj0EEEEvRT_17TransferMetaFlags
jjc:__Z13IsNodeVisibleRK9SceneNodeRK4AABBRK22SceneCullingParameters
j7j:_Array_InternalArray__IndexOf_TisLabelFixup_t858502054_m1491765395_gshared
B5k:__Z44RuntimeInvoker_RuntimeTypeHandle_t3027515415PFvvEPK10MethodInfoPvPS4_
nrm:_TlsServerSettings_set_CertificateRequest_m1039729760
Kuf:__ZN30GenericInterfaceActionInvoker1IP20Delegate_t1188392813E6InvokeEPK10MethodInfoP12Il2CppObjectS1_
vfk:_SortKeyBuffer_AppendCJKExtension_m2591091991
Bqe:__ZN17Image_t267026965137set_m_AlphaHitTestMinimumThreshold_40Ef
Kxm:__ZN19X509Crl_t114876738813set_entries_4EP21ArrayList_t2718874744
LPk:_UTF8Encoding_GetByteCount_m4153686982
dgn:__ZN15dense_hashtableINSt3__24pairIK10KeyWrapperIPK22Il2CppGenericParameterEP11Il2CppClassEES6_N6il2cpp5utils11PointerHashIS4_EEN14dense_hash_mapIS6_S9_SE_NS6_14EqualsComparerINS0_8equal_toIS5_EEEENS0_9allocatorISA_EEE9SelectKeyESJ_SL_E3endEv
mbn:__ZN27ContactFilter2D_t380520344115set_layerMask_6E21LayerMask_t3493934918
dFo:_emscripten_glStencilMask__wrapper
c4k:__Z49RuntimeInvoker_Void_t1185182177_Double_t594665363PFvvEPK10MethodInfoPvPS4_
Lmn:__ZN15dense_hashtableI10KeyWrapperIPK19Il2CppGenericMethodES4_N6il2cpp8metadata23Il2CppGenericMethodHashEN14dense_hash_setIS4_S7_NS4_14EqualsComparerINS6_26Il2CppGenericMethodCompareEEENSt3__29allocatorIS4_EEE8IdentityESB_SE_EC2ERKSH_j
ggi:__ZNK23CipherSuite_t341474457518get_isExportable_6Ev
Qin:__ZNK15dense_hashtableINSt3__24pairIK10KeyWrapperIPK11Il2CppClassEPKcEES6_N6il2cpp5utils11PointerHashIS3_EEN14dense_hash_mapIS6_S9_SE_NS6_14EqualsComparerINS0_8equal_toIS5_EEEENS0_9allocatorISA_EEE9SelectKeyESJ_SL_E8min_sizeEjj
$Qe:__ZL66RuntimePlatform_t4159857903_CustomAttributesCacheGenerator_XBOX360P21CustomAttributesCache
Vtb:__ZNK17ArchiveFileSystem8PositionERK13FileEntryData
IKh:_InternalEnumerator_1_Dispose_m3577625655_gshared
d0a:__ZN39DeprecatedFastPropertyNameSerialization8TransferI14SafeBinaryReadEEvRT_
Stm:_DeriveBytes_DeriveIV_m973925711
rri:_Int32_System_IConvertible_ToSByte_m3133688512
Cjm:_IndexedSet_1__ctor_m2250384602_gshared
XNm:__Z25Il2CppCodeGenWriteBarrierI17List_1_t391719016EvPPT_S2_
I8l:_ReadOnlyCollection_1_System_Collections_IList_IndexOf_m848971554_gshared
CYm:_AudioSampleProvider_get_id_m2692334523
Lgc:__ZN9ShaderLab10GrabPassesD2Ev
cKn:__ZN10KeyWrapperINSt3__24pairIPK10MethodInfoP11Il2CppClassEEEC2ENS8_11KeyTypeEnumE
$ab:__ZN14Texture2DArray13UploadTextureEv
A3g:_MaskableGraphic_UpdateCull_m2805101913
Cdk:__ZN26SimpleCollator_t287783472928get_address_of_cjkLv1Table_5Ev
KBd:_tt_cmap14_done
mka:__ZN18AwakeFromLoadQueue25RegisterObjectInstanceIDsEv
fDa:__ZN9Scripting11UnityEngine9RectProxy12CleanupProxyEv
gUg:_InputField_UpdateLabel_m1837760870
Mt:__ZN9Scripting11UnityEngine10Animations21LookAtConstraintProxy12CleanupProxyEv
DNh:__ZNK32InternalEnumerator_1_t37800294199get_idx_1Ev
VC:__ZNK27AnimationLayerMixerPlayable11DerivesFromE17ScriptingClassPtr
gmn:__ZNK15dense_hashtableI10KeyWrapperIPK17Il2CppGenericInstES4_N6il2cpp8metadata21Il2CppGenericInstHashEN14dense_hash_setIS4_S7_NS4_14EqualsComparerINS6_24Il2CppGenericInstCompareEEENSt3__29allocatorIS4_EEE8IdentityESB_SE_E3endEv
Htd:__ZN20TextRenderingPrivate19NativeTextGenerator15InsertCharacterEiPj
Tjf:__Z25Il2CppCodeGenWriteBarrierI12MethodInfo_tEvPPT_S2_
WRn:__ZN10KeyWrapperINSt3__24pairIP11Il2CppClassjEEEC2ERKS4_
R6k:__Z77RuntimeInvoker_Void_t1185182177_RuntimeObject_SByte_t1669577662_RuntimeObjectPFvvEPK10MethodInfoPvPS4_
B7k:__Z81RuntimeInvoker_Void_t1185182177_RuntimeObject_SByte_t1669577662_SByte_t1669577662PFvvEPK10MethodInfoPvPS4_
X9k:__Z97RuntimeInvoker_RuntimeObject_RuntimeObject_RuntimeObject_RuntimeObject_ObjectU5BU5DU26_t712384779PFvvEPK10MethodInfoPvPS4_
t_n:__ZN10KeyWrapperINSt3__24pairIPKcS3_EEEC2ENS5_11KeyTypeEnumE
vad:__ZN11b2RopeJoint24SolveVelocityConstraintsERK12b2SolverData
tOm:_GUIContent_ClearStaticCache_m1205116045
WLl:_List_1_System_Collections_IList_get_IsFixedSize_m203251153_gshared
ATj:_WindowsIdentity_Dispose_m3466258450
xB:__ZN17AnimationPlayableD0Ev
Swh:_ArrayListWrapper_Sort_m1587743350
nSg:_BinaryCommon__cctor_m2978407547
SYf:__ZNK24DESTransform_t408890549915get_byteBuff_17Ev
lca:__GLOBAL__sub_I_Runtime_Burst_0_cpp
Qec:__Z19GetReflectionSampleRK23ReflectionProbesContextRK22ActiveReflectionProbesRK27PerObjectLightCullingOutputRK10RenderNodejP16ReflectionSample
mhl:__Z77RuntimeInvoker_GraphicsFormat_t3787950389_Int32_t2950945753_SByte_t1669577662PFvvEPK10MethodInfoPvPS4_
p$m:__ZL25UnresolvedVirtualCall_120P12Il2CppObjectssiPK10MethodInfo
_we:__ZL47ASN1_t2114160832_CustomAttributesCacheGeneratorP21CustomAttributesCache
qUn:__ZN6il2cpp6icalls8mscorlib6System2IO6MonoIO20GetFileSystemEntriesEP12Il2CppStringS6_iiPi
cog:__ZN23InterfaceActionInvoker1IP25RectTransform_t3704657025E6InvokeEjP11Il2CppClassP12Il2CppObjectS1_
Muj:__ZNK43DateTimeFormatInfo_t2405853701_StaticFields18get_MSG_READONLY_1Ev
yZk:_UInt16_TryParse_m4139137016
VTc:__Z41MonoBehaviour_Set_Custom_PropUseGUILayoutP12Il2CppObjecth
fwh:_ArrayList_Sort_m582560637
k6n:__ZN6il2cpp2gc16GarbageCollector9FreeFixedEPv
Ook:__ZNK30SymmetricTransform_t380259184218get_FeedBackIter_8Ev
p0j:_Encoding__ctor_m2997749867
Gcg:_ManagedStreamHelpers_ManagedStreamSeek_m3158782053
RHm:_ExpressionAssertion_Compile_m2166597834
EDb:__ZN16ScriptingManagerD0Ev
KVj:_Single_System_IConvertible_ToSByte_m1208276900_AdjustorThunk
_T:__ZN7mecanim12statemachine20StateMachineConstant15InitializeClassEv
hco:__ZN6il2cpp6icalls8mscorlib6System7Convert24InternalFromBase64StringEP12Il2CppStringb
lxk:_EqualityComparer_1__ctor_m2241711498_gshared
IUf:_RuntimeFieldHandle_GetObjectData_m95767031_AdjustorThunk
eDe:__ZL58ChannelServices_t3942013484_CustomAttributesCacheGeneratorP21CustomAttributesCache
d_n:__ZN30dense_hashtable_const_iteratorINSt3__24pairIK10KeyWrapperINS1_IPKcS4_EEEiEES6_24NamespaceAndNamePairHashN14dense_hash_mapIS6_iS9_NS6_14EqualsComparerI26NamespaceAndNamePairEqualsEENS0_9allocatorIS8_EEE9SelectKeyESD_SF_EppEv
PVc:__Z44Register_UnityEngine_Component_get_transformv
GGn:__ZNK24dense_hashtable_iteratorINSt3__24pairIK10KeyWrapperINS1_IPK9EventInfoP11Il2CppClassEEEjEES9_17ReflectionMapHashIS8_EN14dense_hash_mapIS9_jSD_NS9_14EqualsComparerINS0_8equal_toIS8_EEEENS0_9allocatorISB_EEE9SelectKeyESI_SK_EneERKSN_
$ql:__Z48RuntimeInvoker_Void_t1185182177_Link_t3209266973PFvvEPK10MethodInfoPvPS4_
C0c:__Z35GUIStyle_Get_Custom_PropFixedHeightP12Il2CppObject
RMb:__ZL26Transfer_SimpleNativeClassI19StreamedBinaryWrite8GradientLb1EEvRK29SerializationCommandArgumentsR31RuntimeSerializationCommandInfo
jO:__ZN12_GLOBAL__N_120ProcessPlayableGraphERN8Animator11AnimatorJobER35AnimationPlayableEvaluationConstantR32AnimationPlayableEvaluationInputR33AnimationPlayableEvaluationOutputPFvS4_R17AnimationPlayableEPFvS4_S6_S8_EPFvS8_S4_S6_S8_fESE_MS9_FvPS3_PS5_PS7_E
Ule:__ZNK42FontUpdateTracker_t1839077620_StaticFields15get_m_Tracked_0Ev
j5m:_CanvasRenderer_get_absoluteDepth_m2703237819
Uyj:_TextInfo_ToLower_m2744057472
J5b:__ZN17ArchiveFileSystem12MountArchiveEPKcS1_
ikn:__ZN14dense_hash_mapI10KeyWrapperIP9FieldInfoEiN6il2cpp5utils11PointerHashIS1_EENS3_14EqualsComparerINSt3__28equal_toIS2_EEEENS9_9allocatorINS9_4pairIKS3_iEEEEE15set_deleted_keyERSF_
xAk:_EqualityComparer_1_System_Collections_IEqualityComparer_Equals_m3977314386_gshared
WSh:__ZNK32InternalEnumerator_1_t318664610611get_array_0Ev
E2c:__Z18Transfer_BlittableI9JSONWriteLb1E8Vector4fEvRK29SerializationCommandArgumentsR31RuntimeSerializationCommandInfo
Aja:__Z11RequireTypePKcS0_S0_
iqj:_CCGregorianCalendar_year_from_fixed_m463929682
rJd:__ZN2UI13CanvasManagerD0Ev
jxh:_ReadOnlyArrayListWrapper_Sort_m2577012511
B1f:_Debug_get_unityLogger_m2239795986
Uai:_MD2Managed_Initialize_m2341076836
fzf:__ZN14MonoProperty_t12set_cached_3Ei
Dif:__ZNK23TypeBuilder_t107394815414get_pmodule_24Ev
F8l:_ReadOnlyCollection_1_System_Collections_IList_Add_m4240023232_gshared
f2m:__ZL25UnresolvedVirtualCall_272P12Il2CppObjecti20UIVertex_t4057497605PK10MethodInfo
Zxj:__ZNK22RegionInfo_t109027022614get_iso2Name_3Ev
ozb:__ZN9GfxDevice15ImmediateVertexEfff
WVe:__ZL56PreLateUpdate_t3194249939_CustomAttributesCacheGeneratorP21CustomAttributesCache
jbb:__ZNK16LightmapSettings22GetTypeVirtualInternalEv
Bmd:__ZN17Physics2DSettings8TransferI19StreamedBinaryWriteEEvRT_
Q6k:__Z57RuntimeInvoker_Void_t1185182177_RSAParameters_t1728406613PFvvEPK10MethodInfoPvPS4_
$Ta:__ZN16GraphicsSettings13AwakeFromLoadE17AwakeFromLoadMode
XIn:__ZN30dense_hashtable_const_iteratorINSt3__24pairIK10KeyWrapperIPK14Il2CppAssemblyEPK22Il2CppMonoAssemblyNameEES6_N6il2cpp5utils11PointerHashIS4_EEN14dense_hash_mapIS6_SA_SF_NS6_14EqualsComparerINS0_8equal_toIS5_EEEENS0_9allocatorISB_EEE9SelectKeyESK_SM_EppEv
$Aa:__ZL49__ManagedRegistrationHelperFunction_GPUFenceProxyPv
_p:__ZN6Object13AwakeFromLoadE17AwakeFromLoadMode
hYb:__ZN13GfxDeviceGLES15SetStencilStateEPK18DeviceStencilStatei
ZEj:__ZN28GenericInterfaceFuncInvoker3IiP22ByteU5BU5D_t4116647657iiE6InvokeEPK10MethodInfoP12Il2CppObjectS1_ii
tgh:_Buffer_BlockCopyInternal_m418318694
Xuo:_cycle
n$e:__ZL138SupportedRenderingFeatures_t353898663_CustomAttributesCacheGenerator_SupportedRenderingFeatures_get_supportedLightmapBakeTypes_m1596512019P21CustomAttributesCache
Zbo:__ZN6il2cpp2vm8Profiler7GCEventE13Il2CppGCEvent
R5k:__Z76RuntimeInvoker_Void_t1185182177_RuntimeObject_RuntimeFieldHandle_t1871169219PFvvEPK10MethodInfoPvPS4_
fbe:__ZNK26BaseMeshEffect_t244017643915get_m_Graphic_4Ev
qAa:__ZL50__ManagedRegistrationHelperFunction_LayerMaskProxyPv
Bwg:__ZNK25ConfigHandler_t419243721625get_currentProviderData_3Ev
enn:__ZNSt3__218uninitialized_fillIP10KeyWrapperIPK19Il2CppGenericMethodES5_EEvT_S7_RKT0_
ken:__ZN35StaticAccessorAttribute_t243266390231set_U3CNameU3Ek__BackingField_0EP8String_t
Eh:_emscripten_glUniform1iv
LBb:__ZN13ComputeShader14SetBufferParamEjRKN9ShaderLab16FastPropertyNameE15ComputeBufferIDb
BTk:_Thread_get_ManagedThreadId_m1068113671
Qcd:__ZN15b2DistanceProxy3SetEPK7b2Shapei
u_i:__ZN38X509Certificate2Enumerator_t331671381216set_enumerator_0EP12Il2CppObject
ewb:__ZN16MemoryFileSystemD2Ev
g6k:__Z150RuntimeInvoker_Int32_t2950945753_RuntimeObject_Int32_t2950945753_Int32_t2950945753_RuntimeObject_Int32_t2950945753_Int32_t2950945753_Int32_t2950945753PFvvEPK10MethodInfoPvPS4_
JLf:__ZNK27BaseFixupRecord_t318565345623get_NextSameContainer_2Ev
UZc:__ZN9Scripting11UnityEngine13GUIStyleProxy12CleanupProxyEv
smn:__ZNSt3__218uninitialized_fillIP10KeyWrapperIPK17Il2CppGenericInstES5_EEvT_S7_RKT0_
Nun:__ZN6il2cpp2vmL15InitPollRequestER6pollfdP23Il2CppSocketAsyncResultRNS_2os19SocketHandleWrapperE
LQf:__Z25Il2CppCodeGenWriteBarrierI34SerializationCallbacks_t2570604627EvPPT_S2_
nMh:__ZN32InternalEnumerator_1_t28112936009set_idx_1Ei
j1m:__ZL25UnresolvedVirtualCall_222P12Il2CppObject19TimeSpan_t881159249PK10MethodInfo
p6f:_Debug_LogException_m2248249292
aEh:_InternalEnumerator_1_System_Collections_IEnumerator_Reset_m81420524_AdjustorThunk
_id:__ZN29b2InitializeContactSolverTask7TaskJobEPS_j
zna:__ZN14FileCacherReadD2Ev
ZIj:_StringReader_Read_m3322058819
GJf:_CrossAppDomainChannel_get_ChannelPriority_m3418073750
Lvk:_EqualityComparer_1__ctor_m1860346363_gshared
iZg:_Selectable_StartColorTween_m3618813981
GBj:_BinaryWriter_Write_m973309864
Bbe:__ZN44U3COnFinishSubmitU3Ec__Iterator0_t341343890013set_U24this_2EP18Button_t4055032469
guf:_EventInfo__ctor_m3033129999
KZm:__ZL24UnresolvedVirtualCall_33P12Il2CppObjectiS0_S0_PK10MethodInfo
t4l:_ReadOnlyCollection_1_System_Collections_Generic_ICollectionU3CTU3E_get_IsReadOnly_m2788045022_gshared
NHc:__ZN15ApplicationInfo16GetInstallerNameEv
pqc:__Z23ConvertIntegerToTypePtrItEbPvR14SafeBinaryRead
Vjj:_Delegate_CombineImpl_m3572135514
Hsi:_NumberFormatter_IntegerToString_m1679294587
RGf:__ZN22SafeHandle_t327338895112set_handle_0Ei
TMj:_SHA256Managed_AddLength_m1060552216
N5l:_ReadOnlyCollection_1_System_Collections_IList_RemoveAt_m422909114_gshared
WO:__ZN7mecanim5human29HumanGetGoalOrientationOffsetENS0_4GoalE
oh:_emscripten_glStencilFunc
j6m:__ZN26AnimationEvent_t153604248719set_m_StateSender_8EP26AnimationState_t1108360407
jZm:__ZL23UnresolvedVirtualCall_6P12Il2CppObjectiPK10MethodInfo
c_m:__ZL24UnresolvedVirtualCall_53P12Il2CppObjectPK10MethodInfo
mK:__ZN13dynamic_arrayI11KeyframeTplI8Vector3fELj0EE18resize_initializedEj12ResizePolicy
YMb:__Z18Transfer_BlittableI19StreamedBinaryWriteLb1EjEvRK29SerializationCommandArgumentsR31RuntimeSerializationCommandInfo
Y7d:__Z46il2cpp_codegen_get_marshal_directive_exceptionPKc
Ucm:__ZN22Nullable_1_t260372133115set_has_value_1Eb
dxc:__ZN9ShaderLab20SerializedSubProgram14AddMatrixParamEPKcii15ShaderParamTypei
lk:_glGetActiveUniformBlockName
i8e:__ZL90PointerEventData_t3807901092_CustomAttributesCacheGenerator_U3CpointerIdU3Ek__BackingFieldP21CustomAttributesCache
L3k:__Z67RuntimeInvoker_Int32_t2950945753_RuntimeObject_Int32U26_t1369213839PFvvEPK10MethodInfoPvPS4_
TVd:__GLOBAL__sub_I_UnityWebRequestScriptingClasses_cpp
gHl:_Mesh_GetAllocArrayFromChannel_TisVector2_t2156229523_m1057679375_gshared
EYd:__ZN9Scripting11UnityEngine5Video16VideoPlayerProxy9InitProxyEv
o4n:__ZN6il2cpp2os5posix13PosixAutoLockD2Ev
Zrn:__ZN6il2cpp2vm13MetadataCache28GetGenericContainerFromIndexEi
fQa:__ZNK4PPtrI5FlareEcvPS0_Ev
Mui:__ZN27NumberFormatter_t118292462117set__specifier_13EDs
$Y:__ZN4FMOD7Channel20set3DConeOrientationEP11FMOD_VECTOR
xn:FUNCTION_TABLE_iiifii
B8d:_StandaloneInputModule_set_inputActionsPerSecond_m4057208843
RGi:_AssemblyBuilder_not_supported_m1735277432
RRh:_InternalEnumerator_1_MoveNext_m1344185775_AdjustorThunk
CL:__ZN7mecanim5human9HumanPose8TransferI18StreamedBinaryReadEEvRT_
w3n:__ZN6il2cpp2vm12GenericClass11SetupEventsEP11Il2CppClass
NDd:_tt_delta_interpolate
qkf:__ZN24ModuleBuilder_t73188769116set_assemblyb_16EP26AssemblyBuilder_t359885250
hCd:_tt_cmap12_get_info
DYn:__ZN6il2cpp2vm15ReboxIReferenceEP14Il2CppIUnknownP11Il2CppClass
x0l:_Collection_1_Contains_m1707523067_gshared
DIk:_Enumerator__ctor_m2029608698_AdjustorThunk
_ij:_Decimal_ToString_m1815393864_AdjustorThunk
Lie:__Z25Il2CppCodeGenWriteBarrierI26OptionDataList_t1438173104EvPPT_S2_
RGg:_CADMethodCallMessage_GetArguments_m3041854375
Gcn:__ZN6il2cpp6icalls8mscorlib6System7Decimal14decimalCompareEP19il2cpp_decimal_reprS5_
$6h:_Dictionary_2_OnDeserialization_m4209543208_gshared
Uco:__ZThn4_N6il2cpp2vm13CachedCCWBaseINS0_13ManagedObjectEE7ReleaseEv
Fjj:__ZN20Delegate_t118839281323get_address_of_method_3Ev
jxl:_RNGCryptoServiceProvider_GetNonZeroBytes_m1918423726
gqn:__ZL29ConvertPackingSizeEnumToValue11PackingSize
sgl:__Z100RuntimeInvoker_Void_t1185182177_RuntimeObject_Int32_t2950945753_Int32_t2950945753_UInt16_t2177724958PFvvEPK10MethodInfoPvPS4_
WJo:_glCopyTexImage2D__wrapper
Qod:__ZN16PhysicsManager2D11CreateWorldERK8Vector2f
dJe:__ZL62ArithmeticException_t4283546778_CustomAttributesCacheGeneratorP21CustomAttributesCache
T0e:__ZL108TextGenerator_t3211863866_CustomAttributesCacheGenerator_TextGenerator_get_characterCountVisible_m3790045314P21CustomAttributesCache
ZUb:__Z18ClearByDrawingQuad13GfxClearFlagsRK10ColorRGBAffjR17ShaderPassContext
Gwa:__ZN6prcoreL17RemapGenericFloatI14TexFormatRHalf15TexFormatRFloatEEvPKNS_9InnerInfoE
wui:_NumberFormatter_FormatExponential_m2139559983
rAe:__ZL82Assembly_t_CustomAttributesCacheGenerator_Assembly_LoadWithPartialName_m3387477452P21CustomAttributesCache
rta:__ZN15DirectorManager21RebuildStageCallbacksEv
yKj:__ZNK33UnmanagedMemoryStream_t423411766922get_current_position_7Ev
E1f:_Application_Internal_ApplicationQuit_m2936209313
$Hd:__ZN9Scripting11UnityEngine8Tilemaps22TileAnimationDataProxy9InitProxyEv
S_b:__ZN7ApiGLES10DrawArraysE16GfxPrimitiveTypejjj
OEh:_InternalEnumerator_1_MoveNext_m154749640_gshared
W0:__ZN10SampleClip13LoadBaseSoundEv
jmh:_SmallXmlParser_SkipWhitespaces_m4243606597
DAh:__ZNK21Hashtable_t185388976614get_hashKeys_7Ev
VAa:__ZL50__ManagedRegistrationHelperFunction_TransformProxyPv
Ztg:__ZNK23WorkRequest_t135451861224get_m_DelagateCallback_0Ev
gwh:_ArrayList_Sort_m4234055499
Cid:__ZN43b2SolveVelocityConstraintsContactSolverTaskD0Ev
iHb:__ZN14SafeBinaryRead21TransferSTLStyleArrayI13dynamic_arrayI10Matrix4x4fLj0EEEEvRT_17TransferMetaFlags
NHg:_MethodCall__ctor_m3669645
jth:_Byte_CompareTo_m4285128861
d2d:_TriggerEvent__ctor_m87299207
Rtm:_DeriveBytes_DeriveKey_m2933043667
G4:__Z57AudioSource_CUSTOM_INTERNAL_CALL_ClearExtensionPropertiesP12Il2CppObjectRK12PropertyName
j3n:__ZN15dense_hashtableINSt3__24pairIK10KeyWrapperIP12Il2CppObjectEN6il2cpp2gc9CachedCCWEEES5_NS7_5utils11PointerHashIS3_EEN14dense_hash_mapIS5_S9_SD_NS5_14EqualsComparerINS0_8equal_toIS4_EEEENS0_9allocatorISA_EEE9SelectKeyESI_SK_E15insert_noresizeERKSA_
NMm:_GUILayoutUtility_BeginWindow_m2240221150
hfi:_CertificateValidationCallback2__ctor_m1685875113
SIh:__ZNK32InternalEnumerator_1_t150172948011get_array_0Ev
q1a:__ZN22DeviceMVPMatricesStateC2ER9GfxDevice
Oqi:_SslClientStream_Finalize_m1251363641
$ua:__ZN6Object16StaticInitializeEv
yfi:__ZN23CipherSuite_t341474457527set_exchangeAlgorithmType_5Ei
y6f:_Logger_set_logEnabled_m1180597166
Tyh:_Comparer_Compare_m3984347512
Xq:__ZN17CallbackArrayBaseIPFviR18AwakeFromLoadQueue16SceneLoadingModeEPFvPKviS1_S2_EE8RegisterES4_S8_S6_
ekk:__ZN26BlockProcessor_t185103122516set_blockCount_3Ei
tLn:__ZN6il2cpp2vm10Reflection12HasAttributeEP9FieldInfoP11Il2CppClass
Wb:invoke_viiifi
Iyh:__Z25Il2CppCodeGenWriteBarrierI23CultureInfo_t4157843068EvPPT_S2_
Azf:_MonoProperty_GetCustomAttributes_m3619796755
zMh:_InternalEnumerator_1_MoveNext_m4132713223_AdjustorThunk
hLg:_MethodDictionary_System_Collections_IEnumerable_GetEnumerator_m4169036899
cmh:__ZN23InterfaceActionInvoker2IP8String_tP12Il2CppObjectE6InvokeEjP11Il2CppClassS3_S1_S3_
d9l:_ReadOnlyCollection_1_System_Collections_Generic_IListU3CTU3E_get_Item_m3666607533_gshared
Cnk:__Z25Il2CppCodeGenWriteBarrierI36KeyGeneratedEventHandler_t3064139577EvPPT_S2_
dWk:_TimeSpan_Subtract_m1264203589
aBg:_CrossContextChannel__ctor_m3755842292
Ktk:_DefaultComparer_Equals_m3257444875_gshared
f3a:__ZN10Matrix4x4f8TransferI19StreamedBinaryWriteEEvRT_
Pc:_JS_Sound_SetPosition
t_d:__ZNK23EventSystem_t100366658826get_m_CurrentInputModule_5Ev
Hrn:__ZL13GetSharedInstPK17Il2CppGenericInst
M8e:__ZL98PointerEventData_t3807901092_CustomAttributesCacheGenerator_PointerEventData_get_delta_m1062010255P21CustomAttributesCache
Bsi:__ZN27NumberFormatter_t118292462113set__thread_6EP18Thread_t2300836069
qTa:__Z27ConvertSubMeshesToTrianglesIjEvR13dynamic_arrayI7SubMeshLj0EERS0_IhLj0EE
nog:_RenderTexture_Internal_Create_m347030155
Bxg:__ZNK29SoapTypeAttribute_t175093081716get__isElement_9Ev
Xof:__ZN31OpCodes_t126150456_StaticFields15set_Ldind_R8_78E17OpCode_t123070264
kic:__Z17PrepareSceneNodesP11CullResults
wGh:_InternalEnumerator_1_get_Current_m476140818_gshared
Lwc:__ZN9ShaderLab10SubProgram30CreateFromSerializedSubProgramERKNS_20SerializedSubProgramEP16PropertyNamesSetPK6Shader
qNh:_InternalEnumerator_1_Dispose_m887344916_gshared
uLl:_List_1_Sort_m4240158523_gshared
Bxl:__ZN36RSACryptoServiceProvider_t268351287415set_persisted_4Eb
kjf:__ZN25ParameterInfo_t186105659815set_ClassImpl_0EP6Type_t
Fsk:__ZNK23Dictionary_2_t13254515212get_count_10Ev
Zde:__ZN45CanvasUpdateRegistry_t2720824592_StaticFields26set_s_SortLayoutFunction_5EP24Comparison_1_t1896830045
wRc:__Z57Register_UnityEngine_RectTransform_set_sizeDelta_Injectedv
Bae:_AnimationTriggers_set_disabledTrigger_m933056574
LK:__ZNSt3__26vectorIN13AnimationClip15QuaternionCurveE13stl_allocatorIS2_L18MemLabelIdentifier26ELi16EEE7reserveEj
KHl:_List_1_Add_m238442097_gshared
mPc:__ZN9TextAsset7SetTextERKN4core12basic_stringIcNS0_20StringStorageDefaultIcEEEE
uOa:__ZN6Camera8TransferI24GenerateTypeTreeTransferEEvRT_
$5:__Z18RegisterUnityClassI12AudioManagerEvPKc
ab:invoke_iiiiiiif
bb:invoke_iiiiiiii
JAl:_Array_InternalArray__set_Item_TisByte_t1134296376_m3104140039_gshared
uYi:__ZN38X509ChainElementEnumerator_t301425345616set_enumerator_0EP12Il2CppObject
oUc:__Z56Register_UnityEngine_MonoBehaviour_IsObjectMonoBehaviourv
Gmg:_Rect_ToString_m447614148
Pya:__ZL83__ManagedRegistrationHelperFunction_NativeDisableUnsafePtrRestrictionAttributeProxyPv
bvm:_PKCS12_GetBytes_m415958948
cji:_Context_get_HandshakeState_m2425796590
t8b:__ZN8Renderer17PendingAddToSceneEv
t0l:_Collection_1_System_Collections_IList_set_Item_m2625856224_gshared
UJo:b122
jKo:b125
gKo:b124
nKo:b127
mKo:b126
swn:__ZN6il2cpp5utils10functional6FilterINSt3__212basic_stringIcNS3_11char_traitsIcEENS3_9allocatorIcEEEENS0_13VmStringUtils21CaseSensitiveComparerEEC2ES9_SB_
tXj:_String_CompareOrdinalCaseInsensitiveUnchecked_m2925624579
Meg:_Mesh_SetSizedArrayForChannel_m2565120436
kja:__Z21PostprocessStacktracePKcRN4core12basic_stringIcNS1_20StringStorageDefaultIcEEEE
M5e:__ZL73ContactFilter2D_t3805203441_CustomAttributesCacheGenerator_minNormalAngleP21CustomAttributesCache
WXn:__ZN15dense_hashtableINSt3__24pairIK10KeyWrapperIP14Il2CppIUnknownEjEES5_N6il2cpp5utils11PointerHashIS3_EEN14dense_hash_mapIS5_jSB_NS5_14EqualsComparerINS0_8equal_toIS4_EEEENS0_9allocatorIS7_EEE9SelectKeyESG_SI_E12expand_arrayEjN21dense_hash_map_traits17integral_constantIbLb0EEE
Hcg:_ManagedStreamHelpers_ManagedStreamLength_m2930872960
nde:__ZN21InterfaceFuncInvoker0IbE6InvokeEjP11Il2CppClassP12Il2CppObject
HHi:__ZNK30ConstructorBuilder_t281352410810get_type_8Ev
iFj:_FileStreamAsyncResult_CBWrapper_m1670848754
a3i:__ZN21Enumerator_t66135868610set_mode_4Ei
fhg:__ZN28MessageEventArgs_t117057578414set_playerId_0Ei
zde:___clang_call_terminate
eRd:__ZN22BaseUnityConnectClient20StartEventDispatcherEv
CLc:__ZNSt3__26vectorIj13stl_allocatorIjL18MemLabelIdentifier1ELi16EEE6assignIPKtEENS_9enable_ifIXaasr21__is_forward_iteratorIT_EE5valuesr16is_constructibleIjNS_15iterator_traitsIS9_E9referenceEEE5valueEvE4typeES9_S9_
DN:__ZN7mecanim9animation16EvaluateAvatarIKEPKNS0_14AvatarConstantEPKNS0_11AvatarInputEPNS0_12AvatarOutputEPNS0_12AvatarMemoryEPNS0_15AvatarWorkspaceEb
fE:__ZN26AnimatorControllerPlayable10GetIntegerEiRi
Ipc:__Z29StdTemplateConversionFunctionIsiEbPvR14SafeBinaryRead
x7c:__ZN8JSONRead21TransferSTLStyleArrayI13dynamic_arrayI10ColorRGBAfLj0EEEEvRT_17TransferMetaFlags
B7b:__ZN12InputManager13InputEndFrameEv
Uwn:__ZNSt3__26__treeIP11Il2CppClassNS_4lessIS2_EENS_9allocatorIS2_EEE25__emplace_unique_key_argsIS2_JRKS2_EEENS_4pairINS_15__tree_iteratorIS2_PNS_11__tree_nodeIS2_PvEEiEEbEERKT_DpOT0_
MRf:__ZNK24ObjectWriter_t296840623118get_arrayBuffer_11Ev
B5f:_Object_get_name_m4211327027
eBo:dynCall_viififfii
pPn:__ZN6il2cpp2vm6Thread5SetupEP12Il2CppThread
XCo:_pthread_cond_wait__wrapper
x3l:_ReadOnlyCollection_1_System_Collections_IList_get_IsReadOnly_m1248651675_gshared
n0h:_Enumerator_System_Collections_IDictionaryEnumerator_get_Key_m2500634048_gshared
qyj:_SortKey_Compare_m1705990888
m3m:_TextGenerator_t3211863866_marshal_pinvoke_back
hvo:___munmap
AXg:__ZNK16Text_t190188271418get_m_TextCache_32Ev
Wl:_localtime_r
wGf:_InterfaceTypeAttribute__ctor_m3307583035
gLh:_InternalEnumerator_1_System_Collections_IEnumerator_Reset_m3619766341_AdjustorThunk
k2a:__ZN14SafeBinaryRead21TransferSTLStyleArrayI13dynamic_arrayI12BoneWeights4Lj0EEEEvRT_17TransferMetaFlags
W_f:__ZNK16HMAC_t262110114415get__disposed_5Ev
Pda:__Z19free_alloc_internalPv10MemLabelId
fEe:__ZL56ReturnMessage_t1376985608_CustomAttributesCacheGeneratorP21CustomAttributesCache
TOk:_UTF32Decoder_GetChars_m1925558948
rm:_strftime
pYa:__ZN7Texture33SetStoredColorSpaceNoDirtyNoApplyE17TextureColorSpace
EEf:_ResourceSet__ctor_m3618395942
iij:_Decimal_System_IConvertible_ToDouble_m3125524987_AdjustorThunk
Xna:__ZN12FileAccessorD2Ev
VLm:__ZN30Event_t2956885303_StaticFields15set_s_Current_1EP17Event_t2956885303
FTa:__ZN14VertexDataInfoC2Ev
W5n:__ZN6il2cpp2gc16GarbageCollector14CollectALittleEv
Or:__ZN13dynamic_arrayI23TransformAccessReadOnlyLj0EE4growEv
zKh:__ZN32InternalEnumerator_1_t11949298279set_idx_1Ei
zJc:__ZNK9HPlayable15GetPlayableTypeEv
wsl:__Z117RuntimeInvoker_Void_t1185182177_CustomAttributeTypedArgumentU5BU5DU26_t2503877664_Int32_t2950945753_Int32_t2950945753PFvvEPK10MethodInfoPvPS4_
rOb:__Z18Transfer_BlittableI18StreamedBinaryReadLb0EN4math12int2_storageEEvRK29SerializationCommandArgumentsR31RuntimeSerializationCommandInfo
D5g:_RectMask2D_IsRaycastLocationValid_m1652308696
A$g:__ZN23LayoutGroup_t243613809026set_m_TotalFlexibleSize_10E19Vector2_t2156229523
xga:__ZNSt3__26__treeINS_12__value_typeIPKciEENS_19__map_value_compareIS3_S4_15compare_tstringIS3_ELb1EEENS_9allocatorIS4_EEE21__emplace_unique_implIJNS_4pairIPciEEEEENSD_INS_15__tree_iteratorIS4_PNS_11__tree_nodeIS4_PvEEiEEbEEDpOT_
Jxn:__ZN6il2cpp6icalls8mscorlib6SystemL9IsPrivateEPK12PropertyInfo
Cvm:_X501_ToString_m1148552872
ZG:__Z26AddScaleCurveToClipBuilderR17AnimationCurveTplI8Vector3fERKN4core12basic_stringIcNS3_20StringStorageDefaultIcEEEER18MecanimClipBuilderb
hjl:__Z96RuntimeInvoker_RuntimeObject_PlayableGraph_t3515989261_RuntimeObject_RuntimeObject_RuntimeObjectPFvvEPK10MethodInfoPvPS4_
eng:_RectTransform_add_reapplyDrivenProperties_m1374850920
E6f:_DebugLogHandler_Internal_LogException_m4213045108
yia:__ZN9shadertag10InitializeEv
f0f:__ZN36MD5CryptoServiceProvider_t300558604211set_count_6Ey
Yco:__ZThn8_N6il2cpp2vm13CachedCCWBaseINS0_13ManagedObjectEE7DestroyEv
YQf:__ZNK28SerializationInfo_t95087717918get_assemblyName_2Ev
jrd:__GLOBAL__sub_I_Modules_Terrain_Public_1_cpp
TNn:_il2cpp_field_has_attribute
D8a:__ZN15QualitySettings14QualitySetting8TransferI24GenerateTypeTreeTransferEEvRT_
rig:__ZN26PlayableHandle_t109585380315set_m_Version_1Ej
Kko:__ZN6il2cpp5utils6Memory11AlignedFreeEPv
Usm:__ZN29KeyUsageExtension_t179561591212set_kubits_3Ei
Egi:_Context_get_ClientWriteKey_m3174706656
M7e:__ZL77ExecuteEvents_t3484638744_CustomAttributesCacheGenerator_U3CU3Ef__mgU24cache7P21CustomAttributesCache
AVg:_InputField_get_textComponent_m948764648
JYc:__Z44Register_UnityEngine_Object_DestroyImmediatev
Zme:__ZN19Graphic_t166033561115set_m_Canvas_11EP18Canvas_t3310196443
Tcj:_Convert_ToSingle_m835189399
gjm:__ZNK24UnityEvent_1_t343734582819get_m_InvokeArray_4Ev
tTn:__ZN6il2cpp6icalls8mscorlib6System10Reflection19ResourceNameMatcherC2ERKNSt3__212basic_stringIcNS5_11char_traitsIcEENS5_9allocatorIcEEEE
NGc:__ZN22BlockMemoryCacheWriter14LockCacheBlockEjPPhS1_
fwn:__ZN6il2cpp6icalls8mscorlib6System8MonoType24GetConstructors_internalEP20Il2CppReflectionTypeiS5_
__c:__ZNSt3__218__insertion_sort_3IRPFbPKN5IMGUI9GUIWindowES4_EPPS2_EEvT0_SA_T_
mXf:_CryptographicUnexpectedOperationException__ctor_m69881930
EGe:__ZL73TripleDESCryptoServiceProvider_t3595206342_CustomAttributesCacheGeneratorP21CustomAttributesCache
LUl:_Collection_1_SetItem_m1218178236_gshared
q6c:__Z22TransferField_NonArrayI8JSONRead27Converter_SimpleNativeClassI8GUIStyleEEvRK23StaticTransferFieldInfoR31RuntimeSerializationCommandInfoRT0_
Nmn:__ZN15dense_hashtableI10KeyWrapperIPK19Il2CppGenericMethodES4_N6il2cpp8metadata23Il2CppGenericMethodHashEN14dense_hash_setIS4_S7_NS4_14EqualsComparerINS6_26Il2CppGenericMethodCompareEEENSt3__29allocatorIS4_EEE8IdentityESB_SE_E16reset_thresholdsEv
Ml:_llvm_eh_typeid_for
zCf:__ZN26ResourceReader_t330049263916set_readerLock_1EP12Il2CppObject
Afl:__Z44RuntimeInvoker_X509KeyUsageFlags_t1431795504PFvvEPK10MethodInfoPvPS4_
Azh:_CollectionBase_OnClear_m883003723
TCo:_glGetUniformLocation__wrapper
JKg:_RemotingServices_FindInterfaceMethod_m2125212568
Ekj:__ZN22StackFrame_t321725305929get_address_of_nativeOffset_2Ev
rF:__ZNK23AnimationPlayableOutput7GetTypeEv
oIj:_StreamWriter__cctor_m1229272693
Bmj:_Enum_System_IConvertible_ToSByte_m779472798
CRf:__ZN18VirtActionInvoker1IP22CharU5BU5D_t3528271667E6InvokeEjP12Il2CppObjectS1_
E_m:__ZL24UnresolvedVirtualCall_81P12Il2CppObjectPK10MethodInfo
ZWk:_Type_get_IsInterface_m3284996719
mGh:_InternalEnumerator_1_MoveNext_m1543390728_gshared
umn:__ZN10KeyWrapperIPK17Il2CppGenericInstEC2ERKS2_
cGb:__ZNSt3__26vectorI17ScriptingFieldPtr13stl_allocatorIS1_L18MemLabelIdentifier1ELi16EEE21__push_back_slow_pathIRKS1_EEvOT_
ryj:_SortKey_get_OriginalString_m1428586816
Zah:_Scrollbar_get_numberOfSteps_m1256457796
bpl:__Z51RuntimeInvoker_Void_t1185182177_Vector4_t3319028937PFvvEPK10MethodInfoPvPS4_
O6m:_AnimationOffsetPlayable_GetHandle_m449079993
Gsd:__ZN14SafeBinaryRead21TransferSTLStyleArrayI13dynamic_arrayIN4core17string_with_labelILi35EEELj0EEEEvRT_17TransferMetaFlags
V5k:__Z67RuntimeInvoker_Void_t1185182177_SByte_t1669577662_SByte_t1669577662PFvvEPK10MethodInfoPvPS4_
qRf:__ZN18VirtActionInvoker1IDsE6InvokeEjP12Il2CppObjectDs
vtk:_Dictionary_2_U3CCopyToU3Em__0_m2023886030_gshared
MH:__ZN9BlobWrite8TransferIN7mecanim5human9HumanGoalEEEvRT_PKc17TransferMetaFlags
FEo:_glBindVertexArray__wrapper
qJ:__ZN13dynamic_arrayIN11UnityEngine9Animation14GenericBindingELj0EE18resize_initializedEj12ResizePolicy
dNf:_SerializationInfo__ctor_m2923079689
MSd:__ZN11UnityEngine9Analytics16LimitEventConfig8TransferI8JSONReadEEvRT_
I$a:__ZN8Material8TransferI14SafeBinaryReadEEvRT_
b4a:__ZN12CubemapArray17UploadToGfxDeviceEv
SUi:__ZNK38AsnEncodedData_t382354011_StaticFields28get_U3CU3Ef__switchU24mapA_2Ev
k7k:__Z68RuntimeInvoker_Void_t1185182177_Int32_t2950945753_Single_t1397266774PFvvEPK10MethodInfoPvPS4_
gcm:_Func_2__ctor_m1150804732_gshared
Xri:_Int32_JumpOverWhite_m208298144
dEh:__ZNK32InternalEnumerator_1_t42399320099get_idx_1Ev
phk:__ZN35BigInteger_t2902905089_StaticFields17set_smallPrimes_2EP24UInt32U5BU5D_t2770800703
rkn:__ZN15dense_hashtableINSt3__24pairIK10KeyWrapperIP9FieldInfoEiEES5_N6il2cpp5utils11PointerHashIS3_EEN14dense_hash_mapIS5_iSB_NS5_14EqualsComparerINS0_8equal_toIS4_EEEENS0_9allocatorIS7_EEE9SelectKeyESG_SI_E4swapERSL_
m0l:_Collection_1_System_Collections_ICollection_get_IsSynchronized_m2228426193_gshared
oVi:__ZNK33X509KeyUsageExtension_t204210159113get__status_8Ev
OHo:_emscripten_glGetUniformiv__wrapper
Nco:__ZN6il2cpp2vm13ManagedObject14QueryInterfaceERK10Il2CppGuidPPv
BK:__ZNSt3__26vectorI24CompressedAnimationCurve13stl_allocatorIS1_L18MemLabelIdentifier26ELi16EEE6assignINS_11__wrap_iterIPS1_EEEENS_9enable_ifIXaasr21__is_forward_iteratorIT_EE5valuesr16is_constructibleIS1_NS_15iterator_traitsISB_E9referenceEEE5valueEvE4typeESB_SB_
$Dj:__ZN28StreamAsyncResult_t7802485129set_exc_3EP11Exception_t
JZ:__ZN11AudioSource4StopEb
_bn:__Z25Il2CppCodeGenWriteBarrierI18List_1_t2411569343EvPPT_S2_
lnh:_AppDomain_LoadAssembly_m1557889794
MBj:_BinaryWriter_Write_m340679106
pWm:__ZN24SingleU5BU5D_t144491125121GetAddressAtUncheckedEj
cjo:__ZN6il2cpp2os14WindowsRuntime13DeleteHStringEP15Il2CppHString__
bDb:__ZN18GlslGpuProgramGLESD2Ev
hnc:__ZN13RenderTexture14SetVolumeDepthEi
d9h:__ZN23GenericVirtFuncInvoker1IbiE6InvokeEPK10MethodInfoP12Il2CppObjecti
d0:__ZN11AudioSource23VirtualRedirectTransferER19StreamedBinaryWrite
huf:_EventInfo_get_EventHandlerType_m420690865
Kfl:__Z86RuntimeInvoker_Void_t1185182177_UInt16_t2177724958_SByte_t1669577662_SByte_t1669577662PFvvEPK10MethodInfoPvPS4_
oem:_Predicate_1_EndInvoke_m2572100896_gshared
Swc:__Z22LoadGpuProgramFromDataPKhS0_Rj
W6c:__ZN10Matrix4x4f8TransferI8JSONReadEEvRT_
IYb:__ZN13GfxDeviceGLES22AllocateBufferInternalERK13GfxBufferDesc
wSf:__ZN38CodeGenerator_t1096194562_StaticFields13set__module_1EP24ModuleBuilder_t731887691
cri:_Int32_System_IConvertible_ToByte_m3832391412_AdjustorThunk
Q4g:_PositionAsUV1_ModifyMesh_m4231919476
sAh:_Hashtable__ctor_m1941859523
mec:__Z26FindForwardLightsForObjectR13dynamic_arrayIhLj0EEPK11CulledLightjRK12ActiveLightsRK10RenderNodePK19ShaderPropertySheetbRK23FindForwardLightsParamsf
lYh:_Comparer_1_get_Default_m1947376189_gshared
v8g:_ScrollRect_set_horizontalScrollbarSpacing_m2209919081
X2b:__ZN25TransformFeedbackSkinning31CleanupTransformFeedbackShadersEv
wXk:_Type_GetTypeCodeInternal_m1968182887
Hkm:_TweenRunner_1_Init_m3026112660_gshared
bPa:__Z22scripting_object_unbox18ScriptingObjectPtr
GFf:_CriticalFinalizerObject__ctor_m3245424448
JEg:_AsyncResult_get_NextSink_m1844209137
Jtd:__ZNK20TextRenderingPrivate8FontImpl19GetCharacterAdvanceEjijfPj
p9j:_Array_InternalArray__ICollection_Add_TisUriScheme_t722425697_m3142345403_gshared
juo:_fmt_u
CPj:__ZN29ToBase64Transform_t255155705716set_m_disposed_0Eb
qEl:_Dictionary_2_Do_CopyTo_TisDictionaryEntry_t3123975638_TisDictionaryEntry_t3123975638_m1126292988_gshared
gno:__ZN6il2cpp8metadata25Il2CppGenericClassCompare7CompareEPK18Il2CppGenericClassS4_
zJd:__ZN2UI11CanvasGroup23VirtualRedirectTransferER19StreamedBinaryWrite
lLd:__ZN2UI29ResetVRScreenSpaceWarningFlagEv
Elf:__ZN24ModuleBuilder_t73188769118set_global_type_21EP23TypeBuilder_t1073948154
sAi:_MonoType_get_Assembly_m4290914179
vlj:_Double_System_IConvertible_ToByte_m410894149_AdjustorThunk
Axc:__ZN9ShaderLab7ProgramC2E10MemLabelIdi10ShaderType
qnc:__ZN14PreloadManager16UpdatePreloadingEv
aNa:__ZN12BaseRendererD2Ev
aqo:__ZN18Explode_t31522423320set_explosionTimer_4Ef
dOh:_InternalEnumerator_1_System_Collections_IEnumerator_Reset_m3545912565_gshared
kPc:__ZNSt3__26vectorI4PPtrI10MonoScriptE13stl_allocatorIS3_L18MemLabelIdentifier79ELi16EEE6insertENS_11__wrap_iterIPKS3_EERS9_
NXj:_String_LastIndexOf_m95398196
Lr:__ZN13ConstraintJob23ConstraintComponentDataC2ERK16LookAtConstraint
OQh:_InternalEnumerator_1_System_Collections_IEnumerator_Reset_m3355902602_AdjustorThunk
_Pi:__ZN26HttpWebRequest_t166943651513set_method_18EP8String_t
FHa:__ZN9Scripting5Unity11Collections39DeallocateOnJobCompletionAttributeProxy12CleanupProxyEv
sig:_PlayableAsset__ctor_m2395156306
k9e:__ZL79StandaloneInputModule_t2760469101_CustomAttributesCacheGenerator_m_SubmitButtonP21CustomAttributesCache
Izn:__ZN6il2cpp2os4File4ReadEPNS0_10FileHandleEPciPi
Gnb:__ZN19RenderBufferManager7Buffers14GarbageCollectEi
kga:__ZN13RuntimeStaticI13dynamic_arrayI22RenderingExtPluginDescLj0EELb0EE13StaticDestroyEPv
nrc:__ZNK21UnityDefaultAllocatorI17LowLevelAllocatorE8ContainsEPKv
Tun:__ZNSt3__213__vector_baseI6pollfdNS_9allocatorIS1_EEED2Ev
kVf:_RuntimeTypeHandle_Equals_m2857439487
Ve:_emscripten_get_main_loop_timing
TAn:__ZNK30dense_hashtable_const_iteratorINSt3__24pairIK10KeyWrapperINS1_IPK14Il2CppAssemblyP11Il2CppClassEEEjEES9_17ReflectionMapHashIS8_EN14dense_hash_mapIS9_jSD_NS9_14EqualsComparerINS0_8equal_toIS8_EEEENS0_9allocatorISB_EEE9SelectKeyESI_SK_EptEv
Shj:__ZN32Decimal_t2948259380_StaticFields14set_MinValue_0E19Decimal_t2948259380
bda:__GLOBAL__sub_I_Runtime_PreloadManager_0_cpp
ZGf:_SafeHandle_Finalize_m3866180675
KZn:__ZNK10KeyWrapperINSt3__24pairIPKcS3_EEEcvRKS4_Ev
C8a:__ZN24GenerateTypeTreeTransfer21TransferSTLStyleArrayINSt3__26vectorIN15QualitySettings14QualitySettingENS1_9allocatorIS4_EEEEEEvRT_17TransferMetaFlags
P9l:_ReadOnlyCollection_1_System_Collections_IList_Add_m2445024939_gshared
bGj:_MemoryStream_ToArray_m3911744835
x$h:_Enumerator_System_Collections_IDictionaryEnumerator_get_Entry_m859540448_AdjustorThunk
WNj:__ZN25SHA512Managed_t17873363399set_H5_12Ey
Dnl:__Z72RuntimeInvoker_Boolean_t97287965_RaycastHitU26_t2429360258_RuntimeObjectPFvvEPK10MethodInfoPvPS4_
umc:__ZN23ManagedAttributeManager52CallManagedGetParentTypeDisallowingMultipleInclusionE17ScriptingClassPtr
wib:__Z10AddGUIAxesR13dynamic_arrayI9InputAxisLj0EE
Tmo:__ZN6il2cpp2os5Event4WaitEjb
FXk:_Type_GetHashCode_m1947148725
TZj:__Z25Il2CppCodeGenWriteBarrierI26StringComparer_t3301955079EvPPT_S2_
Qac:__ZN13BatchRendererC2ER15RenderLoopStatsRK15RenderNodeQueuebbb
ENg:__ZN25ReturnMessage_t137698560818set__returnValue_4EP12Il2CppObject
Ral:__Z91RuntimeInvoker_Void_t1185182177_RuntimeObject_RuntimeObject_RuntimeObject_SByte_t1669577662PFvvEPK10MethodInfoPvPS4_
Aca:__GLOBAL__sub_I_Runtime_Graphics_0_cpp
NUm:_ToggleGroup_U3CActiveTogglesU3Em__1_m1947537119
Ppb:__ZNK2UI13RectTransform22GetTypeVirtualInternalEv
lp:getTempRet0
UTe:__ZL59LayerMask_t3493934918_CustomAttributesCacheGenerator_m_MaskP21CustomAttributesCache
Rln:__ZNK14dense_hash_setI10KeyWrapperIPK17Il2CppGenericInstEN6il2cpp8metadata21Il2CppGenericInstHashENS4_14EqualsComparerINS6_24Il2CppGenericInstCompareEEENSt3__29allocatorIS4_EEE8IdentityclERKS4_
ELh:_InternalEnumerator_1_MoveNext_m2234422530_gshared
oii:__Z25Il2CppCodeGenWriteBarrierI29TlsClientSettings_t2486039503EvPPT_S2_
aHi:__ZNK26AssemblyBuilder_t35988525016get_resources_16Ev
Vzn:__ZN6il2cpp2gc19AppendOnlyGCHashMapINSt3__24pairIPK14Il2CppAssemblyP11Il2CppClassEEP24Il2CppReflectionAssembly17ReflectionMapHashIS9_ENS2_8equal_toIS9_EEE10CopyValuesEPv
q0d:_BaseRaycaster_OnEnable_m2678466030
S8f:_UnityEventBase__ctor_m1851535676
eDl:_Array_Sort_TisVector4_t3319028937_m2797285308_gshared
RXd:__GLOBAL__sub_I_Runtime_Vehicles_0_cpp
oKj:_UnexceptionalStreamWriter_Write_m1834931241
SWe:__ZL58ProfilerEndFrame_t852348665_CustomAttributesCacheGeneratorP21CustomAttributesCache
Oof:__ZN31OpCodes_t126150456_StaticFields15set_Ldind_I1_69E17OpCode_t123070264
NTn:__ZN6il2cpp6icalls8mscorlib6System9ThreadingL21lookup_cached_cultureEP12Il2CppThreadi
$ho:__ZN6il2cpp2os11EventHandleD2Ev
OLg:__ZNK26MethodResponse_t214751120119get__callContext_11Ev
Qhc:__ZN18DeferredRenderLoopD2Ev
z6m:_AnimationLayerMixerPlayable__cctor_m4086299972
aIa:__ZNK16TypeTreeIterator4NameEv
ATe:__ZL121GraphicsFormatUtility_t3491748452_CustomAttributesCacheGenerator_GraphicsFormatUtility_GetRenderTextureFormat_m2347522639P21CustomAttributesCache
aEl:_Array_swap_TisUICharInfo_t75501106_m3934244159_gshared
X9f:_GraphicsFormatUtility_GetRenderTextureFormat_m2347522639
due:__ZL40UIntPtr_t_CustomAttributesCacheGeneratorP21CustomAttributesCache
vna:__ZN15FileSystemEntry3SetEPKc
THi:_ConstructorBuilder_Invoke_m3010446651
Gae:_AspectRatioFitter_get_aspectMode_m3735191157
Fhk:_BigInteger_ToString_m570257729
tso:_U3CChangeColorU3Ec__Iterator0__ctor_m581635756
DSi:_IPv6Address_set_ScopeId_m3907190992
A2l:_ReadOnlyCollection_1_System_Collections_Generic_IListU3CTU3E_Insert_m568455025_gshared
JY:__ZN20SoundChannelInstance15ParameterBuffer5ApplyEPN4FMOD7ChannelE
qSi:_IPv6Address__ctor_m4117281080
Ndn:__ZN33NativeMethodAttribute_t418742819342set_U3CHasExplicitThisU3Ek__BackingField_4Eb
Gck:__ZNK45MSCompatUnicodeTable_t1453885583_StaticFields12get_level1_3Ev
ncj:_Convert_ToInt64_m2075293963
Gtd:__ZN20TextRenderingPrivate19NativeTextGenerator9InsertTabEv
lzo:_sbrk
T2f:_Bounds_GetHashCode_m1844059663
kXl:_Collection_1_System_Collections_Generic_ICollectionU3CTU3E_get_IsReadOnly_m1032650589_gshared
yOb:__Z18Transfer_BlittableI18StreamedBinaryReadLb1E4AABBEvRK29SerializationCommandArgumentsR31RuntimeSerializationCommandInfo
nro:__ZNK23GameManager_t153652365422get_text_gamePaused_14Ev
Owg:__ZN25ConfigHandler_t419243721622set_currentClientUrl_4EP8String_t
ASd:__ZN11UnityEngine15PlatformWrapper24GetRuntimePlatformStringEv
Kk:_glIsEnabled
bpb:__ZN15CacheWriterBaseD2Ev
oHi:_DerivedType__ctor_m1853298054
$Fb:__Z25scripting_class_get_image17ScriptingClassPtr
Qyh:_CaseInsensitiveComparer_Compare_m1224120810
mMk:_List_1_RemoveAt_m2730968292_gshared
Xkb:__ZNSt3__26vectorIN4core12basic_stringIcNS1_20StringStorageDefaultIcEEEE13stl_allocatorIS5_L18MemLabelIdentifier13ELi16EEEC2INS_11__wrap_iterIPS5_EEEET_SE_RKS8_PNS_9enable_ifIXaasr21__is_forward_iteratorISE_EE5valuesr16is_constructibleIS5_NS_15iterator_traitsISE_E9referenceEEE5valueEvE4typeE
Zf:_emscripten_glDrawElementsInstanced
bE:__ZN26AnimatorControllerPlayable27SetupStateMachineBehavioursEv
T4j:_Array_InternalArray__IEnumerable_GetEnumerator_TisSlot_t3975888750_m1869932007_gshared
mPi:__ZN25FtpWebRequest_t157781830513set_binary_10Eb
vRe:__ZL79Camera_t4157153871_CustomAttributesCacheGenerator_Camera_RaycastTry_m3913529496P21CustomAttributesCache
V$g:_LayoutGroup_get_preferredWidth_m3816902260
lXa:__ZN18JobBatchDispatcherD2Ev
Kpb:__ZN9Transform17MainThreadCleanupEv
mgo:_GC_clear_hdr_marks
CCo:_emscripten_glCreateShader__wrapper
J5j:_Array_InternalArray__IEnumerable_GetEnumerator_TisUIVertex_t4057497605_m535880494_gshared
roh:__ZNK31ApplicationIdentity_t191773535615get__fullName_0Ev
mUm:__ZNK22ToggleGroup_t12383799022get_m_AllowSwitchOff_4Ev
nwd:_cff_fd_select_get
NCh:__ZNK43U3CGetEnumeratorU3Ec__Iterator0_t375079332416get_U3CiU3E__0_0Ev
fIo:_emscripten_glTexParameteri__wrapper
ffh:_Text_set_resizeTextForBestFit_m4095249125
RYj:__ZN33Encoding_t1523322056_StaticFields18set_i18nAssembly_5EP10Assembly_t
fWi:_OidEnumerator_MoveNext_m3138911739
wWl:__ZNK24Collection_1_t166750607510get_list_0Ev
Fpl:__Z53RuntimeInvoker_Boolean_t97287965_Keyframe_t4206410242PFvvEPK10MethodInfoPvPS4_
Hg:_emscripten_glGetShaderiv
vWk:__ZNK33TimeZone_t2038656743_StaticFields20get_timezone_check_2Ev
Dfm:_InvokableCall_1_add_Delegate_m1011133128_gshared
c_:__ZN4FMOD6System10getVersionEPj
M0h:__ZN26ShimEnumerator_t196554029232get_address_of_host_enumerator_0Ev
l6a:__Z26GetDecompressTextureFormat13TextureFormat
GSi:_IPAddress_Hash_m3747500957
jV:__ZN9Scripting11UnityEngine2XR5Tango13PoseDataProxy12CleanupProxyEv
vrh:__ZNK34AttributeUsageAttribute_t29087731815get_inherited_2Ev
mch:_Selectable_set_animationTriggers_m2970345687
fQm:__ZN26GUIScrollGroup_t152332902120set_calcMaxHeight_30Ef
odh:__ZNK18Slider_t390372890219get_m_HandleRect_19Ev
y4c:__ZN9JSONWrite8TransferIN4math12int2_storageEEEvRT_PKc17TransferMetaFlags
ssd:__ZN13TextRendering4Font13AwakeFromLoadE17AwakeFromLoadMode
Ltj:_CompareInfo_LastIndexOf_m2688553706
nmj:_Enum__ctor_m3602080049
jyb:__ZN9GfxDevice21ReleaseSharedMeshDataEP14SharedMeshData
_Nb:__Z29Transfer_Blittable_ArrayFieldI19StreamedBinaryWritehEvRT_R9ArrayInfoRK23StaticTransferFieldInfo
a7d:_MouseState__ctor_m1467839005
U2g:__ZN20MatEntry_t295710709215set_writeMask_7Ei
WJm:_Uri_IsDomainAddress_m2867513594
pfk:__ZN25SortKeyBuffer_t294527527020get_address_of_l2b_9Ev
_jb:__ZNSt3__27__sort5IRNS_6__lessINS_4pairIPKN5Unity4TypeE7Hash128EES8_EEPS8_EEjT0_SC_SC_SC_SC_T_
EJe:__ZL79Convert_t2465617642_CustomAttributesCacheGenerator_Convert_ToDouble_m2949593046P21CustomAttributesCache
LIf:__Z25Il2CppCodeGenWriteBarrierI24ObjectU5BU5D_t2843939325EvPPT_S2_
kKl:_List_1_Insert_m1987928029_gshared
tke:_Dropdown_CreateItem_m2954407740
Noe:__ZNK34ReflectionMethodsCache_t210321106215get_raycast3D_0Ev
bDn:__ZNK30dense_hashtable_const_iteratorINSt3__24pairIK10KeyWrapperIPK10Il2CppTypeEjEES6_N6il2cpp8metadata14Il2CppTypeHashEN14dense_hash_mapIS6_jSB_NS6_14EqualsComparerINSA_26Il2CppTypeEqualityComparerEEENS0_9allocatorIS8_EEE9SelectKeyESF_SH_EptEv
$Xe:__ZL50Cubemap_t1972384409_CustomAttributesCacheGeneratorP21CustomAttributesCache
cZi:_X509Chain_ProcessCrlExtensions_m236234529
ffk:__ZNK19Context_t174453113017get_PrevSortKey_6Ev
w4m:__ZNK31Canvas_t3310196443_StaticFields24get_willRenderCanvases_4Ev
$oj:__ZNK31MonoIO_t2601436415_StaticFields27get_InvalidFileAttributes_0Ev
din:__ZN6il2cpp2vm5Class40GetInterfaceInvokeDataFromVTableSlowPathEPK12Il2CppObjectPK11Il2CppClassj
Ocf:__ZL85ScrollRect_t4137855814_CustomAttributesCacheGenerator_m_HorizontalScrollbarVisibilityP21CustomAttributesCache
gUh:_InternalEnumerator_1_Dispose_m3790132913_gshared
qpe:_GridLayoutGroup_set_startAxis_m837106447
wxh:__ZNK40SynchronizedArrayListWrapper_t228375709516get_m_SyncRoot_6Ev
bJh:_InternalEnumerator_1_System_Collections_IEnumerator_Reset_m521819017_gshared
Kzg:_RealProxy_get_ObjectIdentity_m2790771985
lyg:_RemotingConfiguration_RegisterChannelTemplate_m3105688054
Svc:__ZN6Shader8TransferI19StreamedBinaryWriteEEvRT_
uRa:__ZN8Material28UpdateHashesOnPropertyChangeEN9ShaderLab16FastPropertyNameE
UIg:__ZNK21MethodCall_t86107814024get_ExternalProperties_9Ev
JRi:__ZNK26HttpWebRequest_t166943651514get_timeout_25Ev
k7h:_Locale_GetText_m3520169047
XVc:__Z53Register_UnityEngine_SortingLayer_GetLayerValueFromIDv
D9h:_ASN1_GetBytes_m1968380955
UEb:__Z18Transfer_BlittableI14SafeBinaryReadLb1E8Vector4fEvRK29SerializationCommandArgumentsR31RuntimeSerializationCommandInfo
k0:__ZN11AudioSource12AddToManagerEv
Dji:__ZNK26RecordProtocol_t375904970117get_innerStream_1Ev
cxn:__ZN6il2cpp6icalls8mscorlib6SystemL20GetMethodsByNameImplINS_5utils10functional6FilterINSt3__212basic_stringIcNS7_11char_traitsIcEENS7_9allocatorIcEEEENS4_13VmStringUtils21CaseSensitiveComparerEEEEEP11Il2CppArrayPK10Il2CppTypejRKT_
h_n:__ZN6il2cpp2vm5Image13ClassFromNameEPK11Il2CppImagePKcS6_
CAo:dynCall_vdddddd
dvc:__ZN24GenerateTypeTreeTransfer21TransferSTLStyleArrayINSt3__26vectorIN9ShaderLab14SerializedPassENS1_9allocatorIS4_EEEEEEvRT_17TransferMetaFlags
Yxi:__Z25Il2CppCodeGenWriteBarrierI34AttributeUsageAttribute_t290877318EvPPT_S2_
_ia:__ZL32MarkLevelGameManagerDependenciesR27GarbageCollectorThreadState
d$m:__ZL25UnresolvedVirtualCall_108P12Il2CppObjectS0_S0_28StreamingContext_t3711869237PK10MethodInfo
_Zb:__ZNK13GfxDeviceGLES26HasActiveRandomWriteTargetEv
$On:__GLOBAL__sub_I_Thread_cpp
Yln:__ZN15dense_hashtableI10KeyWrapperIPK17Il2CppGenericInstES4_N6il2cpp8metadata21Il2CppGenericInstHashEN14dense_hash_setIS4_S7_NS4_14EqualsComparerINS6_24Il2CppGenericInstCompareEEENSt3__29allocatorIS4_EEE8IdentityESB_SE_E4swapERSH_
edi:__ZNK22RSAManaged_t17570938207get_q_8Ev
awe:__ZL54_MemberInfo_t3922476713_CustomAttributesCacheGeneratorP21CustomAttributesCache
D6h:__ZN24Dictionary_2_t196881949518set_touchedSlots_8Ei
vJo:_glGetActiveUniformsiv__wrapper
mql:__Z54RuntimeInvoker_Int32_t2950945753_LabelFixup_t858502054PFvvEPK10MethodInfoPvPS4_
cfg:_Mesh_GetIndices_m2873123901
qcd:__ZN17Physics2DSettings21SetAutoSyncTransformsEbb
tvn:__ZNSt3__214__split_bufferIP12Il2CppThreadRNS_9allocatorIS2_EEED2Ev
A6i:__ZNK17Stack_t232966228014get_capacity_3Ev
EO:__Z20AnimationEventToMonoRK14AnimationEventR18MonoAnimationEvent
bNb:__Z18Transfer_BlittableI19StreamedBinaryWriteLb0EdEvRK29SerializationCommandArgumentsR31RuntimeSerializationCommandInfo
kcn:_RaycastHit2D_get_collider_m1549426026_AdjustorThunk
wnl:__Z106RuntimeInvoker_Void_t1185182177_Single_t1397266774_Single_t1397266774_Single_t1397266774_Int32_t2950945753PFvvEPK10MethodInfoPvPS4_
Jge:_FloatTween_set_targetValue_m3604919944_AdjustorThunk
Hno:__ZN16Bomb_t378866992119set_explosionType_8EP8String_t
TVg:__ZNK22InputField_t376291743118get_m_OnEndEdit_30Ev
Hrm:__ZN21TlsStream_t236545396510set_temp_4EP22ByteU5BU5D_t4116647657
s3d:__ZN38ExecuteEvents_t3484638744_StaticFields27set_U3CU3Ef__mgU24cache5_24EP27EventFunction_1_t3587542510
I6d:_PointerEventData_get_dragging_m746831934
q5n:__ZNK30dense_hashtable_const_iteratorINSt3__24pairIK10KeyWrapperIPcES3_EES4_N6il2cpp5utils15PassThroughHashIS3_EEN14dense_hash_mapIS4_S3_SA_NS4_14EqualsComparerINS0_8equal_toIS3_EEEENS0_9allocatorIS6_EEE9SelectKeyESF_SH_EdeEv
oXk:_Type_get_TypeHandle_m160082026
E8l:_ReadOnlyCollection_1_System_Collections_IEnumerable_GetEnumerator_m2781605075_gshared
bta:__ZZN15DirectorManager15InitializeClassEvEN52PreLateUpdateDirectorUpdateAnimationBeginRegistrator7ForwardEv
i1j:_Array_get_swapper_TisCustomAttributeNamedArgument_t287865710_m4254011335_gshared
moe:_Graphic_RegisterDirtyMaterialCallback_m106898453
FOm:_GUILayoutEntry_get_margin_m3174861737
EJa:__ZN4PPtrI6SpriteE8TransferI14SafeBinaryReadEEvRT_
rwk:_EqualityComparer_1_System_Collections_IEqualityComparer_Equals_m1672604045_gshared
Q_m:__ZL24UnresolvedVirtualCall_93P12Il2CppObjectS0_S0_S0_S0_PK10MethodInfo
s7f:__ZNK25ArgumentCache_t218795839938get_m_ObjectArgumentAssemblyTypeName_1Ev
aPi:__ZNK25FileWebRequest_t59185888521get_connectionGroup_8Ev
uuc:__ZNSt3__26vectorIN9ShaderLab14SerializedPassENS_9allocatorIS2_EEE8__appendEj
hvl:__Z37RuntimeInvoker_Enumerator_t3436819725PFvvEPK10MethodInfoPvPS4_
ljg:_PlayableOutputHandle_op_Equality_m388301694
NYj:_Encoding_get_ISOLatin1_m2107621369
ncd:__ZNK16PhysicsManager2D21GetAutoSyncTransformsEv
L8h:_BigInteger_op_Inequality_m2697143438
hYf:__ZN24DESTransform_t408890549918set_keySchedule_16EP22ByteU5BU5D_t4116647657
bUe:__ZL89Mathf_t3464937446_CustomAttributesCacheGenerator_Mathf_SmoothDamp_m394423605____maxSpeed4P21CustomAttributesCache
Yad:__ZN12b2WheelJoint24SolveVelocityConstraintsERK12b2SolverData
Gmf:_ModuleBuilderTokenGenerator_GetToken_m1396347424
Zte:__ZL72IntPtr_t_CustomAttributesCacheGenerator_IntPtr_op_Inequality_m3063970704P21CustomAttributesCache
lTb:__ZNK25PathNamePersistentManager30PathIDToFileIdentifierInternalEi
TRc:__Z33Camera_CUSTOM_RaycastTry_InjectedP12Il2CppObjectRK3Rayfi
Xld:__ZN10Collider2D8TransferI24GenerateTypeTreeTransferEEvRT_
Yu:__ZN7mecanim8skeleton18CreateSkeletonPoseIN4math7affineXEEEPNS0_13SkeletonPoseTIT_EEPKNS0_8SkeletonER20RuntimeBaseAllocator
Pjk:_BitConverterLE_GetBytes_m2590852453
ryh:_BitArrayEnumerator__ctor_m2359341397
wGk:_Enumerator_MoveNext_m1177880931_gshared
fVf:__ZNK29RuntimeTypeHandle_t302751541511get_value_0Ev
zMg:_MonoMethodMessage_System_Runtime_Remoting_Messaging_IInternalMessage_get_TargetIdentity_m929239303
Ypl:__Z102RuntimeInvoker_Int32_t2950945753_RuntimeObject_Vector2_t2156229523_Int32_t2950945753_Int32_t2950945753PFvvEPK10MethodInfoPvPS4_
Rjn:__ZN30dense_hashtable_const_iteratorINSt3__24pairIK10KeyWrapperIPKcEP11Il2CppClassEES5_N6il2cpp5utils11StringUtils12StringHasherIS4_EEN14dense_hash_mapIS5_S8_SE_NS5_14EqualsComparerINSB_13VmStringUtils21CaseSensitiveComparerEEENS0_9allocatorIS9_EEE9SelectKeyESJ_SL_E30advance_past_empty_and_deletedEv
Q0e:__ZL73g_UnityEngine_TextRenderingModule_Assembly_CustomAttributesCacheGeneratorP21CustomAttributesCache
_sj:__ZN27NumberFormatInfo_t43587713829set_numberDecimalSeparator_17EP8String_t
Xla:__ZN16ScriptingManager27NativeTypeForScriptingClassE17ScriptingClassPtr
M_k:_UInt64_System_IConvertible_ToDateTime_m3434604642
iXk:_Type_get_IsSerializable_m1040556850
dYi:_X509ChainElementEnumerator_MoveNext_m3940594045
UAd:_get_sfnt_table
dCl:_Array_Resize_TisUIVertex_t4057497605_m1219201596_gshared
lfm:_CachedInvokableCall_1_Invoke_m812947504_gshared
hze:__ZL55StreamWriter_t1266378904_CustomAttributesCacheGeneratorP21CustomAttributesCache
mjo:__ZN6il2cpp5utilsL9ReadFloatEPKc
Kcb:__ZN8Renderer20RendererAddedToSceneEv
cOa:__ZN6Camera23VirtualRedirectTransferER18StreamedBinaryRead
sjc:__ZL22ScheduleSceneNodesJobsP25ScheduleSceneNodesJobDataj
li:_emscripten_set_canvas_size
Fme:_Graphic_SetVerticesDirty_m2124914069
qNl:_List_1_CheckMatch_m754192497_gshared
$qj:_CultureInfo__ctor_m3285927757
z3g:_MaskableGraphic_get_rootCanvasRect_m3492154629
Wtm:__ZNK23DeriveBytes_t149291513611get__salt_6Ev
v4c:__ZN9JSONWrite8TransferI13dynamic_arrayI11QuaternionfLj0EEEEvRT_PKc17TransferMetaFlags
j$e:__ZL120SupportedRenderingFeatures_t353898663_CustomAttributesCacheGenerator_U3CrendererSupportsReceiveShadowsU3Ek__BackingFieldP21CustomAttributesCache
_Bl:_Array_Resize_TisRaycastResult_t3360306849_m1811054291_gshared
gej:__ZN30CultureAwareComparer_t3064613917set__ignoreCase_4Eb
j3l:_ReadOnlyCollection_1_System_Collections_Generic_ICollectionU3CTU3E_get_IsReadOnly_m3152485890_gshared
buc:__ZNSt3__26vectorIN9ShaderLab20SerializedSubProgramENS_9allocatorIS2_EEE8__appendEj
aea:__ZN20DynamicHeapAllocatorI17LowLevelAllocatorE8AllocateEji
hFh:__ZN31InternalEnumerator_1_t2465572919set_idx_1Ei
ybc:__ZN20DynamicPropertySheet15SetVectorQueuedERKN9ShaderLab16FastPropertyNameERK8Vector4fN19ShaderPropertySheet8SetFlagsE
KNl:_List_1_get_Item_m2254585396_gshared
X6m:_AnimatorControllerPlayable_SetHandle_m2260644454
X5g:__Z25Il2CppCodeGenWriteBarrierI28Raycast2DCallback_t768590915EvPPT_S2_
YM:__ZN7mecanim9animation22EvaluateAvatarRetargetEPKNS0_14AvatarConstantEPKNS0_11AvatarInputEPNS0_12AvatarOutputEPNS0_12AvatarMemoryEPNS0_15AvatarWorkspaceEb
cRh:_InternalEnumerator_1_System_Collections_IEnumerator_Reset_m996811230_AdjustorThunk
arl:__Z56RuntimeInvoker_Void_t1185182177_KeyValuePair_2_t71524366PFvvEPK10MethodInfoPvPS4_
T3e:__ZL59GUISkin_t1244372282_CustomAttributesCacheGenerator_m_windowP21CustomAttributesCache
V2c:__ZL26Transfer_SimpleNativeClassI9JSONWrite10RectOffsetLb0EEvRK29SerializationCommandArgumentsR31RuntimeSerializationCommandInfo
Ifo:_GC_push_conditional
xH:__ZN7mecanim9animation4Clip8TransferI8BlobSizeEEvRT_
zeb:__ZN17GenericDynamicVBO10AllocateVBEjR21DynamicVBOChunkHandle
l6e:__ZL63RaycastHit2D_t2279581989_CustomAttributesCacheGenerator_m_PointP21CustomAttributesCache
efj:_DBNull_ToString_m3638608738
i0n:__ZN30dense_hashtable_const_iteratorI10KeyWrapperIP18Il2CppGenericClassES3_N6il2cpp8metadata22Il2CppGenericClassHashEN14dense_hash_setIS3_S6_NS3_14EqualsComparerINS5_25Il2CppGenericClassCompareEEENSt3__29allocatorIS3_EEE8IdentityESA_SD_EppEv
oyh:_BitArray_Clone_m3537018332
wMb:__Z35Transfer_Blittable_FixedBufferFieldI19StreamedBinaryWritexEvRK29SerializationCommandArgumentsR31RuntimeSerializationCommandInfo
FLf:_ObjectRecord_UnchainFixup_m3191243952
jOj:__ZNK25SHA512Managed_t178733633916get_byteCount1_6Ev
Gie:__ZN20Dropdown_t227439122523set_m_OnValueChanged_25EP25DropdownEvent_t4040729994
xrm:_TlsStream_get_CanWrite_m16389328
UKd:__Z15GetUIModuleSpecv
M3b:__Z22TextureIdMapGLES_Alias9TextureIDS_
kFc:__Z31Input_CUSTOM_GetMouseButtonDowni
vNb:__Z29Transfer_Blittable_ArrayFieldI19StreamedBinaryWritejEvRT_R9ArrayInfoRK23StaticTransferFieldInfo
vqb:__ZNK9Transform16GetLocalPositionEv
F$j:_EncoderExceptionFallbackBuffer_get_Remaining_m1573636148
vAi:_MonoType_get_BaseType_m1098640416
Vlb:__ZN13LoadOperation19IntegrateTimeSlicedEi
Urm:_TlsStream_Read_m3392972801
v5a:__ZN18AsyncUploadManager16QueueUploadAssetEPKcjjjRK18AsyncUploadHandler
_zk:__ZNK43EqualityComparer_1_t3827726111_StaticFields14get__default_0Ev
isg:_TouchScreenKeyboard_get_status_m3936201565
pZj:__ZNK33Encoding_t1523322056_StaticFields30get_utf8EncodingWithMarkers_20Ev
i_b:__ZN13GfxDeviceGLES22DispatchComputeProgramE12ObjectHandleI18ComputeProgram_TagPvE15ComputeBufferIDj
Tso:__ZN34RandomTextColorNoPause_t184034818016set_textObject_5EP16Text_t1901882714
Ong:_Transform_get_localToWorldMatrix_m4155710351
w5b:__ZN20DefaultGfxDeviceImpl32InitStereoGlobalsBuffersPlatformEiijPKv
uJe:__ZL77Convert_t2465617642_CustomAttributesCacheGenerator_Convert_ToChar_m1604365259P21CustomAttributesCache
f1j:_Latin1Encoding_GetString_m254210343
Cnb:__Z17TransformAABBSlowRK4AABBRK10Matrix4x4fRS_
b4j:_SetPropertyUtility_SetStruct_TisChar_t3634460470_m4284602558_gshared
gqh:_Array_combsort_m4052486289
$_:__ZN24AudioScriptBufferManager27InitialCompleteDomainReloadEv
_Uh:__ZNK32InternalEnumerator_1_t226158272911get_array_0Ev
Fsc:__ZN9ShaderLab21SerializedShaderState8TransferI14SafeBinaryReadEEvRT_
vnj:_Environment_GetWindowsFolderPath_m1738399646
lTl:_Queue_1_System_Collections_Generic_IEnumerableU3CTU3E_GetEnumerator_m2263220760_gshared
JPl:_List_1_Sort_m378918663_gshared
hzh:__ZNK43CaseInsensitiveHashCodeProvider_t196262911912get_m_text_2Ev
nxd:_cf2_stack_pushInt
Tvd:__ZNSt3__26__treeINS_12__value_typeIN20TextRenderingPrivate7FontRefEP11FT_FaceRec_EENS_19__map_value_compareIS3_S6_NS_4lessIS3_EELb1EEENS_9allocatorIS6_EEE7destroyEPNS_11__tree_nodeIS6_PvEE
QM:__ZN8Animator19FireAnimationEventsERNS_11AnimatorJobE
Hmk:__ZN30PKCS1_t1505584676_StaticFields15set_emptySHA1_0EP22ByteU5BU5D_t4116647657
Sfm:_InvokableCall_1_Invoke_m891112188_gshared
X4d:__ZN25RaycastResult_t336030684918set_m_GameObject_0EP22GameObject_t1113636619
eXf:_CryptoConfig_EncodeOID_m2635914623
y0a:__ZN15SerializeTraitsINSt3__24pairIN4core12basic_stringIcNS2_20StringStorageDefaultIcEEEES6_EEE8TransferI24GenerateTypeTreeTransferEEvRS7_RT_
DFo:b89
CFo:b88
sFo:b81
cdn:__ZL6add192yyyyyyPyS_S_
y3b:__ZN7ApiGLES19CreateSparseTextureEjj14GraphicsFormatiiiiRiS1_S1_
Lma:__ZN18ResourceImageGroup7CleanupEv
TUn:__ZN6il2cpp6icalls8mscorlib6SystemL12AssignSignedIxEEvNS2_17WidenedValueUnionEPv14Il2CppTypeEnumjj
yFo:b84
BFo:b87
KZj:_String_CharCopy_m3838781968
wq:__ZN11Quaternionf8TransferI24GenerateTypeTreeTransferEEvRT_
yNg:_RemotingSurrogateSelector_GetSurrogate_m3900875713
Hfl:__Z69RuntimeInvoker_Boolean_t97287965_UInt16_t2177724958_Int16_t2552820387PFvvEPK10MethodInfoPvPS4_
yck:__ZNK45MSCompatUnicodeTable_t1453885583_StaticFields15get_cjkJAlv1_12Ev
R5l:_ReadOnlyCollection_1_System_Collections_IList_get_IsReadOnly_m3626439112_gshared
zih:__ZN26X509Certificate_t48924302416set_signature_11EP22ByteU5BU5D_t4116647657
VXa:__ZN8Playable19SetOutputConnectionEPS_i
_xc:__Z61RenderTexture_CUSTOM_INTERNAL_CALL_SetRenderTextureDescriptorP12Il2CppObjectRK17RenderTextureDesc
Jin:__ZN15dense_hashtableINSt3__24pairIK10KeyWrapperIPK11Il2CppClassEPKcEES6_N6il2cpp5utils11PointerHashIS3_EEN14dense_hash_mapIS6_S9_SE_NS6_14EqualsComparerINS0_8equal_toIS5_EEEENS0_9allocatorISA_EEE9SelectKeyESJ_SL_EC2ERKSO_j
Bj:_glDeleteShader
eBa:__ZL57__ManagedRegistrationHelperFunction_ShaderKeywordSetProxyPv
WBa:__ZN9Scripting11UnityEngine32UnitySynchronizationContextProxy9InitProxyEv
Owa:__ZN6prcoreL17RemapGenericFloatI15TexFormatRGHalf16TexFormatRGFloatEEvPKNS_9InnerInfoE
RCl:_Array_Sort_TisUICharInfo_t75501106_m128665067_gshared
zzd:_otv_GSUB_validate
dyl:_RSAPKCS1SignatureDeformatter_SetHashAlgorithm_m1602190713
tmj:_Enum_System_IConvertible_ToByte_m1219166845
STh:_InternalEnumerator_1_Dispose_m28687982_gshared
a_c:__ZN9Scripting11UnityEngine19GUILayoutEntryProxy12CleanupProxyEv
dYd:__ZL61__ManagedRegistrationHelperFunction_VideoAudioOutputModeProxyPv
YMl:_List_1_System_Collections_ICollection_get_IsSynchronized_m3630704857_gshared
bsg:_Touch_get_type_m960232264_AdjustorThunk
Jj:_glDisable
FTf:__ZN47SerializationCallbacks_t2570604627_StaticFields16set_cache_lock_5EP12Il2CppObject
aEj:__ZN28StreamAsyncResult_t78024851215set_completed_1Eb
Ixc:__Z27scripting_add_internal_callPKcPKv
LNm:__ZN26GUILayoutGroup_t215778969528set_m_UserSpecifiedHeight_21Eb
t$l:__ZN21InterfaceFuncInvoker1Ib20UIVertex_t4057497605E6InvokeEjP11Il2CppClassP12Il2CppObjectS0_
USg:__ZN22InputField_t376291743128set_m_CaretSelectPosition_41Ei
S$h:_Enumerator_Dispose_m1360775770_gshared
NRa:__Z17GetPlayerSettingsv
nuc:__ZNSt3__26vectorIN9ShaderLab20SerializedSubProgram16SamplerParameterENS_9allocatorIS3_EEE6assignIPS3_EENS_9enable_ifIXaasr21__is_forward_iteratorIT_EE5valuesr16is_constructibleIS3_NS_15iterator_traitsISA_E9referenceEEE5valueEvE4typeESA_SA_
ov:__ZN34BlobWriteTransferSTLStyleArrayImplI22OffsetPtrArrayTransferIiEEclERS1_17TransferMetaFlagsR9BlobWrite
Sof:__ZN31OpCodes_t126150456_StaticFields15set_Ldind_I4_73E17OpCode_t123070264
Ixf:_MonoField_get_FieldHandle_m3729647377
v7g:_ScrollRect_get_content_m2477524320
K$h:_Enumerator_MoveNext_m1556953412_AdjustorThunk
Vy:__ZN26AnimatorControllerPlayable18SetLayerAutoWeightEv
VOd:__Z44Register_UnityEngine_Canvas_get_pixelPerfectv
cIm:_Literal_GetAnchorInfo_m810577400
teo:_GC_alloc_large
mMd:__ZN2UI14CanvasRenderer12SyncMaterialENS0_8SyncFlagE
SQh:__ZNK32InternalEnumerator_1_t249304194811get_array_0Ev
MIj:_StreamWriter_Write_m1660535366
Hrl:__Z66RuntimeInvoker_Void_t1185182177_Int32_t2950945753_Link_t3209266973PFvvEPK10MethodInfoPvPS4_
Oko:__ZN6il2cpp2vm9Parameter30GetDefaultParameterValueObjectEPK10MethodInfoPK13ParameterInfoPb
Wan:__ZNK27ContactFilter2D_t380520344117get_useTriggers_0Ev
KPk:_UTF8Encoding_GetByteCount_m4152118078
UQi:_ServicePoint_set_UseNagleAlgorithm_m1374731041
Zlk:_KeyPairPersistence__CanSecure_m3516574278
cb:invoke_iiiiiiiii
Vnh:__ZNK21Hashtable_t185388976611get_table_4Ev
l8k:__Z95RuntimeInvoker_Void_t1185182177_RuntimeObject_RuntimeObject_Int32_t2950945753_SByte_t1669577662PFvvEPK10MethodInfoPvPS4_
hqo:__ZNK28Collider2DU5BU5D_t169396929514GetAtUncheckedEj
l0f:_MD5CryptoServiceProvider_Dispose_m3502499818
VBn:__ZN15dense_hashtableINSt3__24pairIK10KeyWrapperINS1_IPK9FieldInfoP11Il2CppClassEEEjEES9_17ReflectionMapHashIS8_EN14dense_hash_mapIS9_jSD_NS9_14EqualsComparerINS0_8equal_toIS8_EEEENS0_9allocatorISB_EEE9SelectKeyESI_SK_E21fill_range_with_emptyEPSB_SO_
CBl:_Array_InternalArray__set_Item_TisRaycastHit2D_t2279581989_m3076882241_gshared
dGf:__ZN20GCHandle_t335143818712set_handle_0Ei
UWa:__ZN12LightManager28IsLightTransformDataUpToDateEPK5Light
Hdk:__ZN26SimpleCollator_t287783472916set_frenchSort_3Eb
AJa:__ZN4PPtrI9Texture2DE8TransferI14SafeBinaryReadEEvRT_
Xue:__ZL74RuntimeArray_CustomAttributesCacheGenerator_Array_BinarySearch_m3171087170P21CustomAttributesCache
wue:__ZL72Enum_t4135868527_CustomAttributesCacheGenerator_Enum_ToObject_m122225012P21CustomAttributesCache
GBd:_UNITY_tt_face_done_kern
L2g:__ZNK20MatEntry_t295710709214get_readMask_6Ev
UPg:_ObjRef_GetObjectData_m270012899
hCn:__ZN15dense_hashtableINSt3__24pairIK10KeyWrapperIPK10Il2CppTypeEjEES6_N6il2cpp8metadata14Il2CppTypeHashEN14dense_hash_mapIS6_jSB_NS6_14EqualsComparerINSA_26Il2CppTypeEqualityComparerEEENS0_9allocatorIS8_EEE9SelectKeyESF_SH_E12resize_deltaEjj
hDh:_ArrayReadOnlyList_1_RemoveAt_m2104218585_gshared
OQj:__Z25Il2CppCodeGenWriteBarrierI26X509Certificate_t489243024EvPPT_S2_
Pmf:__Z37il2cpp_codegen_marshal_allocate_arrayIhEPT_j
j5j:_Array_InternalArray__IEnumerable_GetEnumerator_TisParameterModifier_t1461694466_m3675077728_gshared
Tid:__ZN35b2InitializeVelocityConstraintsTaskD2Ev
AIo:_glStencilFuncSeparate__wrapper
mcf:__ZL60RawImage_t3182918964_CustomAttributesCacheGenerator_m_UVRectP21CustomAttributesCache
i1l:__ZN21InterfaceFuncInvoker1I19Vector3_t3722313464iE6InvokeEjP11Il2CppClassP12Il2CppObjecti
WTb:__Z19scripting_gc_enablev
oSh:_InternalEnumerator_1_get_Current_m2907722321_gshared
r6b:__ZZ23InitPlayerLoopCallbacksvEN41InitializationPlayerUpdateTimeRegistrator7ForwardEv
LOc:__ZN11UTF16StringC2ERKS_10MemLabelId
MVk:_TimeSpan_Equals_m3956248018_AdjustorThunk
lpc:__Z29StdTemplateConversionFunctionIihEbPvR14SafeBinaryRead
kUh:_InternalEnumerator_1_get_Current_m3792939945_AdjustorThunk
cOd:__Z55Register_UnityEngine_CanvasRenderer_DisableRectClippingv
eWk:_TimeSpan_Subtract_m1264203589_AdjustorThunk
Qoo:_DontDestroyOnLoad__ctor_m3560632095
Efd:__ZN19OverlapPointQuery2D14InitializeAABBER6b2AABB
eym:__ZNK19X509Crl_t114876738816get_nextUpdate_3Ev
hMb:__Z18Transfer_BlittableI19StreamedBinaryWriteLb0EN4math12int2_storageEEvRK29SerializationCommandArgumentsR31RuntimeSerializationCommandInfo
Qif:_MethodBase__ctor_m1907868998
Sbf:__ZL118U3CCaretBlinkU3Ec__Iterator0_t2589889038_CustomAttributesCacheGenerator_U3CCaretBlinkU3Ec__Iterator0_Reset_m1547565867P21CustomAttributesCache
Zyb:__ZN9GfxDevice22UploadTextureCubeArrayE9TextureIDPKhjii14GraphicsFormati18TextureUploadFlags
dJh:_InternalEnumerator_1_System_Collections_IEnumerator_get_Current_m888718134_gshared
B6k:__Z175RuntimeInvoker_Void_t1185182177_SByte_t1669577662_SByte_t1669577662_SByte_t1669577662_SByte_t1669577662_SByte_t1669577662_SByte_t1669577662_SByte_t1669577662_SByte_t1669577662PFvvEPK10MethodInfoPvPS4_
e8j:_Array_compare_TisRaycastResult_t3360306849_m822404090_gshared
Fhg:_Object_Destroy_m3118546832
PXj:_String_IsNullOrEmpty_m2969720369
Kno:__ZNK16Bomb_t378866992110get_type_5Ev
mgj:_DateTime_FromTicks_m4059645178_AdjustorThunk
yqj:__ZNK20Calendar_t166112156916get_M_EraNames_3Ev
Cej:__ZN46CurrentSystemTimeZone_t3998352255_StaticFields20set_this_year_dlt_10EP24DaylightTime_t2582425773
tyg:_ConfigHandler_ParseTime_m1787834288
oM:__ZN15PackedIntVector8TransferI19StreamedBinaryWriteEEvRT_
JYd:__ZN9Scripting11UnityEngine5Video25VideoAudioOutputModeProxy12CleanupProxyEv
BDi:_Assembly_Load_m3487507613
VV:__ZNSt3__27__sort4IRNS_6__lessIN4core12basic_stringIcNS2_20StringStorageDefaultIcEEEES6_EEPS6_EEjT0_SA_SA_SA_T_
rBo:dynCall_viiiifii
kKn:__ZN6il2cpp2gc19AppendOnlyGCHashMapINSt3__24pairIPK11Il2CppImageP11Il2CppClassEEP22Il2CppReflectionModule17ReflectionMapHashIS9_ENS2_8equal_toIS9_EEEC2Ev
kKi:__ZNK24FieldBuilder_t262704999311get_attrs_0Ev
dka:__Z20GetPersistentManagerv
REd:_UNITY_TT_Set_Var_Design
Hpn:__ZNK24dense_hashtable_iteratorINSt3__24pairIK10KeyWrapperIPK19Il2CppGenericMethodEPK26Il2CppGenericMethodIndicesEES6_N6il2cpp8metadata23Il2CppGenericMethodHashEN14dense_hash_mapIS6_SA_SE_NS6_14EqualsComparerINSD_26Il2CppGenericMethodCompareEEENS0_9allocatorISB_EEE9SelectKeyESI_SK_EdeEv
zfa:__ZN21SystemInfoStringCache16StaticInitializeEPv
CJe:__ZL80Convert_t2465617642_CustomAttributesCacheGenerator_Convert_ToDecimal_m1695757674P21CustomAttributesCache
ONi:_NameObjectCollectionBase_FindFirstMatchedItem_m840305173
adj:_Convert_ToSingle_m3605848385
B2l:_ReadOnlyCollection_1_System_Collections_Generic_ICollectionU3CTU3E_Remove_m1100818788_gshared
e2n:__ZNK10KeyWrapperIP12Il2CppObjectE14EqualsComparerINSt3__28equal_toIS1_EEEclERKS2_S9_
Gtc:__ZNSt3__26vectorIN9ShaderLab20SerializedSubProgram15StructParameterENS_9allocatorIS3_EEE6assignIPS3_EENS_9enable_ifIXaasr21__is_forward_iteratorIT_EE5valuesr16is_constructibleIS3_NS_15iterator_traitsISA_E9referenceEEE5valueEvE4typeESA_SA_
NDg:__ZN23GenericVirtFuncInvoker0I19TimeSpan_t881159249E6InvokeEPK10MethodInfoP12Il2CppObject
ERb:__ZNK13MonoBehaviour7GetNameEv
BIj:__ZNK24StreamWriter_t126637890420get_preamble_done_10Ev
fCg:_SynchronizedClientContextSink_AsyncProcessMessage_m3574843998
iY:__Z15_CheckFMODError11FMOD_RESULTPKciS1_
IUn:__ZN6il2cpp6icalls8mscorlib6SystemL16ThrowInvalidCastEPK11Il2CppClassS5_
Qmn:__ZNK15dense_hashtableI10KeyWrapperIPK19Il2CppGenericMethodES4_N6il2cpp8metadata23Il2CppGenericMethodHashEN14dense_hash_setIS4_S7_NS4_14EqualsComparerINS6_26Il2CppGenericMethodCompareEEENSt3__29allocatorIS4_EEE8IdentityESB_SE_E4sizeEv
Nyk:_EqualityComparer_1_get_Default_m79107703_gshared
U_f:_HMAC_KeySetup_m661741544
gLe:__ZL61MonoEnumInfo_t3694469084_CustomAttributesCacheGenerator_cacheP21CustomAttributesCache
UYj:_Latin1Encoding__ctor_m498920120
duf:__ZNK27UnmanagedMarshal_t98401568715get_param_num_7Ev
yTl:__ZNK19Stack_1_t392349561914get__version_2Ev
H4d:__ZNK34ReflectionMethodsCache_t210321106235get_getRayIntersectionAllNonAlloc_4Ev
MHj:_StreamReader_Peek_m2272511193
QWm:__ZN46AudioExtensionManager_t3220897493_StaticFields32set_m_SpatializerExtensionName_7E24PropertyName_t3749835189
$vj:_DateTimeFormatInfo_FillAllDateTimePatterns_m2683124783
wNd:__Z51Register_UnityEngine_CanvasGroup_get_blocksRaycastsv
uui:_NumberFormatter_get_IsFloatingSource_m3714711779
pXl:__ZN18VirtActionInvoker2Ii22OrderBlock_t1585977831E6InvokeEjP12Il2CppObjectiS0_
ggm:__ZNK27InvokableCall_1_t151443101214get_Delegate_0Ev
MZl:_Collection_1_System_Collections_IList_Add_m1403891193_gshared
ePf:__ZN29MetadataReference_t407787366014set_Metadata_0EP24TypeMetadata_t2187352167
a9g:_Scrollbar_Set_m607000118
ZXk:_Type_GetConstructor_m1195697116
Pi:_glBeginQuery
EGm:__ZN22AnchorInfo_t338701115110set_expr_0EP22Expression_t2722445759
Xam:_Comparison_1_Invoke_m568154215_gshared
n8j:__ZN21InterfaceFuncInvoker2Ii19Vector2_t2156229523S0_E6InvokeEjP11Il2CppClassP12Il2CppObjectS0_S0_
bS:__ZN18AnimatorController19TransferRuntimeDataI24GenerateTypeTreeTransferEEvRT_
Uek:__ZNK25SortKeyBuffer_t294527527011get_l4wb_14Ev
$od:__ZN10Effector2D25CheckEffectorColliderMaskEP10Collider2DS1_
m8b:__ZN6Camera12RenderStereoENS_10RenderFlagE8CullFlagPNS_24PerformEyeRenderFunctionE
Ksb:__ZN20LocalFileSystemPosix10ToAbsoluteEPKc
lJo:b111
fGm:__ZN30Regex_t3657309853_StaticFields11set_cache_0EP24FactoryCache_t2327118887
Knb:__Z23CollectSceneGameObjectsR13dynamic_arrayIiLj0EE
Gbo:__ZN6il2cpp2vm13ComObjectBase16DisconnectObjectEj
jBk:_GenericComparer_1__ctor_m3652072706_gshared
Im:f0
lJa:__ZN9BehaviourD0Ev
Svo:_getcwd
hdd:__ZN16b2CapsuleContact6CreateEP9b2FixtureiS1_iP16b2BlockAllocator
hrn:__ZNSt3__26__treeINS_12__value_typeIP11Il2CppClassS3_EENS_19__map_value_compareIS3_S4_NS_4lessIS3_EELb1EEENS_9allocatorIS4_EEE13__lower_boundIS3_EENS_15__tree_iteratorIS4_PNS_11__tree_nodeIS4_PvEEiEERKT_SH_PNS_15__tree_end_nodeIPNS_16__tree_node_baseISF_EEEE
qKa:__ZN25ThreadsafeLinearAllocatorD2Ev
uhf:_ILGenerator_Emit_m3083135129
EOc:__ZL50GetAndClearChangedTransformsForMultilpleSystemsJobP45GetChangedTransformsForMultipleSystemsJobDatajPK23TransformAccessReadOnlyPKyj
Mmb:__Z21SendMessageToEveryoneRK17MessageIdentifier11MessageData
Aqa:__ZN21BillboardBatchManager16StaticInitializeEPv
M9i:_DateTime_AbsoluteDays_m4235097773
Qha:__ZN12_GLOBAL__N_138ArchiveRedirectFileSystemStaticDestroyEPv
Nve:__ZL126U3CGetEnumeratorU3Ec__Iterator0_t1202911786_CustomAttributesCacheGenerator_U3CGetEnumeratorU3Ec__Iterator0_Dispose_m2078994225P21CustomAttributesCache
L1k:__Z74RuntimeInvoker_RuntimeObject_RuntimeObject_RuntimeObject_SByte_t1669577662PFvvEPK10MethodInfoPvPS4_
Xve:__ZL69Type_t_CustomAttributesCacheGenerator_Type_GetConstructor_m1195697116P21CustomAttributesCache
rie:_DefaultControls_CreateScrollView_m3842770629
MDo:_emscripten_glLoadIdentity__wrapper
wUh:_InternalEnumerator_1_Dispose_m2788308318_gshared
gqk:__ZN24Dictionary_2_t144469424911set_table_4EP22Int32U5BU5D_t385246372
Gbn:_Physics2D_Raycast_m1407159225
xze:__ZL94EnumBuilder_t2400448213_CustomAttributesCacheGenerator_EnumBuilder_GetConstructors_m3294436155P21CustomAttributesCache
Psl:__Z55RuntimeInvoker_TableRange_t3332867892_Int32_t2950945753PFvvEPK10MethodInfoPvPS4_
YNh:_InternalEnumerator_1_MoveNext_m1020308708_gshared
fpg:_Scene_GetNameInternal_m992487900
x3b:__Z23CreateSparseTextureGLES9TextureIDii14GraphicsFormati
fAd:_otv_Anchor_validate
_7g:__ZNK22ScrollRect_t413785581413get_m_Rect_35Ev
X$g:__ZN23LayoutGroup_t243613809037get_address_of_m_TotalPreferredSize_9Ev
H1:__ZN13dynamic_arrayI12SoundChannelLj0EE9push_backERKS0_
xgo:_GC_continue_reclaim
egd:__Z18AddCollisionReportP11Collision2DR13dynamic_arrayINS_15CollisionReportELj0EE
eqj:_CCMath_mod_m3631663509
Hbg:_Input_GetKeyDownString_m3760773871
cWk:_TimeSpan_Negate_m1889505500_AdjustorThunk
i6l:_ReadOnlyCollection_1_System_Collections_ICollection_CopyTo_m2715087453_gshared
Clk:__ZNK24CspParameters_t23985263918get_ProviderName_3Ev
N7n:__ZN6il2cpp2os10ThreadImpl10APCRequestC2EPFvPvES3_
D1h:_Transform_1__ctor_m2810088858_gshared
fwb:__ZN16MemoryFileSystemD0Ev
Jgi:__ZN23CipherSuite_t341474457517set_serverHMAC_20EP29KeyedHashAlgorithm_t112861511
A8c:__ZN5Unity9rapidjson12PrettyWriterI16TempBufferWriterNS0_4UTF8IcEES4_13JSONAllocatorE11WriteIndentEv
had:__ZNK12b2MotorJoint16GetReactionForceEf
jsn:__ZN6il2cpp2vm13MetadataCache37GetParameterDefaultValueDataFromIndexEi
HNn:_il2cpp_class_get_assemblyname
MZd:__ZN9Scripting11UnityEngine12Experimental2XR19ReferencePointProxy12CleanupProxyEv
wcl:__Z50RuntimeInvoker_SByte_t1669577662_SByte_t1669577662PFvvEPK10MethodInfoPvPS4_
Pne:_Graphic_OnFillVBO_m1026749972
jgn:__ZN6il2cpp2vm5Class15GetEnumBaseTypeEP11Il2CppClass
Tji:_Context_set_WriteSequenceNumber_m942577065
El:_glVertexAttrib4fv
Z_i:_X509CertificateEnumerator_Reset_m4026698923
gco:__ZNK6il2cpp5utils13VmStringUtils23CaseInsensitiveComparerclERKNSt3__212basic_stringIcNS3_11char_traitsIcEENS3_9allocatorIcEEEEPKc
Pce:_CanvasScaler_SetScaleFactor_m3006968999
Tul:__Z78RuntimeInvoker_Boolean_t97287965_Navigation_t3049316579_Navigation_t3049316579PFvvEPK10MethodInfoPvPS4_
jJm:__ZNK27Uri_t100236324_StaticFields22get_UriSchemeMailto_23Ev
T6a:__ZNK9Texture2D16GetNpotTexelSizeEv
CBi:_NumberFormatter_Init_m3576155222
Gtb:__ZL33FileEntryInfoListToFolderContentsRKN4core12basic_stringIcNS_20StringStorageDefaultIcEEEERK19dynamic_block_arrayI13FileEntryInfoLj32EERNSt3__23setIS3_NSB_4lessIS3_EENSB_9allocatorIS3_EEEE
x1g:_LayoutUtility_GetLayoutProperty_m714717302
cal:__Z71RuntimeInvoker_RuntimeObject_RuntimeObject_StreamingContext_t3711869237PFvvEPK10MethodInfoPvPS4_
f0k:__ZN23InterfaceActionInvoker1IP39UnhandledExceptionEventArgs_t2886101344E6InvokeEjP11Il2CppClassP12Il2CppObjectS1_
G0d:_EventSystem_set_sendNavigationEvents_m983981895
fqn:__ZL30GetImageForTypeDefinitionIndexi
Whi:__ZNK26SslCipherSuite_t198164574711get_pad1_21Ev
fdk:__ZN45MSCompatUnicodeTable_t1453885583_StaticFields20set_cjkCHScategory_6EPh
Yxb:__ZN9GfxDevice22GetDefaultVertexBufferE26GfxDefaultVertexBufferTypej
O1j:_Array_InternalArray__ICollection_Contains_TisInt64_t3736567304_m2911357929_gshared
bGh:__ZN31InternalEnumerator_1_t9785884839set_idx_1Ei
$Ub:__Z17BeginSplashScreenb
c2n:__ZN15dense_hashtableINSt3__24pairIK10KeyWrapperIP12Il2CppObjectEN6il2cpp2gc9CachedCCWEEES5_NS7_5utils11PointerHashIS3_EEN14dense_hash_mapIS5_S9_SD_NS5_14EqualsComparerINS0_8equal_toIS4_EEEENS0_9allocatorISA_EEE9SelectKeyESI_SK_E15set_deleted_keyERKSA_
DYl:_Collection_1_Remove_m3022471627_gshared
nwo:___fseeko_unlocked
LSj:__ZNK27SecurityElement_t10460760919get_tag_1Ev
dCi:_Object_ToString_m1740002499
dwo:_sscanf
R6n:__ZNK6il2cpp5utils13dynamic_arrayIPNS_2os6ThreadELj4EE8capacityEv
Hgb:__ZN14SafeBinaryRead21TransferSTLStyleArrayINSt3__26vectorI17BlendShapeChannelNS1_9allocatorIS3_EEEEEEvRT_17TransferMetaFlags
rcc:__ZN29RenderNodeQueuePrepareContextD2Ev
cCl:_Array_Resize_TisUILineInfo_t4195266810_m3763058392_gshared
hWf:_SByte_ToString_m3584531119_AdjustorThunk
ozk:__Z25Il2CppCodeGenWriteBarrierI30EqualityComparer_1_t1219088915EvPPT_S2_
E2a:__ZN10SpriteBone8TransferI24GenerateTypeTreeTransferEEvRT_
Yfd:__ZNK4PPtrI7Joint2DEcvPS0_Ev
dun:_SessionStateChanged_BeginInvoke_m1132835327
Tbj:_Convert_ToInt32_m1876369743
Z7h:_ModulusRing__ctor_m2420310199
caj:_Convert_ToDateTime_m626620011
Vbb:__ZN18StreamedBinaryRead21TransferSTLStyleArrayI13dynamic_arrayI26EnlightenSystemInformationLj0EEEEvRT_17TransferMetaFlags
p0h:_Enumerator_System_Collections_IDictionaryEnumerator_get_Key_m2500634048_AdjustorThunk
aTa:__ZN12SharedObjectI19ShaderPropertySheetLb1E27SharedObjectDeleteReleaseOpIS0_EE5ResetEv
yRm:__ZN22TextEditor_t275985536615set_controlID_1Ei
XN:__ZN7mecanim8skeleton16SkeletonPoseCopyIN4math4trsXENS2_7affineXEEEvPKNS0_13SkeletonPoseTIT_EEPNS5_IT0_EE
BAo:dynCall_vdd
iLk:_List_1_Remove_m3037048099_gshared
Z0b:__ZN18GfxFramebufferGLES18GetFramebufferNameERK20GfxRenderTargetSetup
dgo:_GC_print_block_list
RLn:__ZN6il2cpp2vm14TypeNameParser12ParseVersionERKNSt3__212basic_stringIcNS2_11char_traitsIcEENS2_9allocatorIcEEEERtSB_SB_SB_
c_n:__ZNK30dense_hashtable_const_iteratorINSt3__24pairIK10KeyWrapperINS1_IPKcS4_EEEiEES6_24NamespaceAndNamePairHashN14dense_hash_mapIS6_iS9_NS6_14EqualsComparerI26NamespaceAndNamePairEqualsEENS0_9allocatorIS8_EEE9SelectKeyESD_SF_EneERKSI_
jYg:_InputField_MoveDown_m1455948167
d0c:__Z30Event_Get_Custom_PropCharacterP12Il2CppObject
nta:__ZN13PlayableGraph27SchedulePlayableDestructionERK9HPlayable
qzd:_cff_get_mm_var
sIo:_glGetFramebufferAttachmentParameteriv__wrapper
JIf:_ChannelServices_GetCurrentChannelInfo_m3041604116
qsf:__Z29il2cpp_codegen_marshal_stringP8String_t
QSh:_InternalEnumerator_1__ctor_m2635640285_AdjustorThunk
YFb:__Z22scripting_array_length17ScriptingArrayPtr
xSj:_Hash__ctor_m2891763106
dJj:_SynchronizedReader_Peek_m148942882
K1m:__ZL25UnresolvedVirtualCall_249P12Il2CppObjectPK10MethodInfo
u5k:__Z95RuntimeInvoker_Void_t1185182177_RuntimeObject_Int32_t2950945753_Int32_t2950945753_RuntimeObjectPFvvEPK10MethodInfoPvPS4_
ndm:_Predicate_1_Invoke_m2308795536_gshared
s2a:__ZN14SafeBinaryRead20TransferTypelessDataEjPvi
Yeb:__ZN14SpriteRenderer18UpdateCachedSpriteEb
Ixg:__ZNK29SoapTypeAttribute_t175093081713get__isType_8Ev
S5n:__ZN15dense_hashtableINSt3__24pairIK10KeyWrapperIPcES3_EES4_N6il2cpp5utils15PassThroughHashIS3_EEN14dense_hash_mapIS4_S3_SA_NS4_14EqualsComparerINS0_8equal_toIS3_EEEENS0_9allocatorIS6_EEE9SelectKeyESF_SH_E3endEv
FPn:__ZNK6il2cpp2gc9AllocatorIP12Il2CppThreadE8max_sizeEv
hGd:_Horizontal_Sweep_Init
b9c:__ZN9Scripting11UnityEngine19ParticleSystemProxy9InitProxyEv
CRa:__Z19GetActiveColorSpacev
gUj:__ZNK28SecurityException_t97554447322get_permissionState_11Ev
wza:__ZL54__ManagedRegistrationHelperFunction_RenderTextureProxyPv
axf:_MonoMethodInfo_GetDeclaringType_m2924452727
qNg:_RemotingSurrogate_SetObjectData_m2713731796
Fzo:dynCall_fii
vga:__Z6StrCmpPKcS0_
Bui:_NumberFormatter_AppendIntegerString_m2257376141
zxc:__Z21CheckGpuProgramUsable20ShaderGpuProgramType
MAc:__ZN13ProduceHelperI14Texture2DArrayLb0EE7ProduceE10MemLabelId18ObjectCreationMode
u8n:__ZN6il2cpp2os9Directory20GetFileSystemEntriesERKNSt3__212basic_stringIcNS2_11char_traitsIcEENS2_9allocatorIcEEEESA_iiPi
Uoh:_Array_System_Collections_IList_Add_m1063688101
OKm:__ZNK27Uri_t100236324_StaticFields14get_schemes_28Ev
Xgh:__ZN18PKCS12_t410153306012set__certs_4EP37X509CertificateCollection_t1542168549
ytd:__ZN20TextRenderingPrivate19NativeTextGenerator5SetupEv
qwn:__ZN6il2cpp6icalls8mscorlib6SystemL12GetFieldImplINS_5utils10functional6FilterINSt3__212basic_stringIcNS7_11char_traitsIcEENS7_9allocatorIcEEEENS4_13VmStringUtils23CaseInsensitiveComparerEEEEEP21Il2CppReflectionFieldP11Il2CppClassiRKT_
ngc:__ZNK15SharedLightData24GetFinalShadowResolutionEv
VCm:_PatternCompiler_EmitAlternationEnd_m2444359097
HSe:__ZL91GameObject_t1113636619_CustomAttributesCacheGenerator_GameObject_get_activeSelf_m1767405923P21CustomAttributesCache
LS:__ZN7mecanim12statemachine18TransitionConstant8TransferI18StreamedBinaryReadEEvRT_
Koo:_Disarm__ctor_m2743901277
U_g:_LayoutElement_get_minHeight_m4160507569
fHc:__ZN10GameObject14CopyPropertiesERS_
N0c:__Z44Register_UnityEngine_GUIStyle_get_fixedWidthv
N2j:_Array_InternalArray__ICollection_Remove_TisLink_t544317964_m1280781374_gshared
Q7n:__ZNSt3__214__split_bufferIN6il2cpp2os10ThreadImpl10APCRequestERNS_9allocatorIS4_EEEC2EjjS7_
Onj:__ZN24StreamReader_t400993589913set_decoder_8EP19Decoder_t2204182725
yrh:_BitConverter_DoubleWordsAreSwapped_m1474345095
Rkl:__Z114RuntimeInvoker_Int32_t2950945753_Vector2_t2156229523_Vector2_t2156229523_ContactFilter2D_t3805203441_RuntimeObjectPFvvEPK10MethodInfoPvPS4_
Ywh:_FixedSizeArrayListWrapper_set_Capacity_m4221053039
Lwo:_rand
WIo:_emscripten_glFramebufferRenderbuffer__wrapper
XLc:__ZN13MeshScripting10CreateMeshE21ScriptingObjectOfTypeI4MeshE
HKf:__ZNK27BinaryFormatter_t319775320218get_filter_level_5Ev
gil:__Z56RuntimeInvoker_Void_t1185182177_PropertyName_t3749835189PFvvEPK10MethodInfoPvPS4_
BB:__ZN17AnimationPlayable22PrepareAnimationEventsEfR13dynamic_arrayI22AnimationClipEventInfoLj0EE
Mjl:__Z51RuntimeInvoker_Void_t1185182177_Vector2_t2156229523PFvvEPK10MethodInfoPvPS4_
t2d:__ZN23InterfaceActionInvoker1IP25BaseEventData_t3903027533E6InvokeEjP11Il2CppClassP12Il2CppObjectS1_
UGb:__ZN14SafeBinaryRead21TransferSTLStyleArrayINSt3__26vectorI17AnimationCurveTplIfE13stl_allocatorIS4_L18MemLabelIdentifier1ELi16EEEEEEvRT_17TransferMetaFlags
Hxh:_SynchronizedArrayListWrapper_Contains_m3809499313
ini:_HandshakeMessage_Compare_m2214647946
_2j:_Array_InternalArray__ICollection_Remove_TisLabelData_t360167391_m3556246844_gshared
Hin:__ZN15dense_hashtableINSt3__24pairIK10KeyWrapperIPK11Il2CppClassEPKcEES6_N6il2cpp5utils11PointerHashIS3_EEN14dense_hash_mapIS6_S9_SE_NS6_14EqualsComparerINS0_8equal_toIS5_EEEENS0_9allocatorISA_EEE9SelectKeyESJ_SL_E9set_valueEPSA_RKSA_
Sqe:__ZNK17Image_t267026965119get_m_FillMethod_36Ev
gFn:__ZN15dense_hashtableINSt3__24pairIK10KeyWrapperINS1_IPK11Il2CppImageP11Il2CppClassEEEjEES9_17ReflectionMapHashIS8_EN14dense_hash_mapIS9_jSD_NS9_14EqualsComparerINS0_8equal_toIS8_EEEENS0_9allocatorISB_EEE9SelectKeyESI_SK_E12expand_arrayEjN21dense_hash_map_traits17integral_constantIbLb0EEE
sAb:__ZN9GfxDevice30ResolveComputeProgramResourcesE12ObjectHandleI18ComputeProgram_TagPvER19ComputeShaderKernelR13dynamic_arrayI15ComputeShaderCBLj0EERS6_I18ComputeShaderParamLj0EEb
xoo:__ZN23CameraShake_t317148869517set_shakeAmount_6Ef
m$f:_HMACSHA256__ctor_m346174875
G4f:_Color_op_Multiply_m2887457390
bDm:__ZN23QuickSearch_t258809011012set_ignore_2Eb
Oic:__Z22PrepareOptimizedPlanesPK5PlaneiPKN4math7_float4E
JIh:_InternalEnumerator_1__ctor_m1559487635_gshared
Uba:__ZN11UnityEngine15CloudWebService17WebFileDownloaderINS0_20WebRequestRestClientENS0_23WebRequestRestHeaderMapEE10InitializeERKN4core12basic_stringIcNS5_20StringStorageDefaultIcEEEE
yqa:__ZN17UniqueIDGenerator15CreatePureIndexEv
v2g:__ZNK40StencilMaterial_t3850132571_StaticFields12get_m_List_0Ev
Qdg:__ZN21Matrix4x4_t181790184310set_m32_11Ef
gih:__ZN26X509Certificate_t48924302413set_decoder_0EP16ASN1_t2114160832
vZd:__ZL54__ManagedRegistrationHelperFunction_TrackingStateProxyPv
F4i:__ZNK17Queue_t363752339317get__growFactor_4Ev
eAc:__Z48InitializeRectTransformAnimationBindingInterfacev
sS:__ZN15SerializeTraitsI9OffsetPtrIN7mecanim8skeleton12SkeletonMaskEEE8TransferI24GenerateTypeTreeTransferEEvRS4_RT_
_en:__ZN15dense_hashtableINSt3__24pairIK10KeyWrapperIPK22Il2CppGenericParameterEP11Il2CppClassEES6_N6il2cpp5utils11PointerHashIS4_EEN14dense_hash_mapIS6_S9_SE_NS6_14EqualsComparerINS0_8equal_toIS5_EEEENS0_9allocatorISA_EEE9SelectKeyESJ_SL_E14squash_deletedEv
O_a:__ZN9ShaderLabL27GetDesiredRenderTextureDescEPK6Camera
jGe:__ZL131RSACryptoServiceProvider_t2683512874_CustomAttributesCacheGenerator_RSACryptoServiceProvider_t2683512874____PublicOnly_PropertyInfoP21CustomAttributesCache
Dbd:__ZNK12b2MouseJoint17GetReactionTorqueEf
hAl:_Array_InternalArray__Insert_TisMark_t3471605523_m2854535880_gshared
sLc:__ZN4Mesh24UpdateSubMeshVertexRangeEi
O_c:__Z14GUIClipTextureP9Texture2DPhiiii
P1e:__ZL52HumanBone_t2465339518_CustomAttributesCacheGeneratorP21CustomAttributesCache
AYa:__ZN13RenderTexture21FixInvalidDescOptionsER17RenderTextureDesc
U0h:__ZN26ShimEnumerator_t144141504621set_host_enumerator_0E22Enumerator_t3398877024
fYl:__ZN18VirtActionInvoker2Ii19Color32_t2600501292E6InvokeEjP12Il2CppObjectiS0_
w$e:__ZL81Scene_t2348375561_CustomAttributesCacheGenerator_Scene_GetNameInternal_m992487900P21CustomAttributesCache
wMg:_MethodReturnDictionary__cctor_m278392388
S2g:__ZN20MatEntry_t295710709221set_compareFunction_5Ei
pac:__ZNK9Transform18TransformDirectionERK8Vector3f
apm:_SslStreamBase_get_CanWrite_m1622082918
sub:__ZNK17ArchiveFileSystem12GetAssetGUIDERK13FileEntryData
Ndf:__ZL80CanvasScaler_t2767979955_CustomAttributesCacheGenerator_m_ReferencePixelsPerUnitP21CustomAttributesCache
Szd:_otv_MarkLigPos_validate
Eik:_PrimalityTests_RabinMillerTest_m1471415870
zFk:_Enumerator_MoveNext_m2114485647_gshared
gLi:_GenericTypeParameterBuilder_GetCustomAttributes_m580748276
tTj:__ZN27WindowsIdentity_t294824240611set__type_1EP8String_t
$Mf:__ZNK24ObjectReader_t194095739218get__filterLevel_3Ev
Agl:__Z81RuntimeInvoker_Void_t1185182177_RuntimeObject_SByte_t1669577662_Int32_t2950945753PFvvEPK10MethodInfoPvPS4_
ESk:__ZN18VirtActionInvoker2IP12Il2CppObjectbE6InvokeEjS1_S1_b
z7d:__ZNK21MouseState_t38420393222get_m_TrackedButtons_0Ev
SId:__GLOBAL__sub_I_External_Yoga_Yoga_0_cpp
h8h:_Kernel_LeftShift_m4140742987
jDi:_Assembly_GetManifestResourceInternal_m1224391897
lSa:__Z30AddDefaultStreamsToMeshBuffersR9GfxDeviceR11MeshBuffersj17ShaderChannelMaskS3_
lha:__ZL16GetInterfaceImpl18UnityInterfaceGUID
NK:__ZNSt3__26vectorIN13AnimationClip15QuaternionCurveE13stl_allocatorIS2_L18MemLabelIdentifier26ELi16EEE10deallocateEv
i8:__ZNSt3__27__sort4IR14SortByHashPredI13FileEntryInfoN11UnityEngine15CloudWebService14DataDispatcher6HasherEEPS2_EEjT0_SA_SA_SA_T_
Sbo:__ZN6il2cpp6icalls8mscorlib6System15MonoCustomAttrs27GetCustomAttributesInternalEP12Il2CppObjectP20Il2CppReflectionTypeb
Pb:invoke_viifi
mFd:_UNITY_TT_Set_MM_Blend
Flf:__Z25Il2CppCodeGenWriteBarrierI21Hashtable_t1853889766EvPPT_S2_
jFk:__ZN22Enumerator_t36491843299set_ver_2Ei
HQi:__Z25Il2CppCodeGenWriteBarrierI24ServicePoint_t2786966844EvPPT_S2_
nnm:_InternalAsyncResult_get_FromWrite_m4228047810
h9k:__Z53RuntimeInvoker_MonoEventInfo_t346866618_RuntimeObjectPFvvEPK10MethodInfoPvPS4_
I$l:_Collection_1_CopyTo_m955200729_gshared
GVb:__ZN14PreloadManager35WaitForAllAsyncOperationsToCompleteEv
Lyl:__ZN28RijndaelTransform_t6312222419set_Nr_15Ei
via:__ZNSt3__26__treeINS_12__value_typeIPKc11ShaderTagIDEENS_19__map_value_compareIS3_S5_27compare_tstring_insensitiveIS3_ELb1EEENS_9allocatorIS5_EEE7destroyEPNS_11__tree_nodeIS5_PvEE
ryk:_EqualityComparer_1__ctor_m1138336971_gshared
eRn:__ZNK15dense_hashtableINSt3__24pairIK10KeyWrapperIP11Il2CppClassES4_EES5_N6il2cpp8metadata16SZArrayClassHashEN14dense_hash_mapIS5_S4_SA_NS5_14EqualsComparerINS9_19SZArrayClassCompareEEENS0_9allocatorIS7_EEE9SelectKeyESE_SG_E12bucket_countEv
oja:__ZNK18ScriptingObjectPtr17ToScriptingStringEv
j_j:__ZNK20Encoding_t152332205622get_encoder_fallback_4Ev
eY:__ZL31InitializeAudioScriptingClassesv
oOi:__ZN34TypeConverterAttribute_t327158442920set_converter_type_1EP8String_t
K9b:__Z14SortGUIByDepthP10GUIElementS0_
rZg:__ZNK23SpriteState_t136298647921get_m_PressedSprite_1Ev
wQb:__Z19TransferField_ArrayI18StreamedBinaryRead16Converter_StringEvRK23StaticTransferFieldInfoR31RuntimeSerializationCommandInfoRT0_
eTm:__ZNK37AesTransform_t2957123611_StaticFields10get_iT1_23Ev
zel:__Z69RuntimeInvoker_UInt32_t2560061978_Int32_t2950945753_SByte_t1669577662PFvvEPK10MethodInfoPvPS4_
MO:__ZN12_GLOBAL__N_120ProcessRootMotionMixER33AnimationPlayableEvaluationOutputR35AnimationPlayableEvaluationConstantR32AnimationPlayableEvaluationInputS1_f
rLm:_UriParser__cctor_m3655686731
DIf:__ZN23ChannelData_t33536299728set_Id_2EP8String_t
l1g:_LayoutRebuilder_U3Cs_RebuildersU3Em__0_m589488547
Ozo:dynCall_ii
wul:__Z53RuntimeInvoker_KeyValuePair_2_t71524366_RuntimeObjectPFvvEPK10MethodInfoPvPS4_
$ek:__ZNK25SortKeyBuffer_t294527527013get_source_16Ev
ktb:__ZNK20LocalFileSystemPosix21GetAvailableDiskSpaceEPKcRy
QV:__ZNSt3__26__treeIiNS_4lessIiEENS_9allocatorIiEEE7destroyEPNS_11__tree_nodeIiPvEE
gof:__ZN31OpCodes_t126150456_StaticFields13set_Ldc_R8_35E17OpCode_t123070264
Jxb:__ZNK9GfxDevice14GetWorldMatrixEv
hSa:__Z30ExtractMeshBuffersAndDrawRangeR11MeshBuffersR16DrawBuffersRangeRK9GfxDeviceRK17MeshRenderingData16VertexInputMasksib
fun:_RemoteConfigSettings_t1247263429_marshal_pinvoke
poc:__ZNSt3__227__insertion_sort_incompleteIRPFbPK35RegisterRuntimeInitializeAndCleanupS3_EPPS1_EEbT0_S9_T_
Rsg:_Transform_set_parent_m786917804
DYm:_AudioSampleProvider_InternalSetScriptingPtr_m3742743270
Udh:_Slider_get_value_m739683640
IBa:__Z19scripting_array_new17ScriptingClassPtrjj
$bj:_Convert_ToInt32_m2128774575
A1:__ZN11SoundHandle13CreateChannelEb
wmh:__ZNK25SmallXmlParser_t97378783918get_resetColumn_11Ev
Oqb:__Z30CreateBoxedObjectFromPrimitivei
rSk:_WaitCallback_BeginInvoke_m3012509827
eJj:__ZNK30SynchronizedReader_t116311577512get_reader_1Ev
juc:__ZNSt3__26vectorIN9ShaderLab20SerializedSubProgram16TextureParameterENS_9allocatorIS3_EEE6assignIPS3_EENS_9enable_ifIXaasr21__is_forward_iteratorIT_EE5valuesr16is_constructibleIS3_NS_15iterator_traitsISA_E9referenceEEE5valueEvE4typeESA_SA_
Uqa:__Z30CreateBoxedObjectFromPrimitiveb
_Jk:__Z25Il2CppCodeGenWriteBarrierI17List_1_t496136383EvPPT_S2_
x5e:__ZL104Physics2D_t1528932956_CustomAttributesCacheGenerator_Physics2D_GetRayIntersectionAll_Internal_m643548862P21CustomAttributesCache
u1n:__ZN6il2cpp2vm8Profiler18ProfileAllocationsEv
W5k:__Z122RuntimeInvoker_Void_t1185182177_RuntimeObject_RuntimeObject_ContractionU5BU5DU26_t2277527001_Level2MapU5BU5DU26_t359320357PFvvEPK10MethodInfoPvPS4_
mJn:__ZN15dense_hashtableINSt3__24pairIK10KeyWrapperIPK22Il2CppGenericParameterEPK24MonoGenericParameterInfoEES6_N6il2cpp5utils11PointerHashIS4_EEN14dense_hash_mapIS6_SA_SF_NS6_14EqualsComparerINS0_8equal_toIS5_EEEENS0_9allocatorISB_EEE9SelectKeyESK_SM_E15set_deleted_keyERKSB_
fWf:_SByte_TryParse_m2431806379
mTk:_Thread_set_IsBackground_m3868016371
xkn:__ZNK15dense_hashtableINSt3__24pairIK10KeyWrapperIP9FieldInfoEiEES5_N6il2cpp5utils11PointerHashIS3_EEN14dense_hash_mapIS5_iSB_NS5_14EqualsComparerINS0_8equal_toIS4_EEEENS0_9allocatorIS7_EEE9SelectKeyESG_SI_E8min_sizeEjj
QLe:__ZL64ObjectDisposedException_t21392786_CustomAttributesCacheGeneratorP21CustomAttributesCache
CXa:__ZN6prcoreL11inner_clearILj2EEEvPhjjj
DCm:_PatternCompiler_EmitSub_m193323684
LZf:_DSACryptoServiceProvider_get_KeySize_m786836990
Zad:__ZN12b2WheelJoint24SolvePositionConstraintsERK12b2SolverData
Re:_emscripten_exit_fullscreen
kAc:__ZZL31RegisterRectTransformPropertiesR22GenericPropertyBindingEN39Wrapper_RectTransformAnchoredPositiony113GetFloatValueEPv
TBi:_Object_MemberwiseClone_m1474068832
qkg:__ZN22Quaternion_t23019283317set_w_3Ef
B6n:__ZN6il2cpp6icalls8mscorlib6System6String19InternalAllocateStrEi
y7c:__Z29Transfer_Blittable_ArrayFieldI8JSONRead11QuaternionfEvRT_R9ArrayInfoRK23StaticTransferFieldInfo
Tsb:__ZN20LocalFileSystemPosix8SetFlagsER13FileEntryDatajj
F7d:__ZN22ButtonState_t85713993617set_m_EventData_1EP32MouseButtonEventData_t3190347560
hSc:__Z45Register_UnityEngine_Camera_get_targetDisplayv
VDc:__ZNK24RendererAnimationBinding15GenerateBindingERKN4core12basic_stringIcNS0_20StringStorageDefaultIcEEEEbRN11UnityEngine9Animation14GenericBindingE
nSi:_IPv6Address__ctor_m3704187391
SWa:__Z15GetFlareManagerv
LHc:__ZN15ApplicationInfo24GetApplicationIdentifierEv
Kl:_llvm_ceil_f32
TQi:__ZNK43ServicePointManager_t170559685_StaticFields14get_useNagle_8Ev
Mu:__ZN8Animator13GetAvatarRootEv
C6i:__ZNK17Stack_t232966228014get_contents_0Ev
m1c:__GLOBAL__sub_I_InputScriptingClasses_cpp
e9j:_Array_InternalArray__ICollection_Add_TisResourceCacheItem_t51292791_m3851804827_gshared
Rto:___toread
pTb:__ZNSt3__26vectorI10vector_mapIiiNS_4lessIiEE13stl_allocatorINS_4pairIiiEEL18MemLabelIdentifier38ELi16EEES4_IS9_LS7_38ELi16EEE26__swap_out_circular_bufferERNS_14__split_bufferIS9_RSA_EE
x7h:_BigInteger_get_Rng_m3283260184
jHn:__ZN15dense_hashtableINSt3__24pairIK10KeyWrapperINS1_IPK9EventInfoP11Il2CppClassEEEjEES9_17ReflectionMapHashIS8_EN14dense_hash_mapIS9_jSD_NS9_14EqualsComparerINS0_8equal_toIS8_EEEENS0_9allocatorISB_EEE9SelectKeyESI_SK_E12maybe_shrinkEv
EU:__ZN8Animator22ScriptingStringToCRC32ERK11ICallString
zMe:__ZL55EventHandler_t1348719766_CustomAttributesCacheGeneratorP21CustomAttributesCache
OO:__ZN7mecanim9animation16EvaluateAvatarDXEPKNS0_14AvatarConstantEPKNS0_11AvatarInputEPNS0_12AvatarMemoryEPNS0_15AvatarWorkspaceEPNS0_12AvatarOutputE
f8d:_RaycastResult_ToString_m2678663776_AdjustorThunk
LFl:_Array_InternalArray__get_Item_TisKeyValuePair_2_t2530217319_m2886833132_gshared
Who:__ZN6il2cpp2os11EventHandle3GetEv
U9g:_ScrollRect_OnEndDrag_m3202230060
Asf:__ZNK23TypeBuilder_t107394815422get_underlying_type_33Ev
ZXc:__Z34Transform_CUSTOM_SetAsFirstSiblingP12Il2CppObject
vAn:__ZNK15dense_hashtableINSt3__24pairIK10KeyWrapperINS1_IPK14Il2CppAssemblyP11Il2CppClassEEEjEES9_17ReflectionMapHashIS8_EN14dense_hash_mapIS9_jSD_NS9_14EqualsComparerINS0_8equal_toIS8_EEEENS0_9allocatorISB_EEE9SelectKeyESI_SK_E10test_emptyEj
bvg:__ZNK28SinkProviderData_t415137297416get_properties_2Ev
YRe:__ZL57SetupCoroutine_t2062820429_CustomAttributesCacheGeneratorP21CustomAttributesCache
fYg:_InputField_Delete_m3471899192
RKe:__ZL79Convert_t2465617642_CustomAttributesCacheGenerator_Convert_ToUInt64_m1627266664P21CustomAttributesCache
BXn:__ZN10KeyWrapperIP14Il2CppIUnknownE14EqualsComparerINSt3__28equal_toIS1_EEEC2ES6_
dDe:__ZL91UrlAttribute_t221584584_CustomAttributesCacheGenerator_UrlAttribute_IsContextOK_m1228378186P21CustomAttributesCache
IQg:_RemotingConfiguration_get_ProcessId_m2180277012
q8:__ZN11UnityEngine15CloudWebService17SessionEventQueue14ParseEventDataERKN4core12basic_stringIcNS2_20StringStorageDefaultIcEEEE
Q$b:__ZN13TranslateGLES4InitERK12GraphicsCaps16GfxDeviceLevelGL
Hqo:_Explosion_Update_m1295291252
_dn:_NativeTypeAttribute_set_CodegenOptions_m3839252515
Awk:_EqualityComparer_1_get_Default_m180770000_gshared
tvi:_Int64_System_IConvertible_ToUInt16_m848637338_AdjustorThunk
EPi:__ZN38FtpWebRequest_t1577818305_StaticFields24set_supportedCommands_14EP24StringU5BU5D_t1281789340
X6j:_Array_InternalArray__IndexOf_TisLink_t544317964_m455584088_gshared
K$n:__ZN10KeyWrapperIP18Il2CppGenericClassEC2ENS2_11KeyTypeEnumE
wZ:__ZNK14SoundHandleAPI12GetLoadStateEv
X5l:_ReadOnlyCollection_1_IndexOf_m2539022912_gshared
mok:_KeyGeneratedEventHandler__ctor_m1990062371
wFm:_ExpressionAssertion_set_Reverse_m4141031406
Vcf:__ZL66Selectable_t3250028441_CustomAttributesCacheGenerator_m_TransitionP21CustomAttributesCache
xlo:__ZN6il2cpp2os6Memory12AlignedAllocEjj
aTi:__ZN43ServicePointManager_t170559685_StaticFields29set_maxServicePointIdleTime_3Ei
Lmd:__ZN20SpriteTilingProperty8TransferI19StreamedBinaryWriteEEvRT_
A4c:__ZN9JSONWrite8TransferI13dynamic_arrayIN4math12int3_storageELj0EEEEvRT_PKc17TransferMetaFlags
nfh:_Text_set_alignByGeometry_m3828822280
TQn:__ZNK14dense_hash_mapI10KeyWrapperIP11Il2CppClassES2_N6il2cpp8metadata16SZArrayClassHashENS3_14EqualsComparerINS5_19SZArrayClassCompareEEENSt3__29allocatorINSA_4pairIKS3_S2_EEEEE9SelectKeyclERKSE_
NIb:__Z18Transfer_BlittableI17RemapPPtrTransferLb0E11ColorRGBA32EvRK29SerializationCommandArgumentsR31RuntimeSerializationCommandInfo
MBn:__ZN15dense_hashtableINSt3__24pairIK10KeyWrapperINS1_IPK9FieldInfoP11Il2CppClassEEEjEES9_17ReflectionMapHashIS8_EN14dense_hash_mapIS9_jSD_NS9_14EqualsComparerINS0_8equal_toIS8_EEEENS0_9allocatorISB_EEE9SelectKeyESI_SK_E9copy_fromERKSN_j
DLi:_HybridDictionary__ctor_m1681134385
ikk:__ZNK26BlockProcessor_t185103122515get_transform_0Ev
QNa:__ZN21ScalableBufferManager11GetInstanceEv
JHc:__ZN18BackgroundJobQueue19ScheduleJobInternalEPFvPvES0_RKNS_8JobFenceEN8JobQueue16JobQueuePriorityE
aVm:__ZNK24VertexHelper_t245330418912get_m_Uv1S_3Ev
G2n:__ZNSt3__218uninitialized_fillIPNS_4pairIK10KeyWrapperIP12Il2CppObjectEN6il2cpp2gc9CachedCCWEEESA_EEvT_SC_RKT0_
S3a:__ZN12CubemapArray23VirtualRedirectTransferER17RemapPPtrTransfer
mWk:_TimeSpan_op_LessThan_m1594498345
wPc:__ZL27GetComponentsImplementationILb0ELi0EEbR10GameObjectbRK17CompareParametersRK39GetComponentsImplementation_ReturnValue
ipg:__ZNK17Scene_t234837556114get_m_Handle_0Ev
$Lm:_Event_GetHashCode_m3559153592
qSb:__ZN9Scripting36IsSystemCollectionsGenericDictionaryE17ScriptingClassPtr
Mim:_UnityEvent_1_FindMethod_Impl_m322741469_gshared
Zvo:___ofl_unlock
NDe:__ZL92ConstructionCallDictionary_t686578562_CustomAttributesCacheGenerator_U3CU3Ef__switchU24map24P21CustomAttributesCache
pdf:__ZL64Slider_t3903728902_CustomAttributesCacheGenerator_m_WholeNumbersP21CustomAttributesCache
sSf:__ZNK44MethodCallDictionary_t605791082_StaticFields18get_InternalKeys_6Ev
pna:__ZL16ReadTypeTreeImplILb0EEbR8TypeTreeRK16TypeTreeIteratorRPKhS6_i
Szm:_Interval_Contains_m110351300_AdjustorThunk
Ubj:_Convert_ToInt32_m3048308591
ay:__ZN25RuntimeAnimatorControllerD2Ev
Vef:__ZL77LayoutUtility_t2745813735_CustomAttributesCacheGenerator_U3CU3Ef__amU24cache6P21CustomAttributesCache
M5g:_RectMask2D_OnCanvasHierarchyChanged_m3195492255
yhj:_DateTimeOffset_Equals_m3030958070
uWa:__ZNK22BuiltinResourceManager21GetResourceInstanceIDEPKN5Unity4TypeERKN4core12basic_stringIcNS4_20StringStorageDefaultIcEEEE
CWc:__Z42Register_UnityEngine_RectOffset_set_bottomv
z0c:__Z28GUIStyleState_CUSTOM_CleanupP12Il2CppObject
ovj:_DateTimeFormatInfo_GetMonthName_m2034512315
Nbc:__ZN28LightProbeProxyVolumeContext8CopyFromERKS_
Aen:_RequiredByNativeCodeAttribute_set_Optional_m1276771824
I6l:_ReadOnlyCollection_1_System_Collections_Generic_IListU3CTU3E_Insert_m2489506856_gshared
QMa:__ZN23TransformChangeDispatch32QueueTransformChangeIfHasChangedER18TransformHierarchy
peg:_Matrix4x4_MultiplyPoint_m1575665487
_kl:__Z105RuntimeInvoker_RuntimeObject_Vector3_t3722313464_Vector3_t3722313464_Single_t1397266774_Int32_t2950945753PFvvEPK10MethodInfoPvPS4_
x2b:__ZN7ApiGLES18DeleteRenderbufferERj
J1b:__ZL23ProgramUniformMatrix4fvPK7ApiGLESjiihPKv
u_f:__ZNK16HMAC_t262110114421get__blockSizeValue_9Ev
HXb:__ZN7ApiGLES13CreateTextureEjj14GraphicsFormatiiiii
bvk:_DefaultComparer__ctor_m3829525137_gshared
u7g:__Z25Il2CppCodeGenWriteBarrierI26ScrollRectEvent_t343079324EvPPT_S2_
Jso:__ZN41U3CChangeColorU3Ec__Iterator0_t285836417016set_U24current_1EP12Il2CppObject
Stc:__ZN9ShaderLab20SerializedSubProgram15MatrixParameter8TransferI14SafeBinaryReadEEvRT_
SHo:_emscripten_glUniform2i__wrapper
mxj:__ZNK27NumberFormatInfo_t43587713830get_percentDecimalSeparator_22Ev
Qx:__ZN18StreamedBinaryRead21TransferSTLStyleArrayI22OffsetPtrArrayTransferIN4math4AxesEEEEvRT_17TransferMetaFlags
yPc:__ZL27GetComponentsImplementationILb0ELi1EEbR10GameObjectbRK17CompareParametersRK39GetComponentsImplementation_ReturnValue
pZi:_X509Store__ctor_m275383717
Fgk:_SimpleCollator_LastIndexOfOrdinalIgnoreCase_m2984667899
vEd:_Round_Down_To_Grid
Rgh:__ZNK31PKCS12_t4101533060_StaticFields31get_recommendedIterationCount_0Ev
lPa:__ZN13RenderTexture7ReleaseEv
vEa:__ZN9Scripting11UnityEngine12Hash128Proxy12CleanupProxyEv
V4c:__Z18Transfer_BlittableI8JSONReadLb1EN4math12int3_storageEEvRK29SerializationCommandArgumentsR31RuntimeSerializationCommandInfo
Z6d:__ZNK25RaycastResult_t336030684920get_screenPosition_9Ev
uef:__ZL64LayoutGroup_t2436138090_CustomAttributesCacheGenerator_m_PaddingP21CustomAttributesCache
mH:__ZN7mecanim9animation18ClipMuscleConstant8TransferI8BlobSizeEEvRT_
mjh:_X509CertificateEnumerator_MoveNext_m2269241175
pJe:__ZL77Convert_t2465617642_CustomAttributesCacheGenerator_Convert_ToByte_m1993550870P21CustomAttributesCache
rRh:_InternalEnumerator_1_System_Collections_IEnumerator_Reset_m500203932_gshared
eCb:__ZN22CreateGpuProgramOutput12CreateParamsEv
nZ:__ZN10ObjectPoolIN4FMOD7ChannelENS0_8ChannelIEE7GetFreeEi
nJi:_DynamicMethod_IsDefined_m2556354904
Fvl:__Z96RuntimeInvoker_RuntimeObject_CustomAttributeNamedArgument_t287865710_RuntimeObject_RuntimeObjectPFvvEPK10MethodInfoPvPS4_
fle:_FontData_get_font_m2720086288
ZJh:_InternalEnumerator_1_System_Collections_IEnumerator_get_Current_m548105685_gshared
G$b:__ZNK14GfxContextGLES13GetDefaultFBOEv
CFm:__ZN31ExpressionAssertion_t186121081112set_negate_2Eb
Gsl:__Z99RuntimeInvoker_Void_t1185182177_UILineInfoU5BU5DU26_t2468919161_Int32_t2950945753_Int32_t2950945753PFvvEPK10MethodInfoPvPS4_
Hsh:_Byte_System_IConvertible_ToType_m2251112646
_do:_GC_unix_get_mem
rUc:__Z55Register_UnityEngine_MonoBehaviour_StopCoroutineManagedv
ilh:__ZN25SmallXmlParser_t97378783916set_attributes_8EP23AttrListImpl_t567962447
qgj:_DateTime_get_Hour_m4153505178_AdjustorThunk
uXm:_AudioExtensionManager_WriteExtensionProperties_m3028464154
hSj:_Evidence_Equals_m1478353107
uAm:_CostDelegate__ctor_m4027655829
IKc:__Z13GetImagePixelI10ColorRGBAfET_PKhii13TextureFormat15TextureWrapModeS5_ii
VKl:_List_1_System_Collections_IList_set_Item_m1842844683_gshared
nmm:_ObjectPool_1__ctor_m2535233435_gshared
Zem:_EventFunction_1__ctor_m4292798223_gshared
EQg:__ZN46RemotingConfiguration_t4113740665_StaticFields29set_activatedServiceEntries_9EP21Hashtable_t1853889766
nJj:__ZNK30SynchronizedWriter_t172285322016get_neverClose_3Ev
Huj:_CultureInfo_construct_datetime_format_m1928121315
s_j:__ZNK20Encoding_t152332205622get_decoder_fallback_3Ev
IXb:__ZNK13TranslateGLES25GetTextureTargetDimensionEj
WCi:_RankException__ctor_m3453633632
yam:_Comparison_1__ctor_m533218197_gshared
VLg:_MethodResponse_System_Runtime_Remoting_Messaging_IInternalMessage_get_TargetIdentity_m3291545427
Msl:__Z96RuntimeInvoker_Void_t1185182177_Vector3U5BU5DU26_t3038522815_Int32_t2950945753_Int32_t2950945753PFvvEPK10MethodInfoPvPS4_
iln:__ZN10KeyWrapperIPK19Il2CppGenericMethodEC2Ev
Y3l:_ReadOnlyCollection_1_System_Collections_IList_Remove_m1842121503_gshared
Tig:_PlayableHandle_Equals_m2546735654
Hga:__ZN9profiling27GetBuiltinCategoryRgbaColorEt
Lfb:__Z16SnapToPixelSpaceRK8Vector3f
Hnj:_File_OpenRead_m2936789020
fja:__ZN9Scripting12LogExceptionE21ScriptingExceptionPtriPKcb
fjl:__Z94RuntimeInvoker_Void_t1185182177_RuntimeObject_PlayableGraph_t3515989261_RuntimeObject_IntPtr_tPFvvEPK10MethodInfoPvPS4_
ai:_emscripten_glVertexAttrib4f
MHb:__ZN14SafeBinaryRead21TransferSTLStyleArrayI13dynamic_arrayIN4math12int3_storageELj0EEEEvRT_17TransferMetaFlags
QIl:__ZN18List_1_t305805257314set__version_3Ei
xPb:__Z19TransferField_ArrayI18StreamedBinaryRead27Converter_UnityEngineObjectEvRK23StaticTransferFieldInfoR31RuntimeSerializationCommandInfoRT0_
GUh:_InternalEnumerator_1_System_Collections_IEnumerator_Reset_m4072625129_AdjustorThunk
M_i:_X509CertificateCollection_AddRange_m3683116910
l8d:__ZN33StandaloneInputModule_t276046910123set_m_HorizontalAxis_23EP8String_t
dPf:__ZNK24ObjectWriter_t296840623120get__assemblyCache_3Ev
tIn:__ZN10KeyWrapperIPK14Il2CppAssemblyEC2ENS3_11KeyTypeEnumE
Wug:_SinkProviderData__ctor_m1624738837
fdc:__ZN11HaloManager21ReleaseGeometryJobMemEP25DynamicVBOGeometryJobData
LCj:_DirectoryNotFoundException__ctor_m1689636868
wel:__Z88RuntimeInvoker_RuntimeObject_RuntimeObject_SByte_t1669577662_RuntimeObject_RuntimeObjectPFvvEPK10MethodInfoPvPS4_
FEh:_InternalEnumerator_1_System_Collections_IEnumerator_Reset_m903423974_gshared
r4l:_ReadOnlyCollection_1_System_Collections_Generic_IListU3CTU3E_get_Item_m978644313_gshared
S$l:_Collection_1_get_Item_m2253972692_gshared
vsf:_RefEmitPermissionSet_t484390987_marshal_pinvoke_cleanup
_Fi:_CustomAttributeTypedArgument_Equals_m2261980307
s1a:__ZN19ShaderPropertySheet24SetTextureScaleAndOffsetERK23FastTexturePropertyName8Vector2fS3_
zDi:__ZNK10Assembly_t18get_assemblyName_9Ev
MFl:_Array_InternalArray__get_Item_TisLink_t544317964_m1669566993_gshared
Fzb:__ZN9GfxDevice18SetGlobalDepthBiasEff
Wvn:__ZN6il2cpp6icalls8mscorlib6System8MonoType12get_AssemblyEP20Il2CppReflectionType
uFj:_IsolatedStorageException__ctor_m3386787868
Dtf:_TypeBuilder_MakeGenericType_m2799607032
YQg:__ZNK41RemotingServices_t1401195504_StaticFields29get__serializationFormatter_1Ev
HTa:__ZN14SharedMeshData22ClearCachedBoneWeightsEv
Pym:_RepeatContext_get_Start_m1076992038
z9l:_ReadOnlyCollection_1_IndexOf_m3669095250_gshared
Ag:_emscripten_glGetPointerv
pqm:__ZN26X509Certificate_t48924302528set_m_signaturealgoparams_13EP22ByteU5BU5D_t4116647657
HKl:_List_1_System_Collections_Generic_IEnumerableU3CTU3E_GetEnumerator_m3687886202_gshared
DEl:_Dictionary_2_Do_CopyTo_TisKeyValuePair_2_t3842366416_TisRuntimeObject_m1564656153_gshared
vO:__ZN8Animator22ApplyBuiltinRootMotionEv
Z$n:__ZN15dense_hashtableI10KeyWrapperIP18Il2CppGenericClassES3_N6il2cpp8metadata22Il2CppGenericClassHashEN14dense_hash_setIS3_S6_NS3_14EqualsComparerINS5_25Il2CppGenericClassCompareEEENSt3__29allocatorIS3_EEE8IdentityESA_SD_E5clearEv
PUb:__Z26ApplyMaterialPassWithCacheRK18SharedMaterialDataR17ShaderPassContextP6ShaderPN9ShaderLab4PassEibPKNS6_10GrabPassesEPNS6_11SubProgramsEPK22DeviceRenderStateBlock
bdl:__Z55RuntimeInvoker_DateTime_t3738529785_TimeSpan_t881159249PFvvEPK10MethodInfoPvPS4_
wRe:__ZL81Camera_t4157153871_CustomAttributesCacheGenerator_Camera_RaycastTry2D_m2460696262P21CustomAttributesCache
Cxk:__ZNK42EqualityComparer_1_t770273628_StaticFields14get__default_0Ev
bBi:_MulticastDelegate_KPM_m22863605
cQh:_InternalEnumerator_1_get_Current_m1897120917_AdjustorThunk
q0m:__ZL25UnresolvedVirtualCall_175P12Il2CppObjectfaPK10MethodInfo
oAi:_MonoType_ReorderParamArrayArguments_m2458683451
eSg:_FormatterConverter_ToInt16_m4282804414
Dal:__Z81RuntimeInvoker_Void_t1185182177_Int64_t3736567304_RuntimeObject_Int64_t3736567304PFvvEPK10MethodInfoPvPS4_
p9d:_StandaloneInputModule_ProcessTouchPress_m4019232747
Wnj:_FileStream__ctor_m3151488352
kqh:_Array_swap_m547389985
Ccb:__ZN8Renderer23VirtualRedirectTransferER14SafeBinaryRead
D_k:_UInt32_ToString_m2420423038
yHl:_List_1_System_Collections_IList_Add_m634558835_gshared
s9l:_ReadOnlyCollection_1_System_Collections_IList_get_IsFixedSize_m1923250479_gshared
wDj:_FileStream_get_Length_m426703983
d_g:__ZN50U3CMouseDragOutsideRectU3Ec__Iterator1_t390924187819set_U3CrectU3E__1_2E16Rect_t2360479859
$3h:_Enumerator__ctor_m1558933899_AdjustorThunk
Aim:__ZN24UnityEvent_1_t383260525719set_m_InvokeArray_4EP24ObjectU5BU5D_t2843939325
LMe:__ZL88BigInteger_t2902905090_CustomAttributesCacheGenerator_BigInteger_op_Implicit_m3414367033P21CustomAttributesCache
Bgn:__ZN6il2cpp2vmL15GetBitmapNoInitEP11Il2CppClassPjRjj
EPl:_List_1_Remove_m2092085040_gshared
Mqc:__ZL13MotionHandleriPK27EmscriptenDeviceMotionEventPv
ZMh:__ZNK32InternalEnumerator_1_t23687585839get_idx_1Ev
hii:__ZN19Context_t397123470720set_serverSettings_3EP29TlsServerSettings_t4144396432
LX:__ZN12AudioManager5ResetEv
T2k:__Z67RuntimeInvoker_Boolean_t97287965_RuntimeObject_SByteU26_t3619038962PFvvEPK10MethodInfoPvPS4_
Fde:__ZN27ClipperRegistry_t242868040916set_m_Clippers_1EP24IndexedSet_1_t2673511092
QQe:__ZL68DisallowMultipleComponent_t1422053217_CustomAttributesCacheGeneratorP21CustomAttributesCache
i4l:_ReadOnlyCollection_1_get_Count_m1336304542_gshared
bff:__ZL111LayoutUtility_t2745813735_CustomAttributesCacheGenerator_LayoutUtility_U3CGetPreferredHeightU3Em__6_m3049688934P21CustomAttributesCache
iXh:__ZN16VirtFuncInvoker2Ii26DateTimeOffset_t3229287507S0_E6InvokeEjP12Il2CppObjectS0_S0_
_wa:__ZN6prcoreL17RemapGenericFloatI17TexFormatRGBAHalf15TexFormatRGHalfEEvPKNS_9InnerInfoE
CQi:__ZNK26HttpWebRequest_t166943651519get_servicePoint_24Ev
WIn:__ZNK15dense_hashtableINSt3__24pairIK10KeyWrapperIPK14Il2CppAssemblyEPK22Il2CppMonoAssemblyNameEES6_N6il2cpp5utils11PointerHashIS4_EEN14dense_hash_mapIS6_SA_SF_NS6_14EqualsComparerINS0_8equal_toIS5_EEEENS0_9allocatorISB_EEE9SelectKeyESK_SM_E10test_emptyEj
rJh:_InternalEnumerator_1_System_Collections_IEnumerator_Reset_m779787360_gshared
Rvj:__ZNK30DateTimeFormatInfo_t240585370126get_fullDateTimePattern_21Ev
L8n:__ZN6il2cpp6icalls8mscorlib6System11Environment20GetWindowsFolderPathEi
T7i:_Convert_ToBoolean_m2833752130
qC:__ZN7mecanim5human18HumanPoseBlendNodeERNS0_9HumanPoseEPS1_f
qyd:_UNITY_FT_RoundFix
s7:__ZN23CloudWebServicesManager23VirtualRedirectTransferER17RemapPPtrTransfer
uho:_GC_is_heap_ptr
c_c:__ZN9Scripting11UnityEngine8GUIProxy12CleanupProxyEv
vK:__Z14resize_trimmedINSt3__26vectorI24CompressedAnimationCurve13stl_allocatorIS2_L18MemLabelIdentifier26ELi16EEEEEvRT_j
rjk:_ASN1_DecodeTLV_m1200977460
e9f:_UnityEventBase_PrepareInvoke_m1785382128
hUf:__ZN21InterfaceFuncInvoker1IsP12Il2CppObjectE6InvokeEjP11Il2CppClassS1_S1_
NYl:_Collection_1_IsSynchronized_m4171956644_gshared
M6l:_ReadOnlyCollection_1_System_Collections_Generic_IListU3CTU3E_set_Item_m1584697503_gshared
Iuf:__ZN23InterfaceActionInvoker2IP12Il2CppObjectP20Delegate_t1188392813E6InvokeEjP11Il2CppClassS1_S1_S3_
Xnm:_InternalAsyncResult_get_CompletedWithError_m3777099678
ouh:_Char_System_IConvertible_ToUInt32_m3901815580
abh:_Scrollbar_set_onValueChanged_m346467699
fod:__ZN13ProduceHelperI13BoxCollider2DLb0EE7ProduceE10MemLabelId18ObjectCreationMode
Aee:_ColorBlock_set_disabledColor_m2996580094
jdl:__Z157RuntimeInvoker_Int32_t2950945753_RuntimeObject_Int32_t2950945753_Int32_t2950945753_Int32_t2950945753_SByte_t1669577662_SByte_t1669577662_Int32U26_t1369213839PFvvEPK10MethodInfoPvPS4_
Ksh:_Byte_System_IConvertible_ToBoolean_m2888023769_AdjustorThunk
klm:_ListPool_1_Release_m957266927_gshared
DEe:__ZL105ConfigHandler_t4192437216_CustomAttributesCacheGenerator_ConfigHandler_ValidatePath_m3895556516____paths1P21CustomAttributesCache
BRc:__Z32Behaviour_Get_Custom_PropEnabledP12Il2CppObject
gLf:__ZN24ObjectRecord_t118746727216set_ArrayIndex_9EP22Int32U5BU5D_t385246372
Fsg:_Transform_set_localPosition_Injected_m2951700666
ILh:__ZN32InternalEnumerator_1_t323283923111set_array_0EP11Il2CppArray
Ivo:_write
J$a:__ZN14SafeBinaryRead19TransferSTLStyleMapINSt3__23mapIN4core12basic_stringIcNS3_20StringStorageDefaultIcEEEES7_NS1_4lessIS7_EE13stl_allocatorINS1_4pairIKS7_S7_EEL18MemLabelIdentifier1ELi16EEEEEEvRT_17TransferMetaFlags
RAa:__ZL51__ManagedRegistrationHelperFunction_QuaternionProxyPv
qMd:__ZN2UI6Canvas27UpdateEventIndexesRecursiveERi
z8:__ZN11UnityEngine15CloudWebService16SessionContainer21PrepareDataErrorEventERN4core12basic_stringIcNS2_20StringStorageDefaultIcEEEE
sln:__ZNK30dense_hashtable_const_iteratorINSt3__24pairIK10KeyWrapperIPK19Il2CppGenericMethodEPK26Il2CppGenericMethodIndicesEES6_N6il2cpp8metadata23Il2CppGenericMethodHashEN14dense_hash_mapIS6_SA_SE_NS6_14EqualsComparerINSD_26Il2CppGenericMethodCompareEEENS0_9allocatorISB_EEE9SelectKeyESI_SK_EneERKSN_
C2d:_ExecuteEvents_get_pointerUpHandler_m3515704212
xvh:_ArrayList_set_Item_m2003485935
M9n:__ZNSt3__218uninitialized_copyIPNS_4pairIK10KeyWrapperIPK19Il2CppGenericMethodEP10MethodInfoEESB_EET0_T_SD_SC_
ZEf:_SatelliteContractVersionAttribute__ctor_m3630863995
Zkc:__Z36CreateScriptingArrayFromUnityObjectsI13dynamic_arrayIP6CameraLj0EEE17ScriptingArrayPtrRKT_PKN5Unity4TypeE
OKe:__ZL79Convert_t2465617642_CustomAttributesCacheGenerator_Convert_ToUInt64_m3102114524P21CustomAttributesCache
S7d:_MouseButtonEventData_PressedThisFrame_m1060658845
m_d:_AxisEventData_get_moveVector_m270528189
FPh:_InternalEnumerator_1_System_Collections_IEnumerator_get_Current_m191386315_gshared
qSm:_SymmetricTransform_CFB_m1755507252
lXm:__ZNK45AudioAmbisonicExtensionDefinition_t411842689016get_definition_1Ev
_Lc:__Z28BuildSingleStreamChannelInfoP11ChannelInfo17ShaderChannelMaskS1_
_Jo:_emscripten_glCopyTexSubImage2D__wrapper
oab:__ZNK13ScreenManager12GetIsFocusedEv
hgg:_PlayerConnection_get_isConnected_m911966057
Loe:_GraphicRegistry_GetGraphicsForCanvas_m4219276355
hFj:__ZN23InterfaceActionInvoker3IP22ByteU5BU5D_t4116647657iiE6InvokeEjP11Il2CppClassP12Il2CppObjectS1_ii
UKf:__ZN24ObjectReader_t194095739219set__rootObjectID_9Ex
qGn:__ZNK30dense_hashtable_const_iteratorINSt3__24pairIK10KeyWrapperINS1_IPK12PropertyInfoP11Il2CppClassEEEjEES9_17ReflectionMapHashIS8_EN14dense_hash_mapIS9_jSD_NS9_14EqualsComparerINS0_8equal_toIS8_EEEENS0_9allocatorISB_EEE9SelectKeyESI_SK_EneERKSN_
Aui:_NumberFormatter_FastToDecHex_m699829267
iCm:_PatternCompiler_MakeFlags_m1977119795
J4c:__Z35Transfer_Blittable_FixedBufferFieldI8JSONReadiEvRK29SerializationCommandArgumentsR31RuntimeSerializationCommandInfo
oFe:__ZL59StreamingContext_t3711869237_CustomAttributesCacheGeneratorP21CustomAttributesCache
Btn:__ZNSt3__213__vector_baseIN6il2cpp2os19SocketHandleWrapperENS_9allocatorIS3_EEED2Ev
cwe:__ZL48_Type_t3588564251_CustomAttributesCacheGeneratorP21CustomAttributesCache
dvh:__ZN26CharEnumerator_t112147042112set_length_2Ei
Iik:_BigInteger_GeneratePseudoPrime_m1941064930
Maf:__ZL81FontUpdateTracker_t1839077620_CustomAttributesCacheGenerator_U3CU3Ef__mgU24cache0P21CustomAttributesCache
ldb:__ZN28ReflectionProbeAnchorManager18RemoveCachedAnchorERK4PPtrI9TransformE
Mb:invoke_viiffi
uye:__ZL103RegionInfo_t1090270226_CustomAttributesCacheGenerator_RegionInfo_t1090270226____NativeName_PropertyInfoP21CustomAttributesCache
woc:__ZN13sorted_vectorINSt3__24pairIN4core12basic_stringIcNS2_20StringStorageDefaultIcEEEEPK17MessageIdentifierEEN10vector_mapIS6_S9_NS0_4lessIS6_EENS0_9allocatorISA_EEE13value_compareESF_E10insert_oneERKSA_
tO:__ZNSt3__227__insertion_sort_incompleteIRPFbPKN8Animator11AnimatorJobES4_EPS4_EEbT0_S9_T_
nuj:__ZNK23CultureInfo_t415784306815get_textInfo_16Ev
eii:__Z25Il2CppCodeGenWriteBarrierI27SslClientStream_t3914624661EvPPT_S2_
REf:_ResourceSet_ReadResources_m3663669011
jdg:_Mathf_CeilToInt_m432108984
P3a:__ZNK12CubemapArray20GetRuntimeMemorySizeEv
WVk:_TimeSpan_FromHours_m1109641064
tah:_ScrollRect_get_minWidth_m1325838756
Nuc:__Z14resize_trimmedINSt3__26vectorIN9ShaderLab18SerializedPropertyENS0_9allocatorIS3_EEEEEvRT_j
n$d:__ZNK27BaseInputModule_t201926887819get_m_EventSystem_6Ev
iIb:__Z18Transfer_BlittableI17RemapPPtrTransferLb0EN4math12int3_storageEEvRK29SerializationCommandArgumentsR31RuntimeSerializationCommandInfo
dQe:__ZL92StaticAccessorAttribute_t2432663902_CustomAttributesCacheGenerator_U3CNameU3Ek__BackingFieldP21CustomAttributesCache
xSh:_InternalEnumerator_1__ctor_m4124630986_gshared
i9a:__ZN12SharedObjectI23TextureStreamingResultsLb1E27SharedObjectDeleteReleaseOpIS0_EE5ResetEv
D0d:_EventSystem_set_current_m38955169
Umd:__ZN13BoxCollider2D23VirtualRedirectTransferER18StreamedBinaryRead
CDk:_KeyValuePair_2_set_Value_m3358607572_gshared
Tcf:__ZL53Selectable_t3250028441_CustomAttributesCacheGeneratorP21CustomAttributesCache
wAm:_CostDelegate_EndInvoke_m2797921932
G2a:__ZN10VertexData8TransferI24GenerateTypeTreeTransferEEvRT_
izj:__ZN6Guid_t9set__k_10Eh
gwg:__ZNK26ClientIdentity_t142804684421get__proxyReference_7Ev
bbj:__ZN21InterfaceFuncInvoker1I19Decimal_t2948259380P12Il2CppObjectE6InvokeEjP11Il2CppClassS2_S2_
h9n:__ZN13Il2CppHashMapIPK19Il2CppGenericMethodP10MethodInfoN6il2cpp8metadata23Il2CppGenericMethodHashENS6_26Il2CppGenericMethodCompareENSt3__29allocatorINS9_4pairIK10KeyWrapperIS2_ES4_EEEEEC2EjRKS7_RKS8_
mAg:__ZN19Context_t328544694424set_context_properties_7EP21ArrayList_t2718874744
Fpg:_Screen_get_dpi_m495672463
JPk:_UTF8Encoding_InternalGetByteCount_m2120178851
Qci:__ZN18VirtActionInvoker1I25RSAParameters_t1728406613E6InvokeEjP12Il2CppObjectS0_
XPe:__ZL130NativeTypeAttribute_t2250406315_CustomAttributesCacheGenerator_NativeTypeAttribute_set_IntermediateScriptingStructName_m3613994509P21CustomAttributesCache
Udo:_GC_default_oom_fn
lic:__ZL10CullLightsRK22SceneCullingParametersR11CullResults
cXg:_InputField_SendOnSubmit_m3463846103
Zdj:_Convert_ToUInt64_m3170916409
CD:__ZN7mecanim12statemachine20GetBlendTreeConstantERKNS0_13StateConstantEi
hvi:_Int64_System_IConvertible_ToInt16_m4062196970_AdjustorThunk
rv:__ZN7mecanim5human5Human8TransferI9BlobWriteEEvRT_
kKc:__Z40GetTemporaryCachePathApplicationSpecificv
eyb:__ZN9GfxDevice16EndAsyncJobFrameEv
Zkl:__Z99RuntimeInvoker_Int32_t2950945753_Ray_t3785851493_RuntimeObject_Single_t1397266774_Int32_t2950945753PFvvEPK10MethodInfoPvPS4_
UFn:__ZNK15dense_hashtableINSt3__24pairIK10KeyWrapperINS1_IPK12PropertyInfoP11Il2CppClassEEEjEES9_17ReflectionMapHashIS8_EN14dense_hash_mapIS9_jSD_NS9_14EqualsComparerINS0_8equal_toIS8_EEEENS0_9allocatorISB_EEE9SelectKeyESI_SK_E10test_emptyERK30dense_hashtable_const_iteratorISB_S9_SD_SM_SI_SK_E
aBd:_UNITY_tt_face_load_hhea
__:__ZN12AudioManager27InitialCompleteDomainReloadEv
Vtj:__ZN36CultureInfo_t4157843068_StaticFields23set_shared_table_lock_5EP12Il2CppObject
kX:__ZN4PPtrI15AudioMixerGroupE8TransferI19StreamedBinaryWriteEEvRT_
ssg:__ZN28TrackedReference_t119977755611set_m_Ptr_0Ei
g5n:__ZN15dense_hashtableINSt3__24pairIK10KeyWrapperIPcES3_EES4_N6il2cpp5utils15PassThroughHashIS3_EEN14dense_hash_mapIS4_S3_SA_NS4_14EqualsComparerINS0_8equal_toIS3_EEEENS0_9allocatorIS6_EEE9SelectKeyESF_SH_E16reset_thresholdsEv
pe:___syscall3
BUe:__ZL95MonoBehaviour_t3962482529_CustomAttributesCacheGenerator_MonoBehaviour_CancelInvoke_m3252264575P21CustomAttributesCache
Pkl:__Z135RuntimeInvoker_RaycastHit2D_t2279581989_Vector2_t2156229523_Vector2_t2156229523_Single_t1397266774_Int32_t2950945753_Single_t1397266774PFvvEPK10MethodInfoPvPS4_
ze:___syscall6
kzb:__ZN9GfxDevice15GetNextCPUFenceEv
te:___syscall4
aha:__ZN24ProfilerCallbacksHandler27RegisterCreateEventCallbackEPFvPK23UnityProfilerMarkerDescPvES3_
DNg:_ReturnMessage__ctor_m2352989078
Hig:__ZN39PlayableBinding_t354260709_StaticFields21set_DefaultDuration_5Ed
Zbn:__ZN34Physics2D_t1528932956_StaticFields31set_m_LastDisabledRigidbody2D_0EP18List_1_t2411569343
axb:__ZNSt3__26__treeINS_12__value_typeIN4core12basic_stringIcNS2_20StringStorageDefaultIcEEEEPN16MemoryFileSystem4NodeEEENS_19__map_value_compareIS6_SA_NS_4lessIS6_EELb1EEE13stl_allocatorISA_L18MemLabelIdentifier55ELi16EEE7destroyEPNS_11__tree_nodeISA_PvEE
_eh:__ZNK16Text_t190188271442get_m_DisableFontTextureRebuiltCallback_35Ev
ekl:__Z67RuntimeInvoker_Boolean_t97287965_TextGenerationSettings_t1351628751PFvvEPK10MethodInfoPvPS4_
c3n:__ZN6il2cpp2vm3RCW14QueryInterfaceILb1EEEP14Il2CppIUnknownP15Il2CppComObjectRK10Il2CppGuid
iji:_TlsServerCertificateRequest__ctor_m1334974076
hfk:__ZNK23Contraction_t158927535417get_Replacement_1Ev
Bbb:__ZN14SafeBinaryRead21TransferSTLStyleArrayI13dynamic_arrayI33EnlightenTerrainChunksInformationLj0EEEEvRT_17TransferMetaFlags
tt:__ZN9Scripting11UnityEngine30RuntimeAnimatorControllerProxy9InitProxyEv
Fnh:__ZN40AppDomain_t1571427825_ThreadStaticFields30set_type_resolve_in_progress_3EP21Hashtable_t1853889766
v3n:__ZN6il2cpp2vmL25InflatePropertyDefinitionEPK12PropertyInfoPS1_P11Il2CppClassP20Il2CppGenericContext
Xbj:_Convert_ToInt32_m1613163543
mtl:__Z52RuntimeInvoker_TimeSpan_t881159249_Int32_t2950945753PFvvEPK10MethodInfoPvPS4_
O2g:_MatEntry__ctor_m1949610076
Q3l:_ReadOnlyCollection_1_System_Collections_ICollection_CopyTo_m3127175806_gshared
mh:_emscripten_glShaderBinary
fTj:_String_op_Inequality_m215368492
M9:__ZN15DownloadHandler19OnFinishReceiveDataEv
GZk:_UInt16_ToString_m760649087
ctb:__ZNK20LocalFileSystemPosix6ExistsERK13FileEntryData
M4i:_Queue_Dequeue_m2397857002
Ndl:__Z21RuntimeInvoker_Guid_tPFvvEPK10MethodInfoPvPS4_
Iel:__Z46RuntimeInvoker_CipherAlgorithmType_t1174400495PFvvEPK10MethodInfoPvPS4_
cHh:__ZNK32InternalEnumerator_1_t343728143611get_array_0Ev
qqm:__ZN26X509Certificate_t48924302521set_issuerUniqueID_19EP22ByteU5BU5D_t4116647657
$3f:_Camera_GetAllCameras_m668492922
x8k:__Z32RuntimeInvoker_Label_t2281661643PFvvEPK10MethodInfoPvPS4_
xSl:__ZNK19Queue_1_t120077810614get__version_3Ev
gPd:__Z58Register_UnityEngine_Canvas_GetETC1SupportedCanvasMaterialv
lWk:_TimeSpan_op_Inequality_m2467851530
RXf:__ZN27DES_t821106792_StaticFields19set_semiWeakKeys_11EP25ByteU5BU2CU5D_t4116647658
WCl:_Array_Sort_TisUIVertex_t4057497605_m3996333845_gshared
xPj:_ToBase64Transform_get_CanReuseTransform_m702204640
ZMi:__ZNK36NameObjectCollectionBase_t209184736419get_m_defCapacity_5Ev
N5e:__ZL73ContactFilter2D_t3805203441_CustomAttributesCacheGenerator_maxNormalAngleP21CustomAttributesCache
orf:__ZN31OpCodes_t126150456_StaticFields13set_Ldftn_205E17OpCode_t123070264
eil:__Z53RuntimeInvoker_PropertyName_t3749835189_RuntimeObjectPFvvEPK10MethodInfoPvPS4_
Iqh:_Swapper_BeginInvoke_m1688449973
L6f:_Display_get_renderingWidth_m1970428952
Mel:__Z81RuntimeInvoker_Void_t1185182177_RuntimeObject_Int32_t2950945753_Int64_t3736567304PFvvEPK10MethodInfoPvPS4_
$vc:__ZN15SerializeTraitsI13dynamic_arrayIN9ShaderLab21SerializedBindChannelELj0EEE8TransferI19StreamedBinaryWriteEEvRS3_RT_
rx:__ZN7mecanim5human5HumanC2Ev
CU:__ZNSt3__26vectorIN4core12basic_stringIcNS1_20StringStorageDefaultIcEEEE13stl_allocatorIS5_L18MemLabelIdentifier1ELi16EEE21__push_back_slow_pathIS5_EEvOT_
lHk:_Enumerator_System_Collections_IEnumerator_Reset_m3057416204_AdjustorThunk
tUe:__ZL92Mesh_t3648964284_CustomAttributesCacheGenerator_Mesh_SetTriangles_m2205169959____baseVertex3P21CustomAttributesCache
Hql:__Z52RuntimeInvoker_Int32_t2950945753_HitInfo_t3229609740PFvvEPK10MethodInfoPvPS4_
hbl:__Z86RuntimeInvoker_Boolean_t97287965_Int16_t2552820387_Int16_t2552820387_Int32_t2950945753PFvvEPK10MethodInfoPvPS4_
lJe:__ZL80Convert_t2465617642_CustomAttributesCacheGenerator_Convert_ToBoolean_m2807110707P21CustomAttributesCache
rGa:__ZN9Scripting11UnityEngine11CameraProxy12CleanupProxyEv
Rjm:_IndexedSet_1_IndexOf_m241693686_gshared
N1l:_Collection_1_System_Collections_IList_Add_m1802516464_gshared
VEk:__ZNK22Enumerator_t214645748710get_next_1Ev
dSd:__ZN11UnityEngine15PlatformWrapper30GetGraphicsDriverLibraryStringEv
fNb:__ZL17Transfer_GUIStyleI19StreamedBinaryWriteLb1EEvRK29SerializationCommandArgumentsR31RuntimeSerializationCommandInfo
iHg:_CADMethodReturnMessage_GetException_m4034410903
$_k:_UInt64_System_IConvertible_ToSingle_m925613075_AdjustorThunk
YHn:__ZN6il2cpp2vm10Reflection27GetCustomAttributesCacheForEPK12PropertyInfo
RZm:__ZL24UnresolvedVirtualCall_40P12Il2CppObjectS0_PK10MethodInfo
hmm:_ListPool_1__cctor_m704263611_gshared
Cxg:__ZNK36SoapServices_t133988723_StaticFields15get__xmlTypes_0Ev
ju:__ZN16MecanimAnimation24DeleteAnimatedPropertiesERP26IAnimatedPropertyEvaluator
mxi:_Math_Min_m3468062251
ZDj:__ZN28StreamAsyncResult_t78024851212set_nbytes_4Ei
Q7b:__Z14DrawGUITextureRK5RectTIfEP7Texture11ColorRGBA32P8Materiali
VG:__Z32GenerateRootMotionRotationCurvesRNSt3__26vectorI15RootMotionCurve13stl_allocatorIS1_L18MemLabelIdentifier1ELi16EEEERK17AnimationCurveTplI11QuaternionfE
uIk:__ZN22Enumerator_t326161813313set_current_3E22UILineInfo_t4195266810
cgf:__ZN23ILTokenInfo_t232577511414set_code_pos_1Ei
B_a:__ZNK15PlayableMethods18InvokeProcessFrameER18ScriptingObjectPtrRK9HPlayableP18ScriptingFrameDataRK9FrameData
pN:__ZN9BlobWrite8TransferI22OffsetPtrArrayTransferIKN4math7_float4EEEEvRT_PKc17TransferMetaFlags
htg:_Transform_IsChildOf_m224006092
ked:__ZNK11b2EdgeShape7RayCastEP15b2RayCastOutputRK14b2RayCastInputRK11b2Transformi
s4c:__ZN9JSONWrite8TransferI4AABBEEvRT_PKc17TransferMetaFlags
Usc:__ZN15dense_hashtableINSt3__24pairIKiN4core17string_with_labelILi1EEEEEi18SInt32HashFunctionN14dense_hash_mapIiS5_S7_NS0_8equal_toIiEE13stl_allocatorIS6_L18MemLabelIdentifier1ELi16EEE9SelectKeyESA_SD_E12expand_arrayEjN21dense_hash_map_traits17integral_constantIbLb0EEE
vrl:__Z58RuntimeInvoker_Void_t1185182177_ContactPoint2D_t3390240644PFvvEPK10MethodInfoPvPS4_
YKk:_List_1_Clear_m2154023298_gshared
kXi:__ZN27X509Certificate2_t71404912618set_issuer_name_10EP32X500DistinguishedName_t875709727
b_d:_AbstractEventData_get_used_m2991176710
KNh:_InternalEnumerator_1_get_Current_m3191242573_AdjustorThunk
ETe:__ZL91RectOffset_t1369453676_CustomAttributesCacheGenerator_RectOffset_InternalCreate_m1442450486P21CustomAttributesCache
Rnl:__Z94RuntimeInvoker_Void_t1185182177_ObjectU5BU5DU26_t712384779_Int32_t2950945753_Int32_t2950945753PFvvEPK10MethodInfoPvPS4_
grl:__Z71RuntimeInvoker_Void_t1185182177_CustomAttributeNamedArgument_t287865710PFvvEPK10MethodInfoPvPS4_
Tjd:__ZN10Collider2D13AwakeFromLoadE17AwakeFromLoadMode
SSm:_Aes__ctor_m178909601
J6a:__ZNK9Texture2D20GetRuntimeMemorySizeEv
vce:_CanvasScaler_set_screenMatchMode_m2975492035
Z7c:__ZN5Unity9rapidjson13GenericReaderINS0_4UTF8IcEES3_13JSONAllocatorE9ParseTrueILj0ENS0_19GenericStringStreamIS3_EENS0_15GenericDocumentIS3_S4_S4_EEEEvRT0_RT1_
mNl:_List_1_Clear_m2003943277_gshared
Ih:_emscripten_glUniform2iv
xAj:_Guid_ToString_m2120285561
mJk:_Enumerator_Dispose_m2367629053_gshared
xQk:_UnicodeEncoding_CopyChars_m785272451
ACk:_Enumerator_Dispose_m1204547613_AdjustorThunk
mud:_UNITY_FT_Outline_Transform
Zfi:_CipherSuite_get_ExchangeAlgorithmType_m1633709183
LPe:__ZL118NativeMethodAttribute_t4187428193_CustomAttributesCacheGenerator_NativeMethodAttribute_set_HasExplicitThis_m2961870915P21CustomAttributesCache
ghn:__ZN6il2cpp2vm5Class10GetMethodsEP11Il2CppClassPPv
sWd:__ZNK25UnityWebRequestJavaScript17GetUploadProgressEv
Tdc:__Z30AddDefaultStreamsToMeshBuffersR9GfxDeviceR11MeshBuffersRK16DrawBuffersRange17ShaderChannelMaskS6_
tph:_Array_GetValue_m2528546681
Jnj:__ZN24StreamReader_t400993589917set_base_stream_9EP18Stream_t1273022909
cJl:_List_1_GetEnumerator_m1430071802_gshared
xCh:__ZNK31ArrayReadOnlyList_1_t147838354311get_array_0Ev
$1b:__ZN7ApiGLES17DeleteFramebufferERN2gl6HandleILNS0_10ObjectTypeE9EEES3_
xqo:__ZN21Explosion_t165675460120set_fadeMultiplier_5Ef
p4b:__ZN15UniformTFMethod13MapBoneBufferEj
zKd:__ZN2UI14CanvasRendererD2Ev
dGl:_Array_InternalArray__get_Item_TisParameterModifier_t1461694466_m29553316_gshared
Zuf:_FieldInfo_internal_from_handle_type_m3256989094
zvi:_Int64_CompareTo_m1928360444_AdjustorThunk
vxn:__ZN6il2cpp6icalls8mscorlib6SystemL23GetPropertiesByNameImplINS_5utils10functional6FilterINSt3__212basic_stringIcNS7_11char_traitsIcEENS7_9allocatorIcEEEENS4_13VmStringUtils21CaseSensitiveComparerEEEEEP11Il2CppArrayPK10Il2CppTypejRKT_
kVb:__Z9SetupArgviPPKc
qcj:_Convert_ToInt64_m2075031821
yXe:__ZL111ScriptableObject_t2528358522_CustomAttributesCacheGenerator_ScriptableObject_CreateScriptableObject_m3504774547P21CustomAttributesCache
izg:__ZNK24ProviderData_t32721233189get_Ref_0Ev
sZd:__ZL55__ManagedRegistrationHelperFunction_ReferencePointProxyPv
RQg:_RemotingException__ctor_m1015537352
Ydk:__ZNK26SimpleCollator_t287783472917get_cjkLv1Table_5Ev
lHo:_glTexParameteri__wrapper
EBh:__ZN25GenericVirtActionInvoker2IP12Il2CppObjectiE6InvokeEPK10MethodInfoS1_S1_i
T3a:__ZN12CubemapArray23VirtualRedirectTransferER24GenerateTypeTreeTransfer
Vna:__ZN12FileAccessor4OpenER15FileSystemEntry14FilePermission16FileAutoBehavior
HUa:__ZNSt3__26vectorI4PPtrI6ShaderE13stl_allocatorIS3_L18MemLabelIdentifier53ELi16EEE8__appendEj
t8n:__ZN6il2cpp2os9Directory6CreateERKNSt3__212basic_stringIcNS2_11char_traitsIcEENS2_9allocatorIcEEEEPi
Zjn:__ZNK10KeyWrapperIPKcE8isNormalEv
NMa:__ZN23TransformChangeDispatch32QueueTransformChangeIfHasChangedERK15TransformAccess
sBi:__ZN40NumberFormatter_t1182924621_StaticFields34get_address_of_TensExponentTable_1Ev
hKo:_glTexImage3D__wrapper
Kub:__ZN15ArchiveReadFile5WriteEyPKvPy
SHk:_Enumerator_VerifyState_m3505660202_AdjustorThunk
eDi:_Assembly_get_FullName_m293988418
epd:__ZN22WorldContactListener2D8PreSolveEP9b2ContactPK10b2Manifold
Ajf:__ZN25MethodBuilder_t280731675311set_ilgen_8EP23ILGenerator_t1388622344
F3f:_Camera_get_pixelRect_Injected_m2326986893
wci:__ZN25PrivateKeyInfo_t66802799311set__list_3EP21ArrayList_t2718874744
Ugm:__ZN27InvokableCall_4_t275698074614set_Delegate_0EP24UnityAction_4_t682480391
_Da:__ZN9Scripting11UnityEngine25ManagedStreamHelpersProxy9InitProxyEv
x:tempValue
gNj:__ZN23SHA384Managed_t741585759set_H7_14Ey
_pc:__Z29StdTemplateConversionFunctionIaiEbPvR14SafeBinaryRead
smo:__ZN6il2cpp8metadata24Il2CppGenericContextHash4HashEPK20Il2CppGenericContext
eNh:_InternalEnumerator_1_get_Current_m356936020_AdjustorThunk
C8b:__ZN6Camera21RenderODSWorldTextureERK11CullResultsRK19SharedRendererSceneR17ShaderPassContextNS_10RenderFlagE
qKd:__ZN4PPtrI6CameraE8TransferI19StreamedBinaryWriteEEvRT_
O4f:__ZN19Color32_t260050129210set_rgba_0Ei
Oui:_Int32_ToString_m141394615_AdjustorThunk
Ija:__Z29scripting_class_from_fullnamePKcS0_S0_
Noj:_Directory_GetCurrentDirectory_m219218555
eEf:__Z36il2cpp_codegen_com_get_or_create_ccwI14Il2CppIUnknownEPT_P12Il2CppObject
Ql:_llvm_floor_f32
_sg:_Transform_TransformDirection_m3784028109
Vbk:__ZN45MSCompatUnicodeTable_t1453885583_StaticFields21set_tailoringInfos_16EP31TailoringInfoU5BU5D_t1797664499
amh:_SmallXmlParser_UnexpectedEndError_m1914362401
$D:__ZN26AnimatorControllerPlayable18DeallocateBindingsEv
SEe:__ZL61FormatterTypeStyle_t3400733584_CustomAttributesCacheGeneratorP21CustomAttributesCache
Zke:__ZN19FontData_t74662006915set_m_BestFit_3Eb
Mao:__ZN4utf88internal20is_overlong_sequenceIiEEbjT_
Snc:__ZN20TextureStreamingData19AllocateTextureInfoEP17StreamingRendererjPK20StreamingTextureInfo
K1:__ZN11AudioSource19CreateOpenALRolloffEfff
WAd:_UNITY_FT_Stream_ReadAt
PPm:__Z25Il2CppCodeGenWriteBarrierI24Dictionary_2_t3261990503EvPPT_S2_
vsn:__ZN24dense_hashtable_iteratorINSt3__24pairIK10KeyWrapperIP9FieldInfoEiEES5_N6il2cpp5utils11PointerHashIS3_EEN14dense_hash_mapIS5_iSB_NS5_14EqualsComparerINS0_8equal_toIS4_EEEENS0_9allocatorIS7_EEE9SelectKeyESG_SI_EC2EPK15dense_hashtableIS7_S5_SB_SK_SG_SI_EPS7_SQ_b
aVk:_TimeSpan__ctor_m1896986612_AdjustorThunk
$vl:__ZNK36RC2Transform_t458321487_StaticFields14get_pitable_18Ev
UBb:__ZN13ComputeBuffer7SetDataER9GfxDevicePKvjj
Rxk:_EqualityComparer_1_System_Collections_IEqualityComparer_Equals_m1907027006_gshared
oyg:__Z25Il2CppCodeGenWriteBarrierI23ChannelData_t3353629972EvPPT_S2_
jgh:_ArgumentException__ctor_m1216717135
plg:_Ray_ToString_m1732834890_AdjustorThunk
Qzn:__ZN10KeyWrapperINSt3__24pairIPK14Il2CppAssemblyP11Il2CppClassEEEC2ERKS7_
qSk:__ZNK32RegisteredWaitHandle_t152953845417get__finalEvent_6Ev
g4c:__ZN9JSONWrite8TransferI13dynamic_arrayI5RectTIfELj0EEEEvRT_PKc17TransferMetaFlags
LKl:_List_1_System_Collections_IList_Contains_m3860993176_gshared
o5:__ZN11AudioModule22CreateAudioClipFromWWWEP10IWWWStreamPKcbbi
PAc:__ZN9Texture2DC2E10MemLabelId18ObjectCreationMode
gXb:__Z17DebugStringToFileIA59_cEvRKT_iPKci15LogMessageFlagsiiPFvRK11CppLogEntryE
cTf:_ObjectRecord_get_IsUnsolvedObjectReference_m1163921033
KZk:_UInt32_System_IConvertible_ToBoolean_m1763673183_AdjustorThunk
Z8f:_UnityEvent_AddListener_m2276267359
cr:__Z9SetLocalR15TransformAccessRKN4math7_float4Ey
QT:__ZZN8Animator15InitializeClassEvEN43FunctorImpl_449kDidModifyAnimatorController4CallEPviR11MessageData
thl:__Z35RuntimeInvoker_RangeInt_t2094684618PFvvEPK10MethodInfoPvPS4_
V2f:_Bounds_get_extents_m1304537151
EXa:__ZN6prcoreL11inner_clearILj4EEEvPhjjj
qf:_emscripten_glClear
BD:__ZN7mecanim12statemachine27CreateStateMachineWorkspaceEPKNS0_20StateMachineConstantEjR20RuntimeBaseAllocator
ZKg:_MethodCall_get_Args_m148309537
RDm:__ZNK18Parser_t24305093839get_gap_5Ev
pBm:__ZN30Match_t3408321083_StaticFields12set_empty_10EP17Match_t3408321083
LLg:_DictionaryEnumerator_get_Value_m2166220004
x0d:__ZN23EventSystem_t100366658828set_m_sendNavigationEvents_8Eb
rWm:_PCMReaderCallback_BeginInvoke_m3391809637
cda:__GLOBAL__sub_I_Runtime_SceneManager_0_cpp
L4k:__Z74RuntimeInvoker_Void_t1185182177_RuntimeObject_StreamingContext_t3711869237PFvvEPK10MethodInfoPvPS4_
Lgo:_GC_initialize_offsets
dFk:_Enumerator_MoveNext_m2142368520_AdjustorThunk
mta:__ZNK8Playable6HandleEv
MVg:_SetPropertyUtility_SetColor_m2229203028
qNn:_il2cpp_class_get_field_from_name
Myo:___cxa_guard_abort
Ula:__ZN14MessageHandler28MessageIDToMessageIdentifierEi
o3a:__ZNK11SpriteAtlas20GetRuntimeRenderDataEPK6Sprite
u7f:__ZNK25ArgumentCache_t218795839919get_m_IntArgument_2Ev
tCj:_FileSystemInfo__ctor_m3035148496
iri:_Int32_System_IConvertible_ToDecimal_m2190376994_AdjustorThunk
JDk:_KeyValuePair_2_set_Key_m2121548577_AdjustorThunk
Ptl:__Z46RuntimeInvoker_RefEmitPermissionSet_t484390987PFvvEPK10MethodInfoPvPS4_
UHe:__ZL88UTF7Encoding_t2644108479_CustomAttributesCacheGenerator_UTF7Encoding_GetBytes_m521917477P21CustomAttributesCache
jpe:__ZN27GridLayoutGroup_t304622046124set_m_ConstraintCount_17Ei
YU:__Z51Register_UnityEngine_Animator_get_hasBoundPlayablesv
RWl:_Collection_1_CopyTo_m3142835220_gshared
fGc:__ZNK9Scripting11UnityEngine12Vector3Proxycv8Vector3fEv
Em:emscriptenWebGLGetUniform
Sn:FUNCTION_TABLE_iiiiiiiiiii
IMm:_GUI_CallWindowDelegate_m3309453386
ozd:_cff_set_mm_blend
Q7m:_AnimationScriptPlayable_GetHandle_m632811930_AdjustorThunk
rTb:__ZN19GfxThreadableDevice15OnDeviceCreatedEb
ckc:__ZL10CleanUpJobP20CullingGroupsJobData
vhb:__ZN16BlendShapeVertex8TransferI19StreamedBinaryWriteEEvRT_
Rdc:__Z20IsRunningNativeTestsv
hCj:_DirectoryInfo_get_Exists_m3142069876
H7b:__ZN13RenderManager15BatchModeUpdateEv
qdm:_Predicate_1__ctor_m327447107_gshared
qW:__ZN20DiagnosticSwitchEnumI23FMODDebugDisplayOptionsE18SetValueFromStringEPKc
wX:__ZL16FMOD_ErrorString11FMOD_RESULT_656
jZi:_X509Chain_get_CertificateAuthorities_m804805415
wec:__Z14SetupLightmapsRK8Vector4fS1_R17ShaderPassContext
E5e:__ZL71ContactFilter2D_t3805203441_CustomAttributesCacheGenerator_useLayerMaskP21CustomAttributesCache
pSj:__ZNK20Evidence_t200814414815get__hashCode_3Ev
Ing:_Vector2_get_one_m738793577
Fld:__ZN10ClipperLib7Clipper15SetWindingCountERNS_5TEdgeE
$Sf:_InstanceComparer_System_Collections_IHashCodeProvider_GetHashCode_m1305577427
bLc:__ZNK4Mesh14GetIndexFormatEv
KCh:__ZN43U3CGetEnumeratorU3Ec__Iterator0_t375079332416set_U3CiU3E__0_0Ei
yug:_Vector2_get_magnitude_m2752892833_AdjustorThunk
D6d:__ZNK28PointerEventData_t380790109238get_U3CclickCountU3Ek__BackingField_18Ev
Dzi:__ZNK24MonoTypeInfo_t336698902518get_default_ctor_1Ev
RJm:_UriParser_set_DefaultPort_m4007715058
$1n:__ZN14dense_hash_mapI10KeyWrapperIP12Il2CppObjectEN6il2cpp2gc9CachedCCWENS4_5utils11PointerHashIS1_EENS3_14EqualsComparerINSt3__28equal_toIS2_EEEENSB_9allocatorINSB_4pairIKS3_S6_EEEEE13set_empty_keyERSH_
_Ea:__ZN9Scripting11UnityEngine12Experimental9Rendering21CameraPropertiesProxy9InitProxyEv
Fl:_glVertexAttribIPointer
VNk:_StringBuilder_ToString_m3317489284
FKc:__ZNK6Sprite10GetPaddingE20SpriteRenderDataMode
o3j:_Array_InternalArray__ICollection_Remove_TisUInt32_t2560061978_m733727733_gshared
DWf:_CryptographicException__ctor_m503735289
oIg:_ConstructionCall_get_CallSiteActivationAttributes_m3498917408
Gfm:__Z30InterlockedCompareExchangeImplIP24UnityAction_1_t682124106ET_PS2_S2_S2_
eEj:_Stream_EndRead_m1896469262
c2k:__Z93RuntimeInvoker_Boolean_t97287965_Int32_t2950945753_SByte_t1669577662_ExceptionU26_t3600731591PFvvEPK10MethodInfoPvPS4_
Nzj:_Guid_CompareTo_m243656946
FBd:_UNITY_ft_glyphslot_alloc_bitmap
sLh:__ZN32InternalEnumerator_1_t176556617111set_array_0EP11Il2CppArray
Aqk:_Dictionary_2_GetObjectData_m3463318060_gshared
pXi:_X509Certificate2_get_PrivateKey_m3900779210
Boi:_RSASslSignatureDeformatter_SetHashAlgorithm_m895570787
eia:__ZL36TransformAccessArray_InitializeClassPv
Mxm:_X509CrlEntry__ctor_m4013514048
foi:__ZN25SslStreamBase_t166741340714set_protocol_6EP26RecordProtocol_t3759049701
Qzj:__ZNK6Guid_t8get__b_1Ev
_ln:__ZN15dense_hashtableI10KeyWrapperIPK17Il2CppGenericInstES4_N6il2cpp8metadata21Il2CppGenericInstHashEN14dense_hash_setIS4_S7_NS4_14EqualsComparerINS6_24Il2CppGenericInstCompareEEENSt3__29allocatorIS4_EEE8IdentityESB_SE_E16reset_thresholdsEv
_gl:__Z87RuntimeInvoker_Color_t2555686324_Color_t2555686324_Color_t2555686324_Single_t1397266774PFvvEPK10MethodInfoPvPS4_
DFa:__ZN9Scripting11UnityEngine31ExcludeFromPresetAttributeProxy12CleanupProxyEv
uGd:_ft_raster1_render
xom:__ZNK29TlsServerSettings_t414439643218get_certificates_0Ev
Yti:__ZNK40NumberFormatter_t1182924621_StaticFields19get_TenPowersList_4Ev
JVc:__Z47Register_UnityEngine_Mesh_RecalculateBoundsImplv
xIk:_Enumerator_get_Current_m3382684163_AdjustorThunk
h6e:__ZL74ContactPoint2D_t3390240644_CustomAttributesCacheGenerator_m_OtherRigidbodyP21CustomAttributesCache
rnf:_OpCode_get_OperandType_m1634816806_AdjustorThunk
kWd:__ZN9Scripting11UnityEngine10Networking23CertificateHandlerProxy12CleanupProxyEv
rwi:_IntPtr_ToPointer_m4157623054
xxo:__ZNKSt3__221__basic_string_commonILb1EE20__throw_length_errorEv
Jxk:_EqualityComparer_1_System_Collections_IEqualityComparer_Equals_m245992594_gshared
Wcl:__Z52RuntimeInvoker_UInt64_t4134040092_Single_t1397266774PFvvEPK10MethodInfoPvPS4_
IBm:__ZNK27MatchCollection_t139536372010get_list_1Ev
xQg:__ZN46RemotingConfiguration_t4113740665_StaticFields19set_applicationID_0EP8String_t
hrf:__ZN31OpCodes_t126150456_StaticFields17set_Prefixref_198E17OpCode_t123070264
cQg:_RealProxy_GetObjectData_m3709348912
o7j:_Array_InternalArray__IndexOf_TisParameterModifier_t1461694466_m1227120810_gshared
K2b:__ZN18GfxFramebufferGLES13ReadbackImageER14ImageReferenceiiiiii
dmo:___cxx_global_var_init_15352
z8c:__ZN5Unity9rapidjson6WriterI16TempBufferWriterNS0_4UTF8IcEES4_13JSONAllocatorE11WriteStringEPKcj
Qck:__ZNK45MSCompatUnicodeTable_t1453885583_StaticFields20get_ignorableFlags_1Ev
p7e:__ZL95WebRequestUtils_t3541624225_CustomAttributesCacheGenerator_WebRequestUtils_RedirectTo_m55747000P21CustomAttributesCache
Dxa:__ZN6prcoreL12RemapGenericI17TexFormatARGB888815TexFormatRGB565EEvPKNS_9InnerInfoE
XY:__ZN4FMOD7Channel19setReverbPropertiesEPK29FMOD_REVERB_CHANNELPROPERTIES
uUh:__ZNK31InternalEnumerator_1_t80736363111get_array_0Ev
AHj:_StreamReader_Dispose_m156389394
wla:__ZN13MonoBehaviour22GetScriptFullClassNameEv
nOn:_il2cpp_object_get_class
oPj:_SymmetricAlgorithm_get_Padding_m1011382560
rIc:__ZN13ProduceHelperI11MonoManagerLb0EE7ProduceE10MemLabelId18ObjectCreationMode
Jwl:_RIPEMD160Managed_JJ_m112143231
IMk:_List_1_System_Collections_IList_Contains_m727430316_gshared
nYh:_Comparer_1__ctor_m191896560_gshared
bhk:_PreviousInfo_t2148130204_marshal_pinvoke_back
Qwb:__ZNK16MemoryFileSystem9EnumerateEPKcP19dynamic_block_arrayI13FileEntryInfoLj32EEbPPv19FileEnumerationFlag
_Rb:__ZN13MonoBehaviour9CallAwakeEv
fZg:_SpriteState_get_pressedSprite_m3868967445
WDi:__ZN37AssemblyDelaySignAttribute_t17644165411set_delay_0Eb
VTj:__ZN40SecurityElement_t1046076091_StaticFields19set_invalid_chars_8EP22CharU5BU5D_t3528271667
sXa:__ZN20SphericalHarmonicsL211AddWeightedERKS_f
g5k:__Z82RuntimeInvoker_RuntimeObject_Int64_t3736567304_Int64_t3736567304_Int64_t3736567304PFvvEPK10MethodInfoPvPS4_
uJb:__Z19TransferField_ArrayI17RemapPPtrTransfer27Converter_SimpleNativeClassI8GUIStyleEEvRK23StaticTransferFieldInfoR31RuntimeSerializationCommandInfoRT0_
Fwe:__ZL56AsyncCallback_t3962456242_CustomAttributesCacheGeneratorP21CustomAttributesCache
ePj:__ZNK30SymmetricAlgorithm_t425422308713get_IVValue_1Ev
L1c:__ZN9JSONWrite8TransferI10ColorRGBAfEEvRT_PKc17TransferMetaFlags
YAj:__ZN16VirtFuncInvoker5IiP22ByteU5BU5D_t4116647657iiP22CharU5BU5D_t3528271667iE6InvokeEjP12Il2CppObjectS1_iiS3_i
uTh:_InternalEnumerator_1__ctor_m3913006324_AdjustorThunk
Ola:__Z25scripting_method_get_name18ScriptingMethodPtr
uCk:__ZN22Enumerator_t335023290913set_current_3EP12Il2CppObject
oqi:_SslCipherSuite_ComputeKeys_m661027754
$ti:__ZN21CustomInfo_t43517979828set_DecimalTailSharpDigits_3Ei
OHb:__Z19TransferField_ArrayI14SafeBinaryRead16Converter_StringEvRK23StaticTransferFieldInfoR31RuntimeSerializationCommandInfoRT0_
pKd:__ZN2UI6Canvas8TransferI19StreamedBinaryWriteEEvRT_
kWe:__ZL68UpdateCanvasRectTransform_t1832875547_CustomAttributesCacheGeneratorP21CustomAttributesCache
eOg:__Z25Il2CppCodeGenWriteBarrierI34MethodReturnDictionary_t2551046119EvPPT_S2_
Jui:__ZN27NumberFormatter_t118292462122set__isCustomFormat_10Eb
HGi:__ZN26AssemblyBuilder_t3598852509set_sn_43EP22StrongName_t4093849377
WMi:__ZN36NameObjectCollectionBase_t209184736419set_m_defCapacity_5Ei
Ogo:_GC_exit_check
NEi:_AssemblyName_SetPublicKeyToken_m582470133
Ueh:__ZN16Text_t190188271413set_m_Text_31EP8String_t
AJ:__ZN7mecanim9animation9DenseClip8TransferI14SafeBinaryReadEEvRT_
Inm:__ZNK31InternalAsyncResult_t350428282014get__offset_10Ev
JEn:__ZNK30dense_hashtable_const_iteratorINSt3__24pairIK10KeyWrapperINS1_IPK11Il2CppImageP11Il2CppClassEEEjEES9_17ReflectionMapHashIS8_EN14dense_hash_mapIS9_jSD_NS9_14EqualsComparerINS0_8equal_toIS8_EEEENS0_9allocatorISB_EEE9SelectKeyESI_SK_EdeEv
bil:__Z52RuntimeInvoker_Boolean_t97287965_HitInfo_t3229609740PFvvEPK10MethodInfoPvPS4_
n0:__ZNK4PPtrI9AudioClipEcvPS0_Ev
yka:__Z20UnlockObjectCreationv
sYh:__ZN16VirtFuncInvoker2Ii19Color32_t2600501292S0_E6InvokeEjP12Il2CppObjectS0_S0_
Tec:__Z34SetupObjectBakedOcclusionInForwardbRK15SharedLightDataRK26SharedLightmapSettingsDataRK15LightmapIndicesR17ShaderPassContext
Okk:_DSAManaged_get_Random_m923751780
iia:__ZL29TransformAccessChangeCallbackPK15TransformAccessj
p9c:__ZL53__ManagedRegistrationHelperFunction_RaycastHit2DProxyPv
x8m:_Vector3_set_Item_m1772472431_AdjustorThunk
$1i:_Interpreter_PopulateGroup_m4042796257
_Di:__ZN38AssemblyFileVersionAttribute_t1492797210set_name_0EP8String_t
Qoc:__ZNSt3__26vectorINS_4pairIN4core12basic_stringIcNS2_20StringStorageDefaultIcEEEES6_EE13stl_allocatorIS7_L18MemLabelIdentifier38ELi16EEE6insertENS_11__wrap_iterIPKS7_EERSD_
qag:_RenderPipelineManager_DoRenderLoop_Internal_m3799666479
INf:__ZNK25TypeTagU5BU5D_t156391866414GetAtUncheckedEj
jN:__ZN9BlobWrite8TransferI22OffsetPtrArrayTransferI9OffsetPtrIN7mecanim12statemachine18StateMachineMemoryEEEEEvRT_PKc17TransferMetaFlags
IIm:__ZN14Uri_t10023632414set_userinfo_8EP8String_t
EZm:__ZL24UnresolvedVirtualCall_27P12Il2CppObjectS0_aPK10MethodInfo
gCi:_Object_FieldSetter_m3873125190
th:_emscripten_glStencilOpSeparate
_Yl:_Collection_1_System_Collections_IList_IndexOf_m3894953546_gshared
Sxl:_RSACryptoServiceProvider_OnKeyGenerated_m863837376
rum:_PKCS12_get_Certificates_m26161562
XMi:_NameObjectCollectionBase_Init_m2525481323
NG:__ZN13AnimationClip18GenerateMuscleClipEv
Sdc:__ZN15SkyboxGenerator28GetCubemapSkyboxVertexFormatEv
dBb:__ZN19ShaderPropertySheet24SetTextureWithExplicitIDERK23FastTexturePropertyNameP7Texture9TextureID
jbo:__ZN6il2cpp2vm6String8NewUtf16EPKDsi
M7n:__ZN6il2cpp2os10ThreadImpl12QueueUserAPCEPFvPvES2_
YDm:_RegularExpression__ctor_m119502265
X6g:_DelegatePInvokeWrapper_RaycastAllCallback_t1884415901
n4l:_ReadOnlyCollection_1_System_Collections_Generic_ICollectionU3CTU3E_Clear_m522482168_gshared
yIi:_DerivedType_IsByRefImpl_m2585680005
Fii:__Z25Il2CppCodeGenWriteBarrierI18Stream_t1273022909EvPPT_S2_
$dg:__ZNK21Matrix4x4_t18179018439get_m21_6Ev
_0c:__Z69Register_UnityEngine_GUILayoutUtility_Internal_GetWindowRect_Injectedv
vIg:_ConstructionCall_InitMethodProperty_m2021094586
OWc:__Z27Texture_CUSTOM_GetDataWidthP12Il2CppObject
BZj:__ZN20Encoding_t152332205624set_is_mail_news_save_12Eb
FGa:__ZN9Scripting11UnityEngine15BoneWeightProxy12CleanupProxyEv
XAc:__ZN23TextureStreamingResultsC2Ev
qgg:__ZN40U3CRegisterU3Ec__AnonStorey0_t240559509015set_messageId_0E6Guid_t
kgd:__ZN7b2World19ContactsCollideTaskEv
A7:__ZN23CloudWebServicesManager25RemoveCloudServiceHandlerEP19CloudServiceHandler
FDd:_UNITY_FT_Hypot
fFg:_MethodDictionary_get_InternalProperties_m321207497
q0e:__ZL53SpriteAtlas_t646931412_CustomAttributesCacheGeneratorP21CustomAttributesCache
Vtg:__Z25Il2CppCodeGenWriteBarrierI19Queue_1_t1200778106EvPPT_S2_
Udf:__ZL74CanvasScaler_t2767979955_CustomAttributesCacheGenerator_m_DefaultSpriteDPIP21CustomAttributesCache
z1f:__ZNK26DelegateU5BU5D_t170362784014GetAtUncheckedEj
oEm:__ZN28CaptureAssertion_t378608458911set_group_2EP25CapturingGroup_t751358689
ug:_emscripten_glGetError
hgf:__ZN23ILGenerator_t138862234414set_code_len_2Ei
a_:__Z14FMOD_FILE_SeekPvjS_
rrn:__ZN14dense_hash_mapI10KeyWrapperIPK11Il2CppClassEPKcN6il2cpp5utils11PointerHashIS1_EENS4_14EqualsComparerINSt3__28equal_toIS3_EEEENSC_9allocatorINSC_4pairIKS4_S6_EEEEE3endEv
O3g:_MaskableGraphic_OnDisable_m1757789159
iAg:__ZN39ClientContextTerminatorSink_t406411502114set__context_0EP19Context_t3285446944
RYa:__ZN7TextureC2E10MemLabelId18ObjectCreationMode
v$g:_LayoutGroup__ctor_m2162961217
x0k:_ValueType_t3640485471_marshal_pinvoke_cleanup
nlc:__ZNK13RenderTexture32CalculateNeedsInvertedProjectionEv
crc:__ZN10systeminfo18GetOperatingSystemEv
ym:emscriptenWebGLGet
w_n:__ZN14dense_hash_mapI10KeyWrapperINSt3__24pairIPKcS4_EEEi24NamespaceAndNamePairHashNS6_14EqualsComparerI26NamespaceAndNamePairEqualsEENS1_9allocatorINS2_IKS6_iEEEEED2Ev
ioa:__Z19CanReplaceComponentRN5Unity9ComponentEPKNS_4TypeEPN4core12basic_stringIcNS5_20StringStorageDefaultIcEEEE
KKj:_UnmanagedMemoryStream_Flush_m1540584491
gMa:__ZN14SafeBinaryRead8TransferIN10GameObject13ComponentPairEEEvRT_PKc17TransferMetaFlags
fBg:__ZN25ReturnMessage_t137698560816set__exception_6EP11Exception_t
cge:__ZN17Color_t25556863247set_r_0Ef
rzj:_GuidParser_ParseGuid2_m1914838819
QCc:__ZN12CubemapArray11InitTextureEiii13TextureFormatb
D0m:__ZL25UnresolvedVirtualCall_188P12Il2CppObject22OrderBlock_t1585977831S1_PK10MethodInfo
oOc:__Z17GetSceneBuildInfoRKN4core12basic_stringIcNS_20StringStorageDefaultIcEEEEiR14SceneBuildInfo
IHl:_List_1_System_Collections_IList_get_Item_m1112579679_gshared
XBe:__ZL70ReliabilityContractAttribute_t502331440_CustomAttributesCacheGeneratorP21CustomAttributesCache
rEh:_InternalEnumerator_1_System_Collections_IEnumerator_get_Current_m55999184_gshared
VAi:__ZN19MulticastDelegate_t15set_kpm_next_10EPS_
R4h:_ValueCollection_System_Collections_Generic_ICollectionU3CTValueU3E_Contains_m1842955046_gshared
Rgo:_GC_print_all_errors
yCn:__ZN24dense_hashtable_iteratorINSt3__24pairIK10KeyWrapperIPK10Il2CppTypeEjEES6_N6il2cpp8metadata14Il2CppTypeHashEN14dense_hash_mapIS6_jSB_NS6_14EqualsComparerINSA_26Il2CppTypeEqualityComparerEEENS0_9allocatorIS8_EEE9SelectKeyESF_SH_E30advance_past_empty_and_deletedEv
Ojk:_BitConverterLE_GetULongBytes_m1393773100
wZk:_UInt32_Parse_m3755665066
ane:_Graphic_get_depth_m815589653
_Mg:__ZN29MonoMethodMessage_t28076369449set_uri_8EP8String_t
afe:_ContentSizeFitter_get_horizontalFit_m2773126143
m0g:_LayoutGroup_SetLayoutInputForAxis_m2458344630
HN:__ZN7mecanim5human13HumanFixTwistEPKNS0_5HumanEPNS_8skeleton13SkeletonPoseTIN4math4trsXEEES9_iiRKf
Fec:__ZL24AssignProjectorQueuesJobP30AssignProjectorQueuesJobHeader
jJi:__ZNK25DynamicMethod_t253777957013get_method_15Ev
Y5e:__ZL89Collision2D_t2842956331_CustomAttributesCacheGenerator_Collision2D_FreeContacts_m84854112P21CustomAttributesCache
Zqk:_KeyValuePair_2_get_Key_m1218836954_gshared
t$m:__ZL25UnresolvedVirtualCall_124P12Il2CppObjectPK10MethodInfo
l2m:__ZL25UnresolvedVirtualCall_278P12Il2CppObject19Vector3_t3722313464PK10MethodInfo
uAf:_ParameterModifier_t1461694466_marshal_pinvoke
oxc:__ZNSt3__26vectorIN9ShaderLab20SerializedSubProgram15StructParameterENS_9allocatorIS3_EEE21__push_back_slow_pathIS3_EEvOT_
rLj:_Int16_System_IConvertible_ToUInt32_m3410279543
bxc:__ZN9ShaderLab20SerializedSubProgram14SetConstBufferEPKci
Czn:__ZN6il2cpp2os4File5CloseEPNS0_10FileHandleEPi
fJd:__ZN31CanvasBatchIntermediateRenderer15AddAsRenderNodeER15RenderNodeQueueRK20DeprecatedSourceData
CCf:__ZN26ResourceReader_t330049263915set_formatter_2EP12Il2CppObject
Urg:_Touch_get_fingerId_m859576425_AdjustorThunk
_Sk:_Thread_GetDomain_m1615404259
Nkm:__ZNK25TweenRunner_1_t305552545813get_m_Tween_1Ev
ipl:__Z48RuntimeInvoker_Boolean_t97287965_Link_t544317964PFvvEPK10MethodInfoPvPS4_
hIg:__ZNK28ConstructionCall_t401159474522get__activationType_15Ev
Fwd:_cf2_getStdVW
EJl:_List_1_System_Collections_ICollection_CopyTo_m2688165607_gshared
Tol:__Z53RuntimeInvoker_UIVertex_t4057497605_Int32_t2950945753PFvvEPK10MethodInfoPvPS4_
lZk:_UInt16_CompareTo_m2664746316_AdjustorThunk
$4h:_ValueCollection_GetEnumerator_m616748621_gshared
Xkm:__ZNK25TweenRunner_1_t352024108213get_m_Tween_1Ev
nxb:__ZN9GfxDevice13SetActiveTierE12GraphicsTier
z6c:__Z29Transfer_Blittable_ArrayFieldI8JSONReadjEvRT_R9ArrayInfoRK23StaticTransferFieldInfo
nQd:__ZN11UnityEngine9Analytics15DeviceInfoEvent7GFXInfoD2Ev
Ugo:_GC_check_finalizer_nested
AMb:__Z18Transfer_BlittableI19StreamedBinaryWriteLb0E8Vector4fEvRK29SerializationCommandArgumentsR31RuntimeSerializationCommandInfo
Ie:__setLetterbox
c2a:__ZNSt3__26vectorI13dynamic_arrayI8Vector2fLj0EENS_9allocatorIS3_EEEC2INS_11__wrap_iterIPS3_EEEET_SB_RKS5_PNS_9enable_ifIXaasr21__is_forward_iteratorISB_EE5valuesr16is_constructibleIS3_NS_15iterator_traitsISB_E9referenceEEE5valueEvE4typeE
Q8i:__ZNK33DateTime_t3738529785_StaticFields27get_DayMonthShortFormats_10Ev
N9g:_ScrollRect_OnScroll_m3861066534
eEh:__ZNK32InternalEnumerator_1_t423993200911get_array_0Ev
f7h:_Dictionary_2_ToTKey_m224697230_gshared
lbn:__ZN27ContactFilter2D_t380520344127set_useOutsideNormalAngle_5Eb
Zjm:_U3CStartU3Ec__Iterator0_MoveNext_m524356752_gshared
eDk:__ZNK21HashSet_1_t164505563811get_links_5Ev
Kcm:__ZNK51U3CCreateWhereIteratorU3Ec__Iterator1D_1_t23012983312get_source_0Ev
J$e:__ZL72FormerlySerializedAsAttribute_t2859083114_CustomAttributesCacheGeneratorP21CustomAttributesCache
aUg:_OnValidateInput_Invoke_m1009124904
OCm:_PatternCompiler_EmitFastRepeat_m3012952683
Mgb:__ZNSt3__26vectorI17BlendShapeChannelNS_9allocatorIS1_EEE6assignINS_11__wrap_iterIPS1_EEEENS_9enable_ifIXaasr21__is_forward_iteratorIT_EE5valuesr16is_constructibleIS1_NS_15iterator_traitsISA_E9referenceEEE5valueEvE4typeESA_SA_
lgh:_StrongName__ctor_m3939359439
hXb:__Z12SetGfxDeviceP9GfxDevice
tmn:__ZNK10KeyWrapperIPK17Il2CppGenericInstE8isNormalEv
_$m:__ZL25UnresolvedVirtualCall_157P12Il2CppObjectiPK10MethodInfo
kNc:__ZN22AnimationCurveBindings7SetKeysEP17AnimationCurveTplIfERK13dynamic_arrayI11KeyframeTplIfELj0EE
Xqc:__ZN11TimeManager11GetRealtimeEv
whg:_Object_GetHashCode_m1944636947
mBj:_BinaryReader_ReadUInt32_m2210658763
WFk:_Enumerator_Dispose_m3500272053_gshared
w_:__ZN29AudioEffectInternalDefinitionC2EP26UnityAudioEffectDefinitionb
o9l:_ReadOnlyCollection_1_System_Collections_IList_Remove_m2434650390_gshared
bkn:__ZN14dense_hash_mapI10KeyWrapperIP9FieldInfoEiN6il2cpp5utils11PointerHashIS1_EENS3_14EqualsComparerINSt3__28equal_toIS2_EEEENS9_9allocatorINS9_4pairIKS3_iEEEEED2Ev
s1h:_ShimEnumerator_get_Value_m1878724567_gshared
usk:_Dictionary_2_System_Collections_Generic_ICollectionU3CSystem_Collections_Generic_KeyValuePairU3CTKeyU2CTValueU3EU3E_Contains_m2803718146_gshared
Jqj:_CultureInfo_get_IcuName_m2258611679
w5g:__ZNK35RectangularVertexClipper_t62661113620get_m_WorldCorners_0Ev
$gd:__ZN35b2SynchronizeContinuousFixturesTaskD2Ev
TMn:__ZNSt3__2plIcNS_11char_traitsIcEENS_9allocatorIcEEEENS_12basic_stringIT_T0_T1_EERKS9_PKS6_
Yfg:__ZN40PlayerEditorConnectionEvents_t341178751321set_connectionEvent_1EP33ConnectionChangeEvent_t3251856151
SJe:__ZL77Convert_t2465617642_CustomAttributesCacheGenerator_Convert_ToInt64_m260173354P21CustomAttributesCache
wal:__Z110RuntimeInvoker_Void_t1185182177_RuntimeObject_StreamingContext_t3711869237_Int32_t2950945753_Int32_t2950945753PFvvEPK10MethodInfoPvPS4_
t4a:_stbir_resize
i6j:_Array_IndexOf_TisCustomAttributeTypedArgument_t2723150157_m3158556463_gshared
Pwk:_EqualityComparer_1_System_Collections_IEqualityComparer_GetHashCode_m360549782_gshared
nr:__GLOBAL__sub_I_AnimationScriptingClasses_cpp
nnj:_Environment_GetOSVersionString_m407782784
T_j:_DecoderExceptionFallback_Equals_m1082173956
dAk:_EqualityComparer_1_System_Collections_IEqualityComparer_GetHashCode_m345188086_gshared
ozf:__ZNK28MonoPropertyInfo_t308735606612get_parent_0Ev
vJh:__ZNK32InternalEnumerator_1_t38580098709get_idx_1Ev
qAe:__ZL69Assembly_t_CustomAttributesCacheGenerator_Assembly_GetName_m981771927P21CustomAttributesCache
mUe:__ZL93Mesh_t3648964284_CustomAttributesCacheGenerator_Mesh_GetAllocArrayFromChannelImpl_m3084065604P21CustomAttributesCache
pdd:__ZN24b2ChainAndCapsuleContact6CreateEP9b2FixtureiS1_iP16b2BlockAllocator
a9a:__ZN13dynamic_arrayI29StreamingTextureFinalMipLevelLj0EE18resize_initializedEjRKS0_12ResizePolicy
gvb:__Z37ReadDirectoryInfo_UnityWebAndUnityRawR12FileAccessorRKN20ArchiveStorageHeader6HeaderERNS1_13DirectoryInfoE
wia:__ZNSt3__26__treeINS_12__value_typeIPKciEENS_19__map_value_compareIS3_S4_15compare_tstringIS3_ELb1EEENS_9allocatorIS4_EEE7destroyEPNS_11__tree_nodeIS4_PvEE
Szl:_Array_InternalArray__Insert_TisIntPtr_t_m189626842_gshared
Zui:_Int64_System_IConvertible_ToByte_m375085029_AdjustorThunk
EDe:__ZL52LeaseState_t747101024_CustomAttributesCacheGeneratorP21CustomAttributesCache
Sak:_Locale_GetText_m3374010885
W0l:_Collection_1_System_Collections_IEnumerable_GetEnumerator_m1598238343_gshared
Vyl:_RijndaelManaged_CreateEncryptor_m263736311
nSk:_WaitCallback__ctor_m1893321019
Qhf:__ZNK21LabelFixup_t85850205415get_label_idx_2Ev
ALa:__ZN17GlobalGameManager23VirtualRedirectTransferER18StreamedBinaryRead
zbc:__ZN20DynamicPropertySheet14SetValueQueuedEN9ShaderLab16FastPropertyNameEN19ShaderPropertySheet12PropertyTypeEjNS2_8SetFlagsE
KLf:__ZNK27BaseFixupRecord_t318565345622get_NextSameRequired_3Ev
h8f:_InvokableCallList_ClearPersistent_m1904264973
gTb:__ZN25PathNamePersistentManagerD2Ev
amb:__ZN17PersistentManager48IntegrateObjectAndUnlockIntegrationMutexInternalEi
b_e:__ZL85NativeDisableUnsafePtrRestrictionAttribute_t2582701661_CustomAttributesCacheGeneratorP21CustomAttributesCache
Vva:__ZZ29InitializeSortingGroupManagerPvEN44PostLateUpdateSortingGroupsUpdateRegistrator7ForwardEv
C7e:__ZL55EventTrigger_t1076084509_CustomAttributesCacheGeneratorP21CustomAttributesCache
YTj:_SecurityElement_SearchForChildByTag_m900466299
Ip:__ZN6Object12SetHideFlagsENS_9HideFlagsE
xcd:__ZN9b2Fixture11SynchronizeEP12b2BroadPhaseRK11b2TransformS4_
CRm:__ZN22TextEditor_t275985536621set_isPasswordField_5Eb
Scj:_Convert_ToSingle_m3227075028
DAg:__ZNK19Context_t328544694422get_callback_object_13Ev
Dkc:__ZN13RendererScene15InitializeUmbraEv
zQf:__ZN46U3CRegisterObjectU3Ec__AnonStorey3_t35165111439set_obj_1EP12Il2CppObject
jVa:__Z28CalculateGlobalMatrixInverse23TransformAccessReadOnly
kfg:_MonoBehaviour__ctor_m1579109191
u4e:__ZL59GUITargetAttribute_t25796337_CustomAttributesCacheGeneratorP21CustomAttributesCache
FBk:_GenericEqualityComparer_1_Equals_m3457564127_gshared
T7h:_BigInteger_ModInverse_m2426215562
Fua:__ZN17CallbackArrayBaseIPFvPK9IndexListPK16RendererCullDataEPFvPKvS2_S5_EE8RegisterES7_SB_S9_
Ku:__ZN7mecanim9animation21CreateAvatarWorkspaceEPKNS0_14AvatarConstantER20RuntimeBaseAllocator
Q0b:__ZN4gles15UpdateDepthTestER15DeviceStateGLESPK20DeviceDepthStateGLESb
P_j:_DecoderExceptionFallback__ctor_m4044614564
Qeh:__ZN40StencilMaterial_t3850132571_StaticFields12set_m_List_0EP17List_1_t134214538
YJh:_InternalEnumerator_1_System_Collections_IEnumerator_Reset_m3011999097_AdjustorThunk
YYh:__ZN16VirtFuncInvoker2Ii20UIVertex_t4057497605S0_E6InvokeEjP12Il2CppObjectS0_S0_
Gvg:__ZN16VirtFuncInvoker1IP11Il2CppArrayP6Type_tE6InvokeEjP12Il2CppObjectS3_
MPn:__ZN6il2cpp2vm6Thread17FullMemoryBarrierEv
Uwi:_LocalDataStoreSlot__cctor_m644942532
qmo:__ZN6il2cpp6icalls8mscorlib6System6Object7GetTypeEP12Il2CppObject
bzf:_MonoProperty_CachePropertyInfo_m2968057423
rWd:__ZNK25UnityWebRequestJavaScript18GetDownloadedBytesEv
nlg:_Ray_GetPoint_m1852405345_AdjustorThunk
pye:__ZL53RegionInfo_t1090270226_CustomAttributesCacheGeneratorP21CustomAttributesCache
flf:__ZN18VirtActionInvoker1I17OpCode_t123070264E6InvokeEjP12Il2CppObjectS0_
xte:__ZL74Single_t1397266774_CustomAttributesCacheGenerator_Single_IsNaN_m4024467661P21CustomAttributesCache
_Gj:__ZN29Path_t1605229823_StaticFields21set_dirEqualsVolume_7Eb
EWd:__ZN12HeaderHelper14SetUnvalidatedERKN4core12basic_stringIcNS0_20StringStorageDefaultIcEEEES6_b
CY:__ZN4FMOD6SoundI7releaseEv
Leb:__ZN14SpriteRenderer13AwakeFromLoadE17AwakeFromLoadMode
fyd:_cff_parse_num
Gvb:__ZN10MemoryFile9SetLengthEy
zLb:__ZN5RectTIiE8TransferI24GenerateTypeTreeTransferEEvRT_
jbd:__ZNK15b2RevoluteJoint10GetAnchorBEv
Bpj:_Exception_get_ClassName_m2428844642
CSb:__Z28scripting_class_is_interface17ScriptingClassPtr
fl:_glTexStorage2D
dEc:__ZN15QualitySettings15InitializeClassEv
apf:__ZN31OpCodes_t126150456_StaticFields15set_Stind_I4_83E17OpCode_t123070264
b4i:_SyncHashtable_get_Item_m2686606216
l$a:__ZNK9ShaderLab10SubProgram14EnsureCompiledEv
Yjf:_MethodBuilder_GetGenericArguments_m1765425737
Egj:_DateTime_CompareTo_m3687348273
pHi:__ZN23DerivedType_t428630201317set_elementType_8EP6Type_t
wfo:_GC_push_marked
ahj:_DateTime_ToUniversalTime_m1945318289_AdjustorThunk
cDk:__Z25Il2CppCodeGenWriteBarrierI22LinkU5BU5D_t1236856784EvPPT_S2_
sVh:_InternalEnumerator_1_MoveNext_m1262669372_gshared
kmj:_Enum_t4135868527_marshal_pinvoke
Gbj:_Convert_ToInt16_m1336719169
Ela:__Z18BuildScriptClassId17ScriptingClassPtr
F5m:_CanvasRenderer_CreateUIVertexStreamInternal_m543814397
Enk:_RSAManaged_Finalize_m3915335854
RVg:__ZN22InputField_t376291743134get_address_of_m_SelectionColor_35Ev
Fp:__ZNK16LevelGameManager7GetNameEv
Exn:__ZNKSt3__26vectorIN6il2cpp6icalls8mscorlib6System12PropertyPairENS_9allocatorIS5_EEE8max_sizeEv
ABf:_TypeDelegator_GetElementType_m4265261164
stb:__ZL31DeleteLastPathNameComponentImplRKN4core12basic_stringIcNS_20StringStorageDefaultIcEEEEPKc
cfj:_DBNull_System_IConvertible_ToUInt64_m4072736670
UPd:__ZN18UnityConnectClient15GetCloudServiceEv
jHb:__Z29Transfer_Blittable_ArrayFieldI14SafeBinaryRead5RectTIiEEvRT_R9ArrayInfoRK23StaticTransferFieldInfo
iLh:_InternalEnumerator_1_get_Current_m2698009637_gshared
rtn:__ZN6il2cpp2os19SocketHandleWrapperD2Ev
xgg:_U3CAddAndCreateU3Ec__AnonStorey1__ctor_m1186055370
Vcd:__ZN15b2CircleContact6CreateEP9b2FixtureiS1_iP16b2BlockAllocator
xSb:__ZL28SerializationCommandGroupForRK31TransferFunctionScriptingTraits17ScriptingClassPtr17ScriptingFieldPtrRK20CoreScriptingClasses
WKa:__ZN10TagManager32RegisterDefaultTagsAndLayerMasksEv
Dmi:__ZN24TlsClientHello_t9796599812set_random_9EP22ByteU5BU5D_t4116647657
cOl:_List_1_System_Collections_IList_get_IsReadOnly_m1729002068_gshared
jcl:__Z50RuntimeInvoker_Double_t594665363_Int32_t2950945753PFvvEPK10MethodInfoPvPS4_
tdm:_Predicate_1_EndInvoke_m1490920825_gshared
yLe:__ZL78LoaderOptimization_t1484956347_CustomAttributesCacheGenerator_DisallowBindingsP21CustomAttributesCache
vsk:_Dictionary_2_System_Collections_Generic_ICollectionU3CSystem_Collections_Generic_KeyValuePairU3CTKeyU2CTValueU3EU3E_CopyTo_m3122240003_gshared
dml:__Z104RuntimeInvoker_Void_t1185182177_Color_t2555686324_Single_t1397266774_SByte_t1669577662_SByte_t1669577662PFvvEPK10MethodInfoPvPS4_
yNl:_List_1_Remove_m3853969205_gshared
iJk:_Enumerator_System_Collections_IEnumerator_get_Current_m1540440674_gshared
EVj:_Single_System_IConvertible_ToInt16_m809233024_AdjustorThunk
Cvo:_fmodf
vAf:__ZNK29ParameterModifier_t146169446612get__byref_0Ev
gqd:__Z75Register_UnityEngine_Physics2D_GetRayIntersectionNonAlloc_Internal_Injectedv
P$b:__ZN4gles8InitCapsEP7ApiGLESP12GraphicsCapsR16GfxDeviceLevelGL
yS:__ZN4PPtrI13MonoBehaviourE8TransferI18StreamedBinaryReadEEvRT_
RZb:__ZN13GfxDeviceGLES22GetNativeBufferPointerEP9GfxBuffer
RNf:__ZNK24ObjectReader_t194095739224get__typeMetadataCache_6Ev
$Wa:__Z24CalculateVertexLightDataRK15SharedLightDataR14GfxVertexLight
Qj:_glEnable
$Rn:__ZN10KeyWrapperIP11Il2CppClassEC2ERKS1_
MPh:_InternalEnumerator_1_MoveNext_m973048327_gshared
h$a:__ZNK9ShaderLab7Program28BeginReadUnsupportedVariantsEv
KIa:__ZN12CachedWriter11Align4WriteEv
Pkb:__ZNSt3__26vectorIN30RuntimeInitializeOnLoadManager9ClassInfoE13stl_allocatorIS2_L18MemLabelIdentifier13ELi16EEE7reserveEj
wLm:__ZNK21UriParser_t389015040017get_scheme_name_2Ev
X1c:__Z35Transfer_Blittable_FixedBufferFieldI9JSONWriteiEvRK29SerializationCommandArgumentsR31RuntimeSerializationCommandInfo
i9n:__ZN14dense_hash_mapI10KeyWrapperIPK19Il2CppGenericMethodEP10MethodInfoN6il2cpp8metadata23Il2CppGenericMethodHashENS4_14EqualsComparerINS8_26Il2CppGenericMethodCompareEEENSt3__29allocatorINSD_4pairIKS4_S6_EEEEED2Ev
b8m:_HumanBone_t2465339518_marshal_pinvoke_cleanup
ASg:__ZN22InputField_t376291743120set_m_ContentType_22Ei
Ben:__ZN41RequiredByNativeCodeAttribute_t413084635735set_U3COptionalU3Ek__BackingField_0Eb
hCk:_Enumerator__ctor_m1590062855_AdjustorThunk
bKn:__ZN14dense_hash_mapI10KeyWrapperINSt3__24pairIPK10MethodInfoP11Il2CppClassEEEj17ReflectionMapHashIS8_ENS9_14EqualsComparerINS1_8equal_toIS8_EEEENS1_9allocatorINS2_IKS9_jEEEEEC2EjRKSB_RKSF_
PVb:__ZN19RuntimeSceneManager11CreateSceneEv
TD:__ZN26AnimatorControllerPlayable17ProcessRootMotionEP35AnimationPlayableEvaluationConstantP32AnimationPlayableEvaluationInputP33AnimationPlayableEvaluationOutput
ROb:__Z18Transfer_BlittableI18StreamedBinaryReadLb1E10Matrix4x4fEvRK29SerializationCommandArgumentsR31RuntimeSerializationCommandInfo
S2h:__ZN16VirtFuncInvoker2I26KeyValuePair_2_t2401056908P12Il2CppObjectiE6InvokeEjS2_S2_i
JEe:__ZL54SoapServices_t133988723_CustomAttributesCacheGeneratorP21CustomAttributesCache
VEl:_Component_GetComponents_TisRuntimeObject_m2416546752_gshared
Pmm:__ZNK28SslHandshakeHash_t210758177217get_outerPadMD5_9Ev
cKj:_UnexceptionalStreamReader_Peek_m1842169584
udk:__ZN47MSCompatUnicodeTableUtil_t88013251_StaticFields12set_CjkCHS_5EP28CodePointIndexer_t4134431086
flm:__Z25Il2CppCodeGenWriteBarrierI24ObjectPool_1_t4122643707EvPPT_S2_
xVg:__ZNK22InputField_t376291743119get_m_CaretWidth_38Ev
Bw:__ZN10HumanTrait11GetBoneNameEv
Ean:_TypeInferenceRuleAttribute__ctor_m2736695831
Y2f:_Bounds_GetHashCode_m1844059663_AdjustorThunk
qTj:__ZNK27WindowsIdentity_t294824240611get__name_4Ev
fcf:__ZL66Navigation_t3049316579_CustomAttributesCacheGenerator_m_SelectOnUpP21CustomAttributesCache
CVi:__ZNK25OidCollection_t423476684411get__list_0Ev
nOf:_BinaryFormatter_NoCheckDeserializeMethodResponse_m1919376975
P9m:_Vector4_Equals_m1779210055_AdjustorThunk
ct:__ZN9Scripting11UnityEngine14HumanBoneProxy12CleanupProxyEv
$dj:_Convert_ChangeType_m739676612
SPn:__ZN14dense_hash_mapI10KeyWrapperINSt3__24pairIP11Il2CppClassjEEES4_N6il2cpp8metadata14ArrayClassHashENS6_14EqualsComparerINS8_17ArrayClassCompareEEENS1_9allocatorINS2_IKS6_S4_EEEEED2Ev
L5b:__ZN20ArchiveStorageReader10InitializeER15FileSystemEntryyb
bxo:_atol
sBm:__ZNK30Match_t3408321083_StaticFields12get_empty_10Ev
HUj:__ZNK36RuntimeDeclSecurityEntry_t314446915610get_blob_0Ev
zkf:_TypeBuilder_CreateType_m3375483507
Bmo:__ZN6il2cpp2os18MarshalStringAlloc16GetBStringLengthEPKDsPi
iik:_ModulusRing_BarrettReduction_m167376748
Wvg:_RemotingServices_GetRealProxy_m2081098851
FHn:__ZNK30dense_hashtable_const_iteratorINSt3__24pairIK10KeyWrapperINS1_IPK9EventInfoP11Il2CppClassEEEjEES9_17ReflectionMapHashIS8_EN14dense_hash_mapIS9_jSD_NS9_14EqualsComparerINS0_8equal_toIS8_EEEENS0_9allocatorISB_EEE9SelectKeyESI_SK_EeqERKSN_
fkk:_BlockProcessor_Core_m189015002
$jn:__ZN15dense_hashtableINSt3__24pairIK10KeyWrapperIPKcEP11Il2CppClassEES5_N6il2cpp5utils11StringUtils12StringHasherIS4_EEN14dense_hash_mapIS5_S8_SE_NS5_14EqualsComparerINSB_13VmStringUtils21CaseSensitiveComparerEEENS0_9allocatorIS9_EEE9SelectKeyESJ_SL_EC2EjRKSE_RKSJ_RKSN_
dJo:_emscripten_glScissor__wrapper
Co:FUNCTION_TABLE_viifi
xo:FUNCTION_TABLE_viiff
nqe:__ZN42HorizontalOrVerticalLayoutGroup_t72972557042get_address_of_m_ChildForceExpandHeight_14Ev
TYk:_UInt16_System_IConvertible_ToDouble_m333121300_AdjustorThunk
Aih:__ZNK26X509Certificate_t48924302416get_signature_11Ev
x8e:__ZL102PointerEventData_t3807901092_CustomAttributesCacheGenerator_PointerEventData_set_lastPress_m2928324031P21CustomAttributesCache
Cik:_PrimalityTests_Test_m2932837908
Tve:__ZL37Type_t_CustomAttributesCacheGeneratorP21CustomAttributesCache
HEd:_UNITY_tt_face_free_hdmx
ufd:__ZNSt3__26__sortIRN18Overlap2DQueryBase29ColliderHitsByDepthComparitorEPP10Collider2DEEvT0_S7_T_
imn:__ZNK30dense_hashtable_const_iteratorI10KeyWrapperIPK17Il2CppGenericInstES4_N6il2cpp8metadata21Il2CppGenericInstHashEN14dense_hash_setIS4_S7_NS4_14EqualsComparerINS6_24Il2CppGenericInstCompareEEENSt3__29allocatorIS4_EEE8IdentityESB_SE_EdeEv
v3f:_Bounds_ToString_m4208690781
kQn:__ZN15dense_hashtableINSt3__24pairIK10KeyWrapperINS1_IP11Il2CppClassjEEES4_EES6_N6il2cpp8metadata14ArrayClassHashEN14dense_hash_mapIS6_S4_SB_NS6_14EqualsComparerINSA_17ArrayClassCompareEEENS0_9allocatorIS8_EEE9SelectKeyESF_SH_E5clearEv
T6k:__Z88RuntimeInvoker_RuntimeObject_RuntimeObject_RuntimeObject_Int32_t2950945753_RuntimeObjectPFvvEPK10MethodInfoPvPS4_
djn:__ZNSt3__218uninitialized_copyIPNS_4pairIK10KeyWrapperIPK11Il2CppClassEPKcEESB_EET0_T_SD_SC_
yLn:__ZN6il2cpp2vm14TypeNameParser5ParseEb
fho:_GC_grow_table
NSe:__ZL100GameObject_t1113636619_CustomAttributesCacheGenerator_GameObject_SendMessage_m3720186693____options2P21CustomAttributesCache
fIj:_StreamWriter_Initialize_m3490883444
tsi:__ZNK27NumberFormatter_t118292462111get__ind_24Ev
bYk:_Type_GetGenericArguments_m3500465462
ssn:__ZN15dense_hashtableINSt3__24pairIK10KeyWrapperIP9FieldInfoEiEES5_N6il2cpp5utils11PointerHashIS3_EEN14dense_hash_mapIS5_iSB_NS5_14EqualsComparerINS0_8equal_toIS4_EEEENS0_9allocatorIS7_EEE9SelectKeyESG_SI_E12resize_deltaEjj
KVd:__ZN23UnityPurchasingSettingsC2Ev
zwf:_Module_IsDefined_m2423524910
xqg:_Sprite__ctor_m332781120
dEj:_FileStream_EndRead_m3904255625
l3e:__ZL60EventType_t3528516131_CustomAttributesCacheGenerator_repaintP21CustomAttributesCache
KPa:__ZN17GPUFenceInternals7ReleaseEv
Ucf:__ZL66Selectable_t3250028441_CustomAttributesCacheGenerator_m_NavigationP21CustomAttributesCache
_Bf:_ResolveEventHandler__ctor_m1911137231
WKc:__ZN17MaterialScripting18CreateWithMaterialE21ScriptingObjectOfTypeI8MaterialEPS1_
MPb:__ZN8Gradient8TransferI18StreamedBinaryReadEEvRT_
olc:__ZL10RenderFaceR9GfxDeviceR18MaterialStateCacheP13RenderTextureiif
Izm:_Interval_get_IsEmpty_m2731597232_AdjustorThunk
g6j:_Array_IndexOf_TisCustomAttributeNamedArgument_t287865710_m2817957199_gshared
gLg:__ZN44MethodCallDictionary_t605791082_StaticFields18set_InternalKeys_6EP24StringU5BU5D_t1281789340
xrj:__ZN23CultureInfo_t415784306815set_win3lang_24EP8String_t
omo:__ZNKSt3__26__treeINS_12__value_typeIPFvvEPK10MethodInfoEENS_19__map_value_compareIS3_S7_NS_4lessIS3_EELb1EEENS_9allocatorIS7_EEE10__root_ptrEv
Asm:_ExtendedKeyUsageExtension_ToString_m2116504780
Oob:__ZNK5Unity9Component38MarkGameObjectAndComponentDependenciesER27GarbageCollectorThreadState
VAj:_BinaryReader_Read_m3708759962
EEh:_InternalEnumerator_1__ctor_m3349908318_AdjustorThunk
s3:__ZNK7Texture21GetShadowSamplingModeEv
dma:__ZNK11TypeManager15ClassNameToRTTIEPKcb
eBm:__ZN17Match_t340832108313set_machine_7EP12Il2CppObject
Cab:__ZN13ScreenManager21OnWindowRegainedFocusEv
u$b:__ZN9GfxDevice26CreateDefaultVertexBuffersEv
xGo:_emscripten_glVertexAttrib2fv__wrapper
Qyl:__ZNK41RijndaelTransform_t631222241_StaticFields11get_SBox_17Ev
TXd:__ZN13RuntimeStaticINSt3__26vectorIPN5physx15PxVehicleWheelsENS0_9allocatorIS4_EEEELb0EE13StaticDestroyEPv
gJj:_SynchronizedReader_ReadToEnd_m2160105378
Zrb:__ZN12HandlerChain19InitializeFileEntryER13FileEntryData
Y5a:__ZN4crnd12symbol_codec32decode_receive_static_data_modelERNS_25static_huffman_data_modelE
tBc:__ZN18ScriptingArguments8AddFloatEf
WTi:__ZN20WebProxy_t201676054216set_bypassList_2EP21ArrayList_t2718874744
ere:_Image_set_fillOrigin_m469806249
r8n:__ZN6il2cpp2vmL24HexValueToLowercaseAsciiEh
rRd:__ZN11UnityEngine15PlatformWrapper16GetVRRenderScaleEv
X2c:__Z18Transfer_BlittableI9JSONWriteLb0EaEvRK29SerializationCommandArgumentsR31RuntimeSerializationCommandInfo
fSl:__ZNK22Enumerator_t35882777609get_ver_2Ev
IHd:__Z51Register_UnityEngine_TextGenerator_Internal_Destroyv
J7:__ZN11UnityEngine15CloudWebService14DataDispatcher34OnSessionContainerArchivedAndReadyERNS0_16SessionContainerE
Xfg:_ConnectionChangeEvent__ctor_m764126802
_9c:__ZN7b2World11CreateJointEPK10b2JointDef
U8d:__ZN33StandaloneInputModule_t276046910126set_m_InputPointerEvent_22EP28PointerEventData_t3807901092
bzi:_IntComparer__ctor_m2901422390
JKe:__ZL79Convert_t2465617642_CustomAttributesCacheGenerator_Convert_ToUInt32_m1767593911P21CustomAttributesCache
RFe:__ZL50HMACMD5_t2742219965_CustomAttributesCacheGeneratorP21CustomAttributesCache
Zwg:__ZNK36SoapServices_t133988723_StaticFields16get__typeInfos_4Ev
Bnd:__ZN7b2World11DestroyBodyEP6b2Body
KGk:_Enumerator_VerifyState_m2621680056_gshared
GP:__ZN4PPtrI25RuntimeAnimatorControllerE8TransferI19StreamedBinaryWriteEEvRT_
LJm:_UriParser_InternalRegister_m3643767086
Esc:__ZN14SafeBinaryRead19TransferSTLStyleMapINSt3__23mapIN4core12basic_stringIcNS3_20StringStorageDefaultIcEEEEiNS1_4lessIS7_EENS1_9allocatorINS1_4pairIKS7_iEEEEEEEEvRT_17TransferMetaFlags
qvj:_DateTimeFormatInfo_get_RawAbbreviatedDayNames_m1257850285
Oxl:_RSACryptoServiceProvider_EncryptValue_m944137256
$En:__ZN15dense_hashtableINSt3__24pairIK10KeyWrapperINS1_IPK11Il2CppImageP11Il2CppClassEEEjEES9_17ReflectionMapHashIS8_EN14dense_hash_mapIS9_jSD_NS9_14EqualsComparerINS0_8equal_toIS8_EEEENS0_9allocatorISB_EEE9SelectKeyESI_SK_ED2Ev
WCd:_gray_move_to
_ej:_DBNull_System_IConvertible_ToSingle_m13713620
f7f:__Z25Il2CppCodeGenWriteBarrierI33DisplaysUpdatedDelegate_t51287044EvPPT_S2_
Puh:_Char_ToLowerInvariant_m1926695830
Cef:__ZL127U3CDelayedSetDirtyU3Ec__Iterator0_t3170500204_CustomAttributesCacheGenerator_U3CDelayedSetDirtyU3Ec__Iterator0_Reset_m160466733P21CustomAttributesCache
UIn:__ZNK10KeyWrapperIPK14Il2CppAssemblyEcvRKS2_Ev
w2n:__ZNK10KeyWrapperIP12Il2CppObjectEcvRKS1_Ev
l4f:_CameraCallback__ctor_m899467377
p3l:_ReadOnlyCollection_1_System_Collections_IList_Contains_m1327645028_gshared
vre:_Image_GetDrawingDimensions_m3060965396
SBm:__Z25Il2CppCodeGenWriteBarrierI27MatchCollection_t1395363720EvPPT_S2_
uYk:_TypeLoadException__ctor_m1154572625
lQc:__Z30RegisterValidateMethodCallbackiPF18ScriptingMethodPtrS_17ScriptingClassPtrP6ObjectEPKc
U0a:__ZNSt3__27__sort4IRPFbRKNS_4pairIN9ShaderLab16FastPropertyNameE10ColorRGBAfEES7_EPS5_EEjT0_SC_SC_SC_T_
XDi:_AssemblyDescriptionAttribute__ctor_m3993445315
Sji:_Context_get_WriteSequenceNumber_m1115956887
anh:_Activator_CreateInstanceInternal_m1337209899
MEl:_Dictionary_2_Do_ICollectionCopyTo_TisKeyValuePair_2_t2401056908_m1169495264_gshared
ynf:_OpCodes__cctor_m3821715395
Zee:_ContentSizeFitter__ctor_m2349275633
NBf:__ZN16VirtFuncInvoker2IbP6Type_tbE6InvokeEjP12Il2CppObjectS1_b
zNe:__ZL56TypeConverter_t2249118273_CustomAttributesCacheGeneratorP21CustomAttributesCache
czh:__Z25Il2CppCodeGenWriteBarrierI43CaseInsensitiveHashCodeProvider_t1962629119EvPPT_S2_
ryn:__ZN6il2cpp5utils9PathUtils13DirectoryNameIcEENSt3__212basic_stringIT_NS3_11char_traitsIS5_EENS3_9allocatorIS5_EEEERKNS0_10StringViewIS5_EE
j_l:_Collection_1_RemoveAt_m3506636491_gshared
iQa:__ZN20IntermediateRendererD2Ev
r7c:__ZN8JSONRead8TransferI9BoundsIntEEvRT_PKc17TransferMetaFlagsb
O5n:__ZN24dense_hashtable_iteratorINSt3__24pairIK10KeyWrapperIPcES3_EES4_N6il2cpp5utils15PassThroughHashIS3_EEN14dense_hash_mapIS4_S3_SA_NS4_14EqualsComparerINS0_8equal_toIS3_EEEENS0_9allocatorIS6_EEE9SelectKeyESF_SH_E30advance_past_empty_and_deletedEv
Hb:invoke_viidi
Qvb:__ZN25SingleBlockMemoryFileData9SetLengthEy
FCl:_Array_Sort_TisOrderBlock_t1585977831_m2922111197_gshared
zS:__ZN18StreamedBinaryRead8TransferINSt3__24pairI8StateKey10StateRangeEEEEvRT_PKc17TransferMetaFlags
fdn:__ZNSt3__211char_traitsIcE6lengthEPKc
Lme:_Graphic_OnRectTransformDimensionsChange_m3695755375
uVf:_SByte_System_IConvertible_ToChar_m1489191771_AdjustorThunk
sY:__ZN9AudioClip7CleanupEv
gao:__ZNK24dense_hashtable_iteratorINSt3__24pairIK10KeyWrapperIPK19Il2CppGenericMethodEP10MethodInfoEES6_N6il2cpp8metadata23Il2CppGenericMethodHashEN14dense_hash_mapIS6_S9_SD_NS6_14EqualsComparerINSC_26Il2CppGenericMethodCompareEEENS0_9allocatorISA_EEE9SelectKeyESH_SJ_EdeEv
Zhd:__ZN21b2ReportPostSolveTaskD0Ev
Nsm:__ZN24GeneralNames_t270229415912set_ipAddr_4EP21ArrayList_t2718874744
lsl:__Z76RuntimeInvoker_Void_t1185182177_Int32_t2950945753_PlayableBinding_t354260709PFvvEPK10MethodInfoPvPS4_
zzm:_Interval_t1802865632_marshal_pinvoke_cleanup
mSn:__ZNK15dense_hashtableINSt3__24pairIK10KeyWrapperIP11Il2CppClassES4_EES5_N6il2cpp8metadata16SZArrayClassHashEN14dense_hash_mapIS5_S4_SA_NS5_14EqualsComparerINS9_19SZArrayClassCompareEEENS0_9allocatorIS7_EEE9SelectKeyESE_SG_E12test_deletedEj
Qbj:_Convert_ToInt16_m1223489986
Ane:_Graphic_GraphicUpdateComplete_m1502194795
S5c:__Z18Transfer_BlittableI8JSONReadLb0EdEvRK29SerializationCommandArgumentsR31RuntimeSerializationCommandInfo
D7a:__ZN14SafeBinaryRead22TransferWithTypeStringI7CubemapEEvRT_PKcS5_17TransferMetaFlags
eCg:_SynchronizationAttribute_EnterContext_m1660729920
Jsm:__ZN24GeneralNames_t270229415920set_directoryNames_2EP21ArrayList_t2718874744
E4m:_Canvas_get_referencePixelsPerUnit_m3420541976
v3l:_ReadOnlyCollection_1_System_Collections_ICollection_get_SyncRoot_m2522539235_gshared
XLm:_Event_get_current_m2393892120
Gkh:__ZNK26X509Certificate_t48924302412get_m_from_2Ev
Wuk:_DefaultComparer_Equals_m3688244916_gshared
BHi:__ZN30ConstructorBuilder_t281352410818set_paramModReq_11EP28TypeU5BU5DU5BU5D_t4042077012
Kxb:__ZNK9GfxDevice13GetViewMatrixEv
LKj:_UnmanagedMemoryStream_Dispose_m2681886347
lcn:_Rigidbody2D_get_position_m2575647076
hDg:_Lease_get_CurrentState_m2210872233
Pnb:__ZN17RemapPPtrTransferC2E24TransferInstructionFlagsb
BFh:_InternalEnumerator_1_System_Collections_IEnumerator_get_Current_m1295084274_gshared
hx:__ZN14SafeBinaryRead21TransferSTLStyleArrayI22OffsetPtrArrayTransferIiEEEvRT_17TransferMetaFlags
ina:__ZN8TypeTree8BlobReadERPKhS1_ib
hQn:__ZN10KeyWrapperINSt3__24pairIP11Il2CppClassjEEEC2Ev
gEf:__ZN6il2cpp2vm9Exception13RaiseIfFailedEibP19Il2CppSequencePoint
pSe:__ZL87Display_t1387065949_CustomAttributesCacheGenerator_Display_GetSystemExtImpl_m2808197389P21CustomAttributesCache
cqh:_Array_Reverse_m3714848183
uje:_Dropdown_ClearOptions_m4085591601
Nde:_CanvasUpdateRegistry_InternalRegisterCanvasElementForGraphicRebuild_m3522560454
G3i:__ZNK21HashValues_t61838744510get_host_0Ev
FA:__ZN7mecanim9animation23ComputeRootMotionValuesERKNS0_14AvatarConstantERKNS0_14SkeletonTQSMapERKNS0_16MotionXReferenceERNS_10ValueArrayESB_SB_b
nmb:__ZN18LoadSceneOperation23GetAllowSceneActivationEv
XNa:__ZN6CameraD0Ev
Ohn:__ZNK6il2cpp2vm17TypeNameParseInfo10is_boundedEv
r3e:__ZL57EventModifiers_t2016417398_CustomAttributesCacheGeneratorP21CustomAttributesCache
eTd:__ZN11UnityEngine9Analytics20BasePersistentValues5ResetEv
kAi:__ZN16VirtFuncInvoker7IP12MethodBase_tiP27MethodBaseU5BU5D_t779831733PP24ObjectU5BU5D_t2843939325P35ParameterModifierU5BU5D_t2943407543P23CultureInfo_t4157843068P24StringU5BU5D_t1281789340PP12Il2CppObjectE6InvokeEjSE_iS3_S6_S8_SA_SC_SF_
$0l:_Collection_1_System_Collections_IList_IndexOf_m837396833_gshared
jD:__ZN7mecanim12AndValueMaskILb0EEEvPKNS_14ValueArrayMaskEPS1_
Dkb:__ZN14SafeBinaryRead21TransferSTLStyleArrayINSt3__26vectorIi13stl_allocatorIiL18MemLabelIdentifier13ELi16EEEEEEvRT_17TransferMetaFlags
P$j:_EncoderFallback__cctor_m3806755293
sGh:_InternalEnumerator_1__ctor_m962177456_AdjustorThunk
Yud:_raccess_guess_apple_double
OGi:__Z25Il2CppCodeGenWriteBarrierI22StrongName_t4093849377EvPPT_S2_
oZd:__ZL50__ManagedRegistrationHelperFunction_SubsystemProxyPv
p1b:__ZL18ProgramUniform1uivPK7ApiGLESjiihPKv
ZCc:__ZN14Texture2DArray13RebuildMipMapEv
Hln:__ZN13Il2CppHashSetIPK17Il2CppGenericInstN6il2cpp8metadata21Il2CppGenericInstHashENS4_24Il2CppGenericInstCompareENSt3__29allocatorI10KeyWrapperIS2_EEEEC2EjRKS5_RKS6_
mFb:__Z18Transfer_BlittableI14SafeBinaryReadLb1EaEvRK29SerializationCommandArgumentsR31RuntimeSerializationCommandInfo
Xog:__ZN48RenderTextureDescriptor_t1974534975_StaticFields21set_depthFormatBits_6EP22Int32U5BU5D_t385246372
cxc:__ZN9ShaderLab20SerializedSubProgram14AddVectorParamEPKcii15ShaderParamTypei
gKl:_List_1_GetEnumerator_m563931292_gshared
D0a:__ZN18StreamedBinaryRead19TransferSTLStyleMapINSt3__23mapIN9ShaderLab16FastPropertyNameEfNS1_4lessIS4_EENS1_9allocatorINS1_4pairIKS4_fEEEEEEEEvRT_17TransferMetaFlags
Beo:_GC_max
_Kd:__ZN2UI14CanvasRenderer12CleanupClassEv
P6i:_Enumerator__ctor_m3362421874
Irj:__ZN30DateTimeFormatInfo_t240585370119set_m_isReadOnly_10Eb
b2e:__ZL94AudioSampleProvider_t3950279772_CustomAttributesCacheGenerator_U3CtrackIndexU3Ek__BackingFieldP21CustomAttributesCache
Tdm:__ZN16VirtFuncInvoker1Ib19Color32_t2600501292E6InvokeEjP12Il2CppObjectS0_
q1n:__ZN6il2cpp2vm6Object3BoxEP11Il2CppClassPv
LPn:__ZN6il2cpp2vm6Thread7SetNameEP12Il2CppThreadP12Il2CppString
k6j:__ZN16VirtFuncInvoker2Ib40CustomAttributeTypedArgument_t2723150157S0_E6InvokeEjP12Il2CppObjectS0_S0_
n9:__ZN11UnityEngine15CloudWebService10RestClientINS0_23WebRequestRestHeaderMapEE16SetRequestHeaderERKN4core12basic_stringIcNS4_20StringStorageDefaultIcEEEESA_
Ikb:__ZN30RuntimeInitializeOnLoadManager15ClassMethodInfo8TransferI14SafeBinaryReadEEvRT_
UHg:_ConstructionCall_InitDictionary_m2824447813
eBf:_TargetException__ctor_m3701535709
Xql:__Z86RuntimeInvoker_Int32_t2950945753_Vector3_t3722313464_Vector3_t3722313464_RuntimeObjectPFvvEPK10MethodInfoPvPS4_
j6:__ZL22InitializeModule_Audiov
Ryl:__ZNK41RijndaelTransform_t631222241_StaticFields10get_iT1_24Ev
Cwb:__ZN16MemoryFileSystem8IsLockedERK13FileEntryData
oUn:__ZN6il2cpp6icalls8mscorlib6System2IO6MonoIO5WriteEiP11Il2CppArrayiiPi
udg:_Mathf_InverseLerp_m4155825980
m8k:__Z92RuntimeInvoker_RuntimeObject_RuntimeObject_RuntimeObject_SByte_t1669577662_SByte_t1669577662PFvvEPK10MethodInfoPvPS4_
ef:_emscripten_glBindRenderbuffer
yKm:_UriScheme__ctor_m1399779782
rsj:__ZNK43DateTimeFormatInfo_t2405853701_StaticFields39get_INVARIANT_ABBREVIATED_MONTH_NAMES_6Ev
Lxk:__ZNK43EqualityComparer_1_t1530079185_StaticFields14get__default_0Ev
kli:_Context_set_ReadSequenceNumber_m2154909392
AUi:__ZN15Oid_t355212026012set__value_0EP8String_t
BHl:_List_1_System_Collections_IList_Insert_m1011775503_gshared
Ggo:_GC_dirty_init
snk:__ZNK25PrivateKeyInfo_t66802799210get__key_2Ev
URh:__ZN32InternalEnumerator_1_t101283622211set_array_0EP11Il2CppArray
Y_n:__ZN6il2cpp2vm5Image33GetCachedMemoryMappedResourceFileEP24Il2CppReflectionAssembly
o$n:__ZN6il2cpp2vm5Field14GetValueObjectEP9FieldInfoP12Il2CppObject
vMd:__ZNK2UI6Canvas16GetTargetDisplayEv
_ol:__Z69RuntimeInvoker_Void_t1185182177_Int32_t2950945753_Vector2_t2156229523PFvvEPK10MethodInfoPvPS4_
VMk:__ZN46CustomAttributeNamedArgumentU5BU5D_t371046479514SetAtUncheckedEj39CustomAttributeNamedArgument_t287865710
KVk:_TimeSpan_CompareTo_m3633415627_AdjustorThunk
F3c:__ZN9JSONWrite8TransferI4PPtrI9Texture2DEEEvRT_PKc17TransferMetaFlags
gmk:__ZNK30KeyPairPersistence_t209454746116get__container_7Ev
XWl:_Collection_1_Remove_m3611142372_gshared
URb:__ZN13MonoBehaviour17RemoveFromManagerEv
yAm:__ZNK21Enumerator_t7377252769get_ptr_1Ev
v8m:_Vector3_get_Item_m668685504_AdjustorThunk
IOa:__ZN12ImageFilters14AddImageFilterERK11ImageFilter
tSf:_ClrTypeMetadata_get_RequiresTypes_m1619438370
u9a:__ZL11DecodeValuePPKcS0_
bIg:__ZN27MethodDictionary_t20789420417set__methodKeys_2EP24StringU5BU5D_t1281789340
mTj:_WindowsIdentity_System_Runtime_Serialization_IDeserializationCallback_OnDeserialization_m3428853631
Qda:__ZN13MemoryManagerC2Ev
Gjn:__ZNK15dense_hashtableINSt3__24pairIK10KeyWrapperIPKcEP11Il2CppClassEES5_N6il2cpp5utils11StringUtils12StringHasherIS4_EEN14dense_hash_mapIS5_S8_SE_NS5_14EqualsComparerINSB_13VmStringUtils21CaseSensitiveComparerEEENS0_9allocatorIS9_EEE9SelectKeyESJ_SL_E8min_sizeEjj
x8g:_ScrollRect_SetDirty_m214267968
pul:__Z74RuntimeInvoker_Int32_t2950945753_UIVertex_t4057497605_UIVertex_t4057497605PFvvEPK10MethodInfoPvPS4_
uyl:_RSAParameters_t1728406613_marshal_pinvoke_cleanup
Vvb:__ZN20ArchiveStorageReader28AcquireAndPrefillUnusedBlockEjPNS_11CacheResultE
Vrh:_Boolean_System_IConvertible_ToDateTime_m603510836
UCc:__Z12NHxRoughnessIA4_tEvP9Texture2DPT_iiii
yjk:_ASN1_get_Value_m1857007406
H6m:__ZNK42AnimationMotionXToDeltaPlayable_t27223155114get_m_Handle_0Ev
lUk:__ZN29Timer_t716671026_StaticFields15set_scheduler_1EP21Scheduler_t3215764947
$qa:__ZN18AsyncUploadManagerD2Ev
l8j:__ZN21InterfaceFuncInvoker2Ii20UIVertex_t4057497605S0_E6InvokeEjP11Il2CppClassP12Il2CppObjectS0_S0_
Cqb:__ZN9Transform5ResetEv
Yjj:_DelegateSerializationHolder__ctor_m23226427
aBa:__ZL59__ManagedRegistrationHelperFunction_GraphicsDeviceTypeProxyPv
Vbj:_Decimal_op_Explicit_m1842265407
OLb:__Z22TransferField_NonArrayI24GenerateTypeTreeTransfer16Converter_StringEvRK23StaticTransferFieldInfoR31RuntimeSerializationCommandInfoRT0_
U9a:__ZNK9Texture3D16ExtractImageImplEP14ImageReference13ImageBlitModebi
Kyd:_UNITY_FT_CMap_New
BXc:__Z38Transform_CUSTOM_set_position_InjectedP12Il2CppObjectRK8Vector3f
rRc:__Z57Register_UnityEngine_RectTransform_get_anchorMax_Injectedv
G8k:__Z109RuntimeInvoker_Void_t1185182177_RuntimeObject_RuntimeObject_RuntimeObject_SByte_t1669577662_SByte_t1669577662PFvvEPK10MethodInfoPvPS4_
PEh:_InternalEnumerator_1_MoveNext_m154749640_AdjustorThunk
hUb:__Z17MainLoopKeepalivePv
JTe:__ZL99RectOffset_t1369453676_CustomAttributesCacheGenerator_RectOffset_t1369453676____bottom_PropertyInfoP21CustomAttributesCache
ldf:__ZL62Slider_t3903728902_CustomAttributesCacheGenerator_m_HandleRectP21CustomAttributesCache
NPa:__ZN12SharedObjectI22RenderingCommandBufferLb1E27SharedObjectDeleteReleaseOpIS0_EE5ResetEv
emn:__ZN15dense_hashtableI10KeyWrapperIPK17Il2CppGenericInstES4_N6il2cpp8metadata21Il2CppGenericInstHashEN14dense_hash_setIS4_S7_NS4_14EqualsComparerINS6_24Il2CppGenericInstCompareEEENSt3__29allocatorIS4_EEE8IdentityESB_SE_E12expand_arrayEjN21dense_hash_map_traits17integral_constantIbLb0EEE
sQh:_InternalEnumerator_1_get_Current_m1588647567_AdjustorThunk
yXn:__ZN14dense_hash_mapI10KeyWrapperIP14Il2CppIUnknownEjN6il2cpp5utils11PointerHashIS1_EENS3_14EqualsComparerINSt3__28equal_toIS2_EEEENS9_9allocatorINS9_4pairIKS3_jEEEEED2Ev
xhf:_ILGenerator_Emit_m2239205197
hCe:__ZL51GCHandle_t3351438187_CustomAttributesCacheGeneratorP21CustomAttributesCache
RDl:__ZN28OrderBlockU5BU5D_t238920259014SetAtUncheckedEj22OrderBlock_t1585977831
T7d:__ZNK32MouseButtonEventData_t319034756017get_buttonState_0Ev
h6j:__ZN16VirtFuncInvoker2Ib39CustomAttributeNamedArgument_t287865710S0_E6InvokeEjP12Il2CppObjectS0_S0_
tVg:_InputField_get_caretBlinkRate_m3620074524
iob:__ZN11PreloadData39ShouldIgnoreInGarbageDependencyTrackingEv
uGh:_InternalEnumerator_1_System_Collections_IEnumerator_Reset_m1716381123_AdjustorThunk
kmf:__ZN16VirtFuncInvoker3IP6Type_tP8String_tbbE6InvokeEjP12Il2CppObjectS3_bb
lyl:_RSAPKCS1SignatureFormatter_CreateSignature_m3191980616
b$a:__ZN10builtintex16GetDefaultTexEnvE16TextureDimensionb
ubc:__Z19SetupLODFadeKeywordR17ShaderPassContextb
z3b:__ZL25CheckCopyTextureArgumentsRK7ApiGLESP11GLESTextureS3_
c6d:_PointerEventData_get_pointerCurrentRaycast_m2627585223
wQh:_InternalEnumerator_1__ctor_m362401472_AdjustorThunk
THl:_List_1_AsReadOnly_m2400800347_gshared
yrl:__Z58RuntimeInvoker_Void_t1185182177_PlayableBinding_t354260709PFvvEPK10MethodInfoPvPS4_
rEo:_glDeleteShader__wrapper
Yta:__ZNK15PlayableMethods18InvokeOnGraphStartER18ScriptingObjectPtrRK9HPlayable
lLb:__Z29Transfer_Blittable_ArrayFieldI24GenerateTypeTreeTransferyEvRT_R9ArrayInfoRK23StaticTransferFieldInfo
B0k:_ValueType_Equals_m1524437845
YQe:__ZL71RuntimePlatform_t4159857903_CustomAttributesCacheGenerator_OSXWebPlayerP21CustomAttributesCache
mZ:__ZN4FMOD7SystemI9playSoundE17FMOD_CHANNELINDEXPNS_5SoundEbPPNS_7ChannelE
Hnl:__Z123RuntimeInvoker_RuntimeObject_Ray_t3785851493_RuntimeObject_Single_t1397266774_Int32_t2950945753_RuntimeObject_RuntimeObjectPFvvEPK10MethodInfoPvPS4_
G0f:__ZN15RC2_t316782571428set_EffectiveKeySizeValue_10Ei
Ouj:_CultureInfo_set_DateTimeFormat_m1843682751
$Sj:__ZNK22StrongName_t367572461410get_name_1Ev
mym:_X509CrlEntry_get_RevocationDate_m606796547
OLm:_Event_get_commandName_m4275147343
iD:__ZN27AnimationLayerMixerPlayable17LayerMixerProcessEP35AnimationPlayableEvaluationConstantP32AnimationPlayableEvaluationInputP33AnimationPlayableEvaluationOutputM17AnimationPlayableFvS1_S3_S5_EMS_FvS1_S3_S5_ESA_MS_FvS5_S1_S3_S5_ifE
$aj:_Decimal_op_Implicit_m4256234411
_4k:__Z60RuntimeInvoker_RuntimeObject_RuntimeObject_Int16_t2552820387PFvvEPK10MethodInfoPvPS4_
Ddm:__ZN28GenericInterfaceFuncInvoker1Ib40CustomAttributeTypedArgument_t2723150157E6InvokeEPK10MethodInfoP12Il2CppObjectS0_
uHj:_StreamReader__ctor_m3941437302
AEa:__ZN9Scripting11UnityEngine13GradientProxy9InitProxyEv
d4d:__Z25Il2CppCodeGenWriteBarrierI27EventFunction_1_t2658898854EvPPT_S2_
fSi:_IPv6Address_get_Address_m1389170741
vkb:__ZN30RuntimeInitializeOnLoadManager23VirtualRedirectTransferER17RemapPPtrTransfer
ZAo:dynCall_viif
fIf:_RemoteActivator_Activate_m3917386814
tEi:_AssemblyName_get_Flags_m1616840602
Lwe:__ZL72MonoDocumentationNoteAttribute_t493035051_CustomAttributesCacheGeneratorP21CustomAttributesCache
K5d:__ZN28PointerEventData_t380790109238set_U3CclickCountU3Ek__BackingField_18Ei
$Ij:_StringReader_ReadLine_m2337102945
Bej:__ZN33CurrentSystemTimeZone_t399835225522set_utcOffsetWithDLS_8E19TimeSpan_t881159249
hsh:_Boolean_System_IConvertible_ToSingle_m1524606222
VIb:__ZL26Transfer_SimpleNativeClassI17RemapPPtrTransfer8GradientLb0EEvRK29SerializationCommandArgumentsR31RuntimeSerializationCommandInfo
bTe:__ZL49Shader_t4151988712_CustomAttributesCacheGeneratorP21CustomAttributesCache
e4i:_SyncHashtable_Add_m3016107307
$Ef:__Z25Il2CppCodeGenWriteBarrierI19Version_t3456873960EvPPT_S2_
ssh:_Boolean_Equals_m2410333903_AdjustorThunk
Xvn:__ZN6il2cpp6icalls8mscorlib6System8MonoType14get_attributesEP20Il2CppReflectionType
$Ee:__ZL61ISurrogateSelector_t3040401154_CustomAttributesCacheGeneratorP21CustomAttributesCache
DIc:__ZL41RuntimeInitializeOnSceneLoadedBeforeAwakeiR18AwakeFromLoadQueue16SceneLoadingMode
euj:__ZNK23CultureInfo_t415784306816get_territory_25Ev
iaa:__ZN13UploadHandlerD2Ev
tV:__GLOBAL__sub_I_Modules_AssetBundle_Public_1_cpp
uBo:dynCall_viiiiiffi
bQk:__ZN23UTF8Decoder_t215921486218set_leftOverBits_2Ej
i8f:_InvokableCallList_PrepareInvoke_m4003891334
mf:_emscripten_glBlendFuncSeparate
jZl:_Collection_1_Add_m809543251_gshared
SCa:__ZN9Scripting11UnityEngine9Rendering28AsyncGPUReadbackRequestProxy9InitProxyEv
pja:__Z20scripting_string_newPKc
VUa:__ZN18StreamedBinaryRead21TransferSTLStyleArrayI13dynamic_arrayI21PlatformShaderDefinesLj0EEEEvRT_17TransferMetaFlags
fUi:__ZNK20WebProxy_t201676054213get_address_0Ev
Cug:_Vector2_op_Multiply_m3294489634
ldk:__ZN45MSCompatUnicodeTable_t1453885583_StaticFields19set_cjkKOcategory_9EPh
CEm:_Parser_IsSingleline_m326238187
wzh:_CollectionBase_get_Count_m1708965601
n_f:_HMAC__ctor_m97939284
m5l:_ReadOnlyCollection_1_System_Collections_IList_get_Item_m1005238747_gshared
$Ke:__ZL49DBNull_t3725197148_CustomAttributesCacheGeneratorP21CustomAttributesCache
A0k:_ValueType_DefaultEquals_m2927252100
C1c:__ZN9JSONWrite12AppendToNodeEPN5Unity9rapidjson12GenericValueINS1_4UTF8IcEE13JSONAllocatorEEPKcRS6_
Fjk:_ASN1_ToString_m1340204511
eoi:__ZNK25SslStreamBase_t166741340713get_context_5Ev
jcd:__ZN16PhysicsManager2D20GetRigidBodyVelocityERK11Rigidbody2D
zZi:_X509Store_get_Certificates_m2149701265
rBb:__ZN20GfxAsyncReadbackDataD2Ev
Gtk:_DefaultComparer_GetHashCode_m2865442331_gshared
Vw:__ZN6Avatar23VirtualRedirectTransferER17RemapPPtrTransfer
r9e:__ZL144StandaloneInputModule_t2760469101_CustomAttributesCacheGenerator_StandaloneInputModule_t2760469101____allowActivationOnMobileDevice_PropertyInfoP21CustomAttributesCache
aFn:__ZN15dense_hashtableINSt3__24pairIK10KeyWrapperINS1_IPK11Il2CppImageP11Il2CppClassEEEjEES9_17ReflectionMapHashIS8_EN14dense_hash_mapIS9_jSD_NS9_14EqualsComparerINS0_8equal_toIS8_EEEENS0_9allocatorISB_EEE9SelectKeyESI_SK_E15destroy_bucketsEjj
gBg:__ZN25ReturnMessage_t137698560817set__methodBase_7EP12MethodBase_t
_Nk:_StringBuilder_set_Chars_m3548656617
qzn:__ZN6il2cpp2os4File17GetFileAttributesERKNSt3__212basic_stringIcNS2_11char_traitsIcEENS2_9allocatorIcEEEEPi
vql:__Z59RuntimeInvoker_Int32_t2950945753_X509ChainStatus_t133602714PFvvEPK10MethodInfoPvPS4_
oO:__ZNSt3__26__sortIRPFbPKN8Animator11AnimatorJobES4_EPS4_EEvT0_S9_T_
i3:__ZN17AudioCustomFilterD2Ev
Z$c:__ZN11IMGUIModule26SetDeveloperConsoleVisibleEb
WOb:__Z18Transfer_BlittableI18StreamedBinaryReadLb0E12PropertyNameEvRK29SerializationCommandArgumentsR31RuntimeSerializationCommandInfo
lrl:__Z56RuntimeInvoker_Void_t1185182177_MonoResource_t4103430009PFvvEPK10MethodInfoPvPS4_
Xpb:__ZN9Transform16ResetReplacementEv
jEn:__ZN30dense_hashtable_const_iteratorINSt3__24pairIK10KeyWrapperINS1_IPK10MethodInfoP11Il2CppClassEEEjEES9_17ReflectionMapHashIS8_EN14dense_hash_mapIS9_jSD_NS9_14EqualsComparerINS0_8equal_toIS8_EEEENS0_9allocatorISB_EEE9SelectKeyESI_SK_EC2ERK24dense_hashtable_iteratorISB_S9_SD_SM_SI_SK_E
Wxe:__ZL64DebuggerBrowsableState_t747501856_CustomAttributesCacheGeneratorP21CustomAttributesCache
t2b:__ZN18GfxFramebufferGLES18ReleaseFramebufferEP17RenderSurfaceBaseP14GfxContextGLES
nzi:__ZNK37MonoEnumInfo_t3694469084_StaticFields20get_long_comparer_10Ev
I4c:__Z18Transfer_BlittableI8JSONReadLb1EiEvRK29SerializationCommandArgumentsR31RuntimeSerializationCommandInfo
nwl:__ZNK23RC2Transform_t4583214879get_R1_13Ev
sOb:__Z18Transfer_BlittableI18StreamedBinaryReadLb1EN4math12int2_storageEEvRK29SerializationCommandArgumentsR31RuntimeSerializationCommandInfo
AJj:_TextReader_Dispose_m4253712522
Maa:__ZN19CloudServiceHandler34HandleSaveFileWebRequestPlayerLoopEv
GMe:__ZL82BigInteger_t2902905090_CustomAttributesCacheGenerator_BigInteger__ctor_m2474659844P21CustomAttributesCache
HE:__ZN7mecanim21ValueArrayReverseCopyEPKNS_18ValueArrayConstantEPKNS_10ValueArrayES2_PS3_PKi
A2:__Z31GetParentSampleClipFromInstancePN11SoundHandle8InstanceE
Mom:_InternalAsyncResult_get_BytesRead_m3975435112
Vzc:__ZNK28RectTransformPropertyBinding13GetFloatValueERKN11UnityEngine9Animation10BoundCurveE
Llc:__ZN6Camera22StandaloneCustomRenderENS_10RenderFlagEP6ShaderRKN4core12basic_stringIcNS3_20StringStorageDefaultIcEEEEPNS_21PerformRenderFunctionE
V6j:_Array_InternalArray__IndexOf_TisKeyValuePair_2_t2401056908_m4118889689_gshared
Uof:__ZN31OpCodes_t126150456_StaticFields15set_Ldind_I8_75E17OpCode_t123070264
U1l:_Collection_1_System_Collections_ICollection_get_IsSynchronized_m500240145_gshared
tjg:__ZN32PlayableOutputHandle_t420805379315set_m_Version_1Ej
Lmo:__ZN6il2cpp2os16ThreadLocalValue8GetValueEPPv
qXi:_X509Certificate2_get_PublicKey_m370665820
Dtn:__ZNSt3__214__split_bufferIN6il2cpp2os19SocketHandleWrapperERNS_9allocatorIS3_EEEC2EjjS6_
Yqn:__ZN6il2cpp2vm13MetadataCache14GetGenericInstEPKPK10Il2CppTypej
KIh:__ZN32InternalEnumerator_1_t150172948011set_array_0EP11Il2CppArray
i4:__ZN13AudioListener17ReadExtensionNameEi
nl:_glUniform1uiv
vWl:_Collection_1_System_Collections_Generic_ICollectionU3CTU3E_get_IsReadOnly_m1419845799_gshared
M$m:__ZL25UnresolvedVirtualCall_143P12Il2CppObject29CullingGroupEvent_t1722745023PK10MethodInfo
qoc:__Z25RegisterModuleICalls_Jobsv
S3:__ZN9AudioClip15InitializeClassEv
Gpo:__ZNK17Enemy_t176572958911get_skull_8Ev
jp:setThrew
_qi:_SslClientStream_OnLocalPrivateKeySelection_m1934775249
bRn:__ZN15dense_hashtableINSt3__24pairIK10KeyWrapperIP11Il2CppClassES4_EES5_N6il2cpp8metadata16SZArrayClassHashEN14dense_hash_mapIS5_S4_SA_NS5_14EqualsComparerINS9_19SZArrayClassCompareEEENS0_9allocatorIS7_EEE9SelectKeyESE_SG_E5clearEv
LQe:__ZL106AsyncOperation_t1445031843_CustomAttributesCacheGenerator_AsyncOperation_InvokeCompletionEvent_m1410305036P21CustomAttributesCache
yth:_Byte_ToString_m721125428
Gsc:__ZN14SafeBinaryRead21TransferSTLStyleArrayINSt3__26vectorIN9ShaderLab20SerializedSubProgramENS1_9allocatorIS4_EEEEEEvRT_17TransferMetaFlags
t7j:_Array_InternalArray__IndexOf_TisX509ChainStatus_t133602714_m48896230_gshared
vtb:__ZN19dynamic_block_arrayI13FileEntryInfoLj32EE4growEj
R4c:__Z15Transfer_StringI8JSONReadLb1EEvRK29SerializationCommandArgumentsR31RuntimeSerializationCommandInfo
Bra:__ZN16LightmapSettings15AppendLightmapsEiRK13dynamic_arrayI12LightmapDataLj0EE
tBj:__ZN24BinaryWriter_t399259504212set_buffer_3EP22ByteU5BU5D_t4116647657
pwa:__ZN6prcoreL17RemapGenericFloatI17TexFormatRGBFloat15TexFormatRGHalfEEvPKNS_9InnerInfoE
O2n:__ZN14dense_hash_mapI10KeyWrapperIP12Il2CppObjectEN6il2cpp2gc9CachedCCWENS4_5utils11PointerHashIS1_EENS3_14EqualsComparerINSt3__28equal_toIS2_EEEENSB_9allocatorINSB_4pairIKS3_S6_EEEEE4findERSH_
u4:__Z36AudioSource_CUSTOM_PlayOneShotHelperP12Il2CppObjectS0_f
ZAd:_sfnt_load_face
iud:_UNITY_FT_Render_Glyph_Internal
vVn:__ZNSt3__212basic_stringIDsNS_11char_traitsIDsEENS_9allocatorIDsEEE21__grow_by_and_replaceEjjjjjjPKDs
_yd:_UNITY_ft_service_list_lookup
OIb:__Z18Transfer_BlittableI17RemapPPtrTransferLb1E11ColorRGBA32EvRK29SerializationCommandArgumentsR31RuntimeSerializationCommandInfo
V_c:__ZN5IMGUI21SelectReceivingWindowER8GUIStateb
c$f:_HMAC_Initialize_m3157696427
Es:__ZL59__ManagedRegistrationHelperFunction_RotationConstraintProxyPv
jvo:___strchrnul
QMl:_List_1_System_Collections_ICollection_CopyTo_m3643417403_gshared
$ea:__ZN13BaseAllocator13TryDeallocateEPv
gmm:_ListPool_1_Release_m1363449253_gshared
$Ui:_X509SubjectKeyIdentifierExtension__ctor_m2055934916
aek:__ZNK26SimpleCollator_t287783472917get_level2Maps_11Ev
Qoj:__ZNK29Path_t1605229823_StaticFields21get_dirEqualsVolume_7Ev
zQg:__ZN46RemotingConfiguration_t4113740665_StaticFields23set_defaultConfigRead_3Eb
rHk:_Enumerator_Dispose_m2531396701_AdjustorThunk
kwb:__ZN16MemoryFileSystem5WriteER13FileEntryDatayPvPy
Cre:__ZNK33UIVertex_t4057497605_StaticFields17get_simpleVert_10Ev
Bgd:__ZNK21b2ClearBodyForcesTask13GetRangeCountEv
Zto:_sprintf
lTg:__ZNK22InputField_t376291743122get_m_TextComponent_20Ev
Nxc:__ZN9Scripting25CreateNullExceptionObjectE18ScriptingObjectPtr
ZBf:__ZN28ResolveEventArgs_t177945650112set_m_Name_1EP8String_t
vnk:_PrivateKeyInfo_DecodeRSA_m2889346634
X2:__ZN13AudioListener17RemoveFromManagerEv
Oi:_glAttachShader
rfe:_ContentSizeFitter_SetLayoutHorizontal_m2833273874
Cbl:__Z53RuntimeInvoker_Int32_t2950945753_Int32U26_t1369213839PFvvEPK10MethodInfoPvPS4_
bfi:__ZN28GenericInterfaceFuncInvoker1IbP22Int32U5BU5D_t385246372E6InvokeEPK10MethodInfoP12Il2CppObjectS1_
GNa:__ZNK6Camera19GetProjectionMatrixEv
Qhb:__ZNSt3__26vectorIPK9Transform13stl_allocatorIS3_L18MemLabelIdentifier1ELi16EEE21__push_back_slow_pathIRKS3_EEvOT_
cEg:__ZNK21LeaseSink_t366638021915get__nextSink_0Ev
nNi:__ZN36NameObjectCollectionBase_t209184736414set_keyscoll_8EP26KeysCollection_t1318642398
Dbf:__ZL70InputField_t3762917431_CustomAttributesCacheGenerator_m_SelectionColorP21CustomAttributesCache
kWg:_InputField_SetToCustomIfContentTypeIsNot_m2813459946
P1k:__Z49RuntimeInvoker_DateTime_t3738529785_RuntimeObjectPFvvEPK10MethodInfoPvPS4_
Kjd:__ZN21b2FindNewContactsTask15AddContactPairsERK16b2ContactManagerP14b2FixtureProxyS4_R13dynamic_arrayINS_17b2DeferredContactELj0EE
DLj:_Int16_Equals_m1479112859
t1m:__ZL25UnresolvedVirtualCall_232P12Il2CppObjectS0_iPK10MethodInfo
cRe:__ZL70RuntimePlatform_t4159857903_CustomAttributesCacheGenerator_FlashPlayerP21CustomAttributesCache
pSk:__ZNK32RegisteredWaitHandle_t152953845422get__executeOnlyOnce_5Ev
fAj:_Guid_GetHashCode_m3042133858_AdjustorThunk
_Ha:__Z38PreallocateObjectFromPersistentManagerib
uVa:__ZN15ReflectionProbe23VirtualRedirectTransferER24GenerateTypeTreeTransfer
CLm:_Event_t2956885303_marshal_pinvoke_cleanup
Tbk:__ZN45MSCompatUnicodeTable_t1453885583_StaticFields12set_level2_4EPh
dUj:_SecurityException_get_FirstPermissionThatFailed_m3934559164
n2i:_Interpreter_Backtrack_m2828876822
Q6a:__ZNK9Texture2D20GetUnscaledTextureIDEv
JOl:_List_1_get_Capacity_m3666274724_gshared
kqk:__ZN24Dictionary_2_t144469424916set_threshold_11Ei
LVf:_SByte_System_IConvertible_ToType_m4075253447
tGn:__ZN15dense_hashtableINSt3__24pairIK10KeyWrapperINS1_IPK12PropertyInfoP11Il2CppClassEEEjEES9_17ReflectionMapHashIS8_EN14dense_hash_mapIS9_jSD_NS9_14EqualsComparerINS0_8equal_toIS8_EEEENS0_9allocatorISB_EEE9SelectKeyESI_SK_E21fill_range_with_emptyEPSB_SO_
WCo:_glFenceSync__wrapper
ifn:__ZNK15dense_hashtableINSt3__24pairIK10KeyWrapperIPK22Il2CppGenericParameterEP11Il2CppClassEES6_N6il2cpp5utils11PointerHashIS4_EEN14dense_hash_mapIS6_S9_SE_NS6_14EqualsComparerINS0_8equal_toIS5_EEEENS0_9allocatorISA_EEE9SelectKeyESJ_SL_E8min_sizeEjj
kJk:__ZNK22Enumerator_t122258084613get_current_3Ev
TVj:_Single_System_IConvertible_ToUInt64_m3299129161
uSe:__ZL53GameObject_t1113636619_CustomAttributesCacheGeneratorP21CustomAttributesCache
Zni:__ZNK27SslClientStream_t391462466126get_ClientCertSelection_17Ev
Brl:__Z51RuntimeInvoker_Void_t1185182177_HitInfo_t3229609740PFvvEPK10MethodInfoPvPS4_
V6a:__ZNK9Texture2D26CanReuploadDataToGfxDeviceEv
xMh:_InternalEnumerator_1_Dispose_m1971295898_AdjustorThunk
_Ge:__ZL63CodeAccessPermission_t2681295399_CustomAttributesCacheGeneratorP21CustomAttributesCache
Smb:__Z29ClearRepeatingLogMessageStatev
CNh:_InternalEnumerator_1_get_Current_m3191242573_gshared
wIg:__ZNK41ConstructionCall_t4011594745_StaticFields30get_U3CU3Ef__switchU24map20_19Ev
ibo:__ZN6il2cpp2vm6String6NewLenEPKcj
Iql:__Z53RuntimeInvoker_Int32_t2950945753_UICharInfo_t75501106PFvvEPK10MethodInfoPvPS4_
eEc:__ZN15QualitySettings12CleanupClassEv
nra:__ZN21EnlightenSceneMappingaSERKS_
sng:_RectTransform_set_anchorMax_Injected_m389283802
jtj:__ZN27NumberFormatInfo_t43587713829set_positiveInfinitySymbol_29EP8String_t
_Ka:__ZN14SafeBinaryRead21TransferSTLStyleArrayI13dynamic_arrayI17SortingLayerEntryLj0EEEEvRT_17TransferMetaFlags
p8j:__ZN21InterfaceFuncInvoker2Ii19Vector3_t3722313464S0_E6InvokeEjP11Il2CppClassP12Il2CppObjectS0_S0_
Uji:__ZN19Context_t397123470726set_writeSequenceNumber_16Ey
oQl:_List_1_GrowIfNeeded_m278824317_gshared
kto:__ZN20WaterIce_t131238043214set_animator_7EP19Animator_t434523843
f5b:__ZN7ApiGLESD2Ev
epo:__ZN17Enemy_t176572958916set_moveSpeed_10Ef
kSm:__ZNK30SymmetricTransform_t380259184311get_temp2_4Ev
xMa:__ZN9Transform47ClearTransformHierarchyAndApplyToSerializedDataEv
kMb:__Z18Transfer_BlittableI19StreamedBinaryWriteLb1E11QuaternionfEvRK29SerializationCommandArgumentsR31RuntimeSerializationCommandInfo
Itn:_CertificateHandler_t2739891000_marshal_pinvoke
m9b:__ZN22AsyncGPUReadbackBuffer4InitEjb
e6c:__ZN8JSONRead21TransferSTLStyleArrayINSt3__26vectorI8MonoPPtr13stl_allocatorIS3_L18MemLabelIdentifier1ELi16EEEEEEvRT_17TransferMetaFlags
v4n:__ZN6il2cpp6icalls8mscorlib6SystemL16write_enum_valueEPcP11Il2CppClassy
x_f:__ZN16HMAC_t262110114415set__hashName_6EP8String_t
zYg:_InputField_IsSelectionVisible_m3622592134
Nqh:_AssemblyLoadEventHandler_Invoke_m1462077361
yzo:dynCall_fidi
eBn:__ZN15dense_hashtableINSt3__24pairIK10KeyWrapperINS1_IPK9FieldInfoP11Il2CppClassEEEjEES9_17ReflectionMapHashIS8_EN14dense_hash_mapIS9_jSD_NS9_14EqualsComparerINS0_8equal_toIS8_EEEENS0_9allocatorISB_EEE9SelectKeyESI_SK_E12resize_deltaEjj
ajd:__ZNK35b2SolveDiscreteIslandVelocitiesTask13GetRangeCountEv
lIl:_List_1_TrimExcess_m3433550210_gshared
eXg:__Z25Il2CppCodeGenWriteBarrierI30TouchScreenKeyboard_t731888065EvPPT_S2_
rDe:__ZL58IContextProperty_t840037424_CustomAttributesCacheGeneratorP21CustomAttributesCache
RNm:_GUILayoutEntry__ctor_m2229197035
aba:__ZN11UnityEngine15CloudWebService14RestDownloaderD2Ev
BJi:_EnumBuilder_get_Assembly_m1175292766
upc:__Z29StdTemplateConversionFunctionIjhEbPvR14SafeBinaryRead
VQa:__ZN15dense_hashtableINSt3__24pairIKN9ShaderLab7Program23ShaderKeywordSetAndHashEPKNS2_10SubProgramEEES4_NS3_24ShaderKeywordHashFunctorEN14dense_hash_mapIS4_S8_SA_NS0_8equal_toIS4_EE13stl_allocatorIS9_L18MemLabelIdentifier67ELi16EEE9SelectKeyESD_SG_E15insert_noresizeERKS9_
m0i:__ZNK19Capture_t223201605012get_length_1Ev
vZj:__ZN33Encoding_t1523322056_StaticFields20set_asciiEncoding_16EP20Encoding_t1523322056
qPc:__ZNK13MonoBehaviour13GetScriptTypeEv
PYa:__ZN13RenderTexture12SetDimensionE16TextureDimension
Lqi:_SslClientStream_set_ClientCertSelectionDelegate_m1261530976
Fca:__GLOBAL__sub_I_Runtime_Graphics_8_cpp
ud:_SDL_FreeRW
W7e:__ZL109ExecuteEvents_t3484638744_CustomAttributesCacheGenerator_ExecuteEvents_U3Cs_HandlerListPoolU3Em__0_m391641698P21CustomAttributesCache
_rl:__Z79RuntimeInvoker_Void_t1185182177_Int32_t2950945753_ParameterModifier_t1461694466PFvvEPK10MethodInfoPvPS4_
ENd:__Z34CanvasRenderer_Get_Custom_PropCullP12Il2CppObject
QFk:__ZNK22Enumerator_t17895014809get_ver_2Ev
E1:__ZN20SoundChannelInstance8getDelayE14FMOD_DELAYTYPEPjS1_
iRa:__ZNSt3__26vectorIN20GpuProgramParameters15StructParameterENS_9allocatorIS2_EEEC2ERKS5_
ITh:__ZN32InternalEnumerator_1_t269436751311set_array_0EP11Il2CppArray
tDh:_ArrayReadOnlyList_1_Contains_m232667507_gshared
Obl:__Z77RuntimeInvoker_Boolean_t97287965_IntPtr_t_Int32_t2950945753_SByte_t1669577662PFvvEPK10MethodInfoPvPS4_
djg:_PlayableHandle_GetPlayableType_m432385838_AdjustorThunk
Wsd:__ZNSt3__26vectorIN20TextRenderingPrivate8FontImpl13CharacterInfoE13stl_allocatorIS3_L18MemLabelIdentifier1ELi16EEE8__appendEj
v:tempBigInt
sAl:_Array_InternalArray__Insert_TisKeyframe_t4206410242_m1558638568_gshared
qJe:__ZL77Convert_t2465617642_CustomAttributesCacheGenerator_Convert_ToByte_m3567528984P21CustomAttributesCache
Xh:_emscripten_glVertexAttrib1fv
ktc:__ZNSt3__26vectorIN9ShaderLab20SerializedSubProgram12UAVParameterENS_9allocatorIS3_EEE7reserveEj
Jgk:__ZNK19Context_t174453113022get_AlwaysMatchFlags_2Ev
syo:__ZSt11__terminatePFvvE
sQi:__Z25Il2CppCodeGenWriteBarrierI37X509CertificateCollection_t3399372417EvPPT_S2_
WQn:__ZN15dense_hashtableINSt3__24pairIK10KeyWrapperIP11Il2CppClassES4_EES5_N6il2cpp8metadata16SZArrayClassHashEN14dense_hash_mapIS5_S4_SA_NS5_14EqualsComparerINS9_19SZArrayClassCompareEEENS0_9allocatorIS7_EEE9SelectKeyESE_SG_E9set_valueEPS7_RKS7_
e_:__ZN12AudioManager14systemCallbackEP11FMOD_SYSTEM24FMOD_SYSTEM_CALLBACKTYPEPvS3_
lZj:__ZNK33Encoding_t1523322056_StaticFields29get_bigEndianUTF32Encoding_26Ev
bie:__ZNK20Dropdown_t227439122520get_m_CaptionText_19Ev
l7l:_ReadOnlyCollection_1_System_Collections_Generic_ICollectionU3CTU3E_Clear_m3451551308_gshared
ibe:_BaseMeshEffect_OnEnable_m3291426649
$Mn:_il2cpp_alloc
o4f:_ClassLibraryInitializer_Init_m988673678
jnf:__ZNK24StringU5BU5D_t128178934014GetAtUncheckedEj
Wqh:_AssemblyLoadEventHandler_BeginInvoke_m1281107466
JWa:__ZN16ReflectionProbes16UpdateSampleDataEv
PLm:_Event_Internal_Destroy_m928770705
Tfj:_DateTime_System_IConvertible_ToSingle_m2193708681_AdjustorThunk
XFg:_TrackingServices_NotifyUnmarshaledObject_m2784831802
XA:__ZN7mecanim9animation15CloneClipMemoryEPKNS0_10ClipMemoryER20RuntimeBaseAllocator
Yuj:_CultureInfo_GetCultureInfo_m56098747
Jab:__ZN14Texture2DArray5ResetEv
zic:__Z20AddActiveLocalLightsR11CullResultsR27LocalLightCullingParametersPPK15SharedLightDataPK8Vector4fRK9IndexListPfRSA_R12ActiveLightsSG_P5RectTIfEP13TargetEyeMask
wxe:__ZL80Hashtable_t1853889766_CustomAttributesCacheGenerator_Hashtable__ctor_m1763145853P21CustomAttributesCache
Kaj:_Convert_ToDecimal_m1284148187
SHj:__ZNK24StreamReader_t400993589914get_foundCR_13Ev
NTe:__ZL117TouchScreenKeyboard_t731888065_CustomAttributesCacheGenerator_TouchScreenKeyboard_Open_m3609399077____autocorrection2P21CustomAttributesCache
tih:__ZNK26X509Certificate_t48924302413get_subject_8Ev
Bwd:_cf2_getNormalizedVector
Hc:_JS_Sound_Play
QVd:__Z26GetUnityConnectSettingsPtrv
fJo:_emscripten_glRenderbufferStorage__wrapper
Ege:_FloatTween_get_targetValue_m3648367999
l8l:_ReadOnlyCollection_1_System_Collections_IList_set_Item_m1538987737_gshared
DWh:_DefaultComparer_Compare_m1920986590_gshared
oHj:__ZNK28StreamAsyncResult_t78024851211get_state_0Ev
dsc:__ZN9ShaderLab16SerializedShader8TransferI14SafeBinaryReadEEvRT_
cmb:__ZN5Mutex7TryLockEv
v8h:__ZN22ModulusRing_t59651150514set_constant_1EP22BigInteger_t2902905090
Cpe:_GridLayoutGroup_set_constraint_m3308895167
P2e:__ZL103AudioSource_t3935305588_CustomAttributesCacheGenerator_AudioSource_ReadExtensionPropertyValue_m72717540P21CustomAttributesCache
eZi:__ZN33X509Chain_t194917408_StaticFields29set_U3CU3Ef__switchU24mapC_13EP24Dictionary_2_t2736202052
eJg:_ConstructionCallDictionary_SetMethodProperty_m3145285304
HWm:__ZNK46AudioExtensionManager_t3220897493_StaticFields45get_m_SourceSpatializerExtensionDefinitions_1Ev
zri:_Int32_System_IConvertible_ToUInt32_m3557270157
Vhb:__ZN11TimeManagerD2Ev
HEh:_InternalEnumerator_1_System_Collections_IEnumerator_get_Current_m1503522504_gshared
JN:__ZN7mecanim8skeleton13SkeletonAlignEPKNS0_8SkeletonERKN4math7_float4ES7_i
ODc:__ZN19ShaderPropertySheet16SetVectorIndexedEN9ShaderLab16FastPropertyNameEifRK8Vector4fNS_8SetFlagsE
VWk:_Type_get_IsAbstract_m1120089130
N8m:_Vector3_get_normalized_m2454957984_AdjustorThunk
Mq:__ZN14SafeBinaryRead21TransferSTLStyleArrayIN4core12basic_stringIcNS1_20StringStorageDefaultIcEEEEEEvRT_17TransferMetaFlags
nLm:_UriFormatException__ctor_m1115096473
dKh:_InternalEnumerator_1_Dispose_m2818366163_AdjustorThunk
U4j:_Array_InternalArray__IEnumerable_GetEnumerator_TisSlot_t384495010_m460993382_gshared
oho:_GC_typed_mark_proc
jQn:__ZN15dense_hashtableINSt3__24pairIK10KeyWrapperINS1_IP11Il2CppClassjEEES4_EES6_N6il2cpp8metadata14ArrayClassHashEN14dense_hash_mapIS6_S4_SB_NS6_14EqualsComparerINSA_17ArrayClassCompareEEENS0_9allocatorIS8_EEE9SelectKeyESF_SH_E9copy_fromERKSK_j
$bb:__ZN21EnlightenSceneMapping8TransferI19StreamedBinaryWriteEEvRT_
Ypc:__Z29StdTemplateConversionFunctionIayEbPvR14SafeBinaryRead
eHa:__ZN9Scripting5Unity11Collections31NativeFixedLengthAttributeProxy9InitProxyEv
Evl:__Z55RuntimeInvoker_Boolean_t97287965_Nullable_1_t2603721331PFvvEPK10MethodInfoPvPS4_
pRm:_GUIUtility_IsExitGUIException_m3644066650
dVc:__Z40SpriteRenderer_CUSTOM_set_color_InjectedP12Il2CppObjectRK10ColorRGBAf
Iqb:__ZN9Transform23VirtualRedirectTransferER19StreamedBinaryWrite
Cba:__ZN11UnityEngine15CloudWebService14DataDispatcher4StopEv
Zsi:__ZNK21CustomInfo_t43517979819get_IntegerDigits_4Ev
NOg:_StackBuilderSink_ExecuteAsyncMessage_m277782655
mtc:__ZNSt3__26vectorIN9ShaderLab20SerializedSubProgram12UAVParameterENS_9allocatorIS3_EEE8__appendEj
REh:_InternalEnumerator_1__ctor_m4191108945_gshared
cHn:__ZNK15dense_hashtableINSt3__24pairIK10KeyWrapperINS1_IPK9EventInfoP11Il2CppClassEEEjEES9_17ReflectionMapHashIS8_EN14dense_hash_mapIS9_jSD_NS9_14EqualsComparerINS0_8equal_toIS8_EEEENS0_9allocatorISB_EEE9SelectKeyESI_SK_E12test_deletedERK24dense_hashtable_iteratorISB_S9_SD_SM_SI_SK_E
A_c:__ZN5IMGUI9GUIWindow5OnGUIER8GUIState
pYm:_AudioConfigurationChangeHandler_EndInvoke_m4175380841
mXc:__Z55Register_UnityEngine_Texture2DArray_Internal_CreateImplv
wgo:_GC_maybe_gc
vMc:__ZNK17AnimationCurveTplI11QuaternionfE8GetRangeEv
qak:_Array_InternalArray__ICollection_CopyTo_TisSingle_t1397266774_m455540885_gshared
Eya:__ZN17ScriptingGCHandle7AcquireE18ScriptingObjectPtr25ScriptingGCHandleWeakness
$dl:__Z74RuntimeInvoker_RuntimeObject_RuntimeObject_Int64_t3736567304_RuntimeObjectPFvvEPK10MethodInfoPvPS4_
Ytn:_SessionStateChanged_Invoke_m4203746932
GQd:__ZNSt3__26__treeINS_12__value_typeIN4core12basic_stringIcNS2_20StringStorageDefaultIcEEEEN11UnityEngine9Analytics19RemoteSettingsValueEEENS_19__map_value_compareIS6_SA_NS_4lessIS6_EELb1EEE13stl_allocatorISA_L18MemLabelIdentifier6ELi16EEE16__construct_nodeIJNS_4pairIS6_S9_EEEEENS_10unique_ptrINS_11__tree_nodeISA_PvEENS_22__tree_node_destructorISF_ISP_LSG_6ELi16EEEEEEDpOT_
X0n:___cxx_global_var_init_13679
fEa:__ZN9Scripting11UnityEngine17LightmapDataProxy12CleanupProxyEv
COg:_ServerObjectReplySink_AsyncProcessMessage_m1580266605
l4h:_Enumerator__ctor_m1734342590_gshared
CQn:__ZN15dense_hashtableINSt3__24pairIK10KeyWrapperINS1_IP11Il2CppClassjEEES4_EES6_N6il2cpp8metadata14ArrayClassHashEN14dense_hash_mapIS6_S4_SB_NS6_14EqualsComparerINSA_17ArrayClassCompareEEENS0_9allocatorIS8_EEE9SelectKeyESF_SH_E21fill_range_with_emptyEPS8_SL_
Ain:__ZN14dense_hash_mapI10KeyWrapperIPK11Il2CppClassEPKcN6il2cpp5utils11PointerHashIS1_EENS4_14EqualsComparerINSt3__28equal_toIS3_EEEENSC_9allocatorINSC_4pairIKS4_S6_EEEEE13set_empty_keyERSI_
Ugi:__Z25Il2CppCodeGenWriteBarrierI30SecurityParameters_t2199972650EvPPT_S2_
fgl:__Z85RuntimeInvoker_Int32_t2950945753_RuntimeObject_Int32U26_t1369213839_Int32_t2950945753PFvvEPK10MethodInfoPvPS4_
j4a:__Z21HasAlphaTextureFormat13TextureFormat
X5:__ZN12AudioManager6UpdateEv
vVi:_X509EnhancedKeyUsageExtension_ToString_m350388564
Fy:__ZN8Animator12AddToManagerEv
Cxi:_MissingFieldException__ctor_m3742452630
$_i:_X509Chain__ctor_m2674663382
wca:__GLOBAL__sub_I_Runtime_Core_Callbacks_0_cpp
m7l:_ReadOnlyCollection_1_System_Collections_Generic_IListU3CTU3E_Insert_m1121807192_gshared
NSb:__ZN23CachedSerializationDataD2Ev
Kkc:__ZNK25CameraStackRenderingState31CalculateStereoCameraTargetTypeEv
f6h:_Dictionary_2_System_Collections_ICollection_get_SyncRoot_m2020472285_gshared
hWa:__ZN14RenderSettings23VirtualRedirectTransferER14SafeBinaryRead
r$j:__ZNK43DecoderReplacementFallbackBuffer_t84114477923get_fallback_assigned_0Ev
Med:__ZNK13b2CircleShape5CloneEP16b2BlockAllocator
W7n:__ZN6il2cpp2os10ThreadImpl15CurrentThreadIdEv
ydh:__ZN18Slider_t390372890217set_m_FillRect_18EP25RectTransform_t3704657025
Bkf:__ZN16VirtFuncInvoker1IP6Type_tP8String_tE6InvokeEjP12Il2CppObjectS3_
F9m:_Vector4_set_Item_m1183742235
kVc:__Z36Renderer_Set_Custom_PropSortingOrderP12Il2CppObjecti
v4i:_Queue_CopyTo_m737385843
OUa:__ZN17GlobalGameManager8TransferI17RemapPPtrTransferEEvRT_
gPj:_SymmetricAlgorithm_get_Key_m3241860519
p_g:_U3CMouseDragOutsideRectU3Ec__Iterator1_Reset_m2233410497
pca:__GLOBAL__sub_I_Runtime_Camera_5_cpp
cod:__ZN10Collider2DC2E10MemLabelId18ObjectCreationMode
TYi:__ZN35X509ExtensionEnumerator_t247956065916set_enumerator_0EP12Il2CppObject
eki:_ClientSessionInfo_get_HostName_m2118440995
Jqo:__ZNK21Explosion_t165675460120get_fadeMultiplier_5Ev
Myj:__ZNK20TextInfo_t381042552223get_customCultureName_2Ev
NEd:_UNITY_tt_face_load_fpgm
qMa:__Z17IsObjectAvailablei
lib:__ZN12InputManagerD0Ev
sTl:_Queue_1_Peek_m1713833142_gshared
PFe:__ZL64DSASignatureFormatter_t2007981259_CustomAttributesCacheGeneratorP21CustomAttributesCache
ARk:_ExecutionContext_Capture_m681135907
PGg:__ZNK32CADMethodCallMessage_t261798406010get__uri_4Ev
KMh:__ZNK32InternalEnumerator_1_t139145510411get_array_0Ev
zGh:_InternalEnumerator_1_System_Collections_IEnumerator_get_Current_m2889979481_AdjustorThunk
Pkn:__ZNK10KeyWrapperIP9FieldInfoE8isNormalEv
wne:__ZNK19Graphic_t166033561119get_m_VertsDirty_12Ev
Zym:__ZNK25RepeatContext_t121486307613get_expr_pc_4Ev
Hlg:_Rect_get_position_m2115952571
jGa:__ZN9Scripting11UnityEngine15ColorGamutProxy12CleanupProxyEv
CYe:__ZL94RenderTextureDescriptor_t1974534975_CustomAttributesCacheGenerator_U3CheightU3Ek__BackingFieldP21CustomAttributesCache
L5i:__ZNK15Slot_t38449501011get_value_1Ev
t5l:_ReadOnlyCollection_1_get_Item_m4005849861_gshared
Gdh:_Slider_get_direction_m3871593184
Cjk:_ASN1_GetBytes_m3305539297
HQl:_List_1_Remove_m2092116835_gshared
VJe:__ZL77Convert_t2465617642_CustomAttributesCacheGenerator_Convert_ToSByte_m717245755P21CustomAttributesCache
qWh:_DefaultComparer__ctor_m2039558311_gshared
qla:__ZNK15MonoScriptCache7ReleaseEv
Kgn:__ZN6il2cpp2vm5Class13HasReferencesEP11Il2CppClass
Fth:_CLSCompliantAttribute__ctor_m581760440
Xi:_glBindTexture
svo:_snprintf
Clh:__ZNK25SmallXmlParser_t97378783915get_xmlSpaces_3Ev
Gwi:_InvalidCastException__ctor_m2551002860
R9j:_Array_InternalArray__ICollection_CopyTo_TisKeyValuePair_2_t2401056908_m4025041902_gshared
Dca:__GLOBAL__sub_I_Runtime_Graphics_5_cpp
wGo:_emscripten_glVertexAttrib1fv__wrapper
f8f:_InvokableCallList_RemoveListener_m1769379719
Aob:__Z36scripting_liveness_calculation_begin17ScriptingClassPtriPFvPP12Il2CppObjectiPvES3_PFvvES7_
WPb:__Z29Transfer_Blittable_ArrayFieldI18StreamedBinaryRead10Matrix4x4fEvRT_R9ArrayInfoRK23StaticTransferFieldInfo
jS:__ZN7mecanim12statemachine13StateConstant8TransferI24GenerateTypeTreeTransferEEvRT_
A$m:__ZL25UnresolvedVirtualCall_131P12Il2CppObjecthS0_PK10MethodInfo
mfg:_MonoBehaviour_Internal_IsInvokingAll_m2820042090
WGj:__ZN29Path_t1605229823_StaticFields22set_InvalidPathChars_0EP22CharU5BU5D_t3528271667
Tu:__Z16AppendPathToHashRK5crc32PKc
Aab:__ZN13ScreenManager20SetScreenOrientationE17ScreenOrientation
p0k:_UnitySerializationHolder_GetModuleData_m1550266881
s9e:__ZL52InputMode_t3382566315_CustomAttributesCacheGeneratorP21CustomAttributesCache
NRj:_String_Equals_m1744302937
I6f:_Display__ctor_m501911701
K3l:_ReadOnlyCollection_1_System_Collections_Generic_IListU3CTU3E_Insert_m1020890112_gshared
rYi:__ZNK28X509ChainElement_t146405633812get_status_1Ev
Z4d:__ZNK27PhysicsRaycaster_t43741952017get_m_EventMask_6Ev
bje:_Dropdown_get_onValueChanged_m2462066659
mhe:_DefaultControls_SetDefaultTextValues_m1943359795
hdc:__Z19SetupMotionMatricesR6CameraR18RPDataMotionVector
Ocn:__ZL7log2_64y
rP:__ZN8Animator11AnimatorJob11AddPlayableEP17AnimationPlayablef
spe:_GridLayoutGroup_get_cellSize_m2967185053
Hej:_CurrentSystemTimeZone_GetUtcOffset_m340358963
Itm:_PKCS12_Decrypt_m1280162536
wD:__ZN7mecanim8skeleton19DestroySkeletonMaskEPNS0_12SkeletonMaskER20RuntimeBaseAllocator
g9c:__GLOBAL__sub_I_Physics2DScriptingClasses_cpp
MGh:_InternalEnumerator_1_get_Current_m3081223448_gshared
_Lm:_Event_get_isMouse_m1058251071
PSh:__ZN32InternalEnumerator_1_t31866461069set_idx_1Ei
Xyh:_CaseInsensitiveHashCodeProvider_AreEqual_m1790260777
Jeh:__ZN23SpriteState_t136298647922set_m_DisabledSprite_2EP17Sprite_t280657092
KWc:__Z43SceneManager_CUSTOM_GetActiveScene_InjectedRi
CUl:_Collection_1_IndexOf_m3762683187_gshared
Bzd:_otv_JSTF_validate
kRa:__ZN22CreateGpuProgramOutputC2Ev
q8h:_BigInteger_op_LessThanOrEqual_m3925173639
K8f:_PersistentCallGroup_Initialize_m4253175514
Urh:_Boolean_System_IConvertible_ToChar_m4279513009_AdjustorThunk
fMi:_DictionaryNodeEnumerator__ctor_m1005316675
njf:__ZN25ParameterInfo_t186105659818set_PositionImpl_4Ei
EZg:_InputField_get_layoutPriority_m2945430764
Wti:_NumberFormatter_ScaleOrder_m3813786990
y6i:_Stack__ctor_m2602729586
cml:__Z43RuntimeInvoker_VerticalWrapMode_t2936607737PFvvEPK10MethodInfoPvPS4_
yBh:__ZN25GenericVirtActionInvoker2IP12Il2CppObjectS1_E6InvokeEPK10MethodInfoS1_S1_S1_
wnk:_PrivateKeyInfo_DecodeDSA_m771724585
yJe:__ZL81Convert_t2465617642_CustomAttributesCacheGenerator_Convert_ToDateTime_m1031474510P21CustomAttributesCache
Kzm:_Interval_get_Size_m4163671410_AdjustorThunk
GSg:__ZN22InputField_t376291743128set_m_CharacterValidation_28Ei
v7e:__ZL53EventHandle_t600343995_CustomAttributesCacheGeneratorP21CustomAttributesCache
zBc:__ZN8GUILayer12CleanupClassEv
Exh:_SynchronizedArrayListWrapper_get_SyncRoot_m3862302789
xHl:_List_1_System_Collections_IEnumerable_GetEnumerator_m839737540_gshared
$Zk:_UInt32_System_IConvertible_ToSByte_m1061556466
Xxg:_WellKnownClientTypeEntry__ctor_m2471908952
Egn:__ZN6il2cpp2vm5Class4InitEP11Il2CppClass
tb:invoke_vidi
QBi:_NumberFormatter_FormatRoundtrip_m19342689
hRg:_RemotingServices_CreateClientProxyForContextBound_m783705199
dnl:__Z30RuntimeInvoker_Axis_t809944411PFvvEPK10MethodInfoPvPS4_
cMc:__ZNK15GUIEventManager15GetEventAtIndexEi
mnm:_InternalAsyncResult_get_ProceedAfterHandshake_m2508379800
hMd:__ZN2UI14CanvasRenderer17SyncDirtyElementsER8JobFence
gdj:_Convert_ToUInt16_m2952781888
u_h:_Enumerator_System_Collections_IEnumerator_get_Current_m3816090481_gshared
Qao:__ZN6il2cpp5utils11StringUtils15StringDuplicateEPKc
svk:_DefaultComparer_Equals_m2480133610_gshared
Vca:__GLOBAL__sub_I_Runtime_Logging_0_cpp
_6a:__ZN7Cubemap34UpdateFileTextureUploadInstructionEP24TextureUploadInstructionj
EQa:__ZNK9ShaderLab21ShaderRasterStateDesc16ToGfxRasterStateEPK19ShaderPropertySheetS3_R14GfxRasterState
Cpm:__ZN29TlsClientSettings_t248603950318set_certificates_1EP37X509CertificateCollection_t3399372417
knd:__ZN13BoxCollider2D8TransferI18StreamedBinaryReadEEvRT_
hpf:__ZN31OpCodes_t126150456_StaticFields10set_Div_90E17OpCode_t123070264
aDl:_Array_Sort_TisVector3_t3722313464_m1915176437_gshared
Xmo:__ZN6il2cpp2os9EventImplC2Ebb
Q9g:_ScrollRect_OnInitializePotentialDrag_m3139711961
NLk:_List_1_System_Collections_IList_get_IsFixedSize_m3566150119_gshared
uXk:_Type_GetType_m3605423543
CLl:_List_1_get_Item_m2113769949_gshared
OPe:__ZL98NativePropertyAttribute_t1305929258_CustomAttributesCacheGenerator_U3CTargetTypeU3Ek__BackingFieldP21CustomAttributesCache
yha:__ZN13HandleManagerC2Ev
LXn:__ZN15dense_hashtableINSt3__24pairIK10KeyWrapperIP14Il2CppIUnknownEjEES5_N6il2cpp5utils11PointerHashIS3_EEN14dense_hash_mapIS5_jSB_NS5_14EqualsComparerINS0_8equal_toIS4_EEEENS0_9allocatorIS7_EEE9SelectKeyESG_SI_E9set_valueEPS7_RKS7_
Gjf:__Z25Il2CppCodeGenWriteBarrierI24ModuleBuilder_t731887691EvPPT_S2_
Gpg:_ScriptableObject_t2528358522_marshal_pinvoke
Bha:__Z20IsMatrixBuiltinParamPKcPi
_Jn:__ZN6il2cpp2gc19AppendOnlyGCHashMapINSt3__24pairIPK10MethodInfoP11Il2CppClassEEP11Il2CppArray17ReflectionMapHashIS9_ENS2_8equal_toIS9_EEEC2Ev
tUj:_SecurityFrame_t1422462475_marshal_pinvoke
xzl:__ZNK41RijndaelTransform_t631222241_StaticFields9get_T0_19Ev
XDn:__ZN15dense_hashtableINSt3__24pairIK10KeyWrapperINS1_IPK10MethodInfoP11Il2CppClassEEEjEES9_17ReflectionMapHashIS8_EN14dense_hash_mapIS9_jSD_NS9_14EqualsComparerINS0_8equal_toIS8_EEEENS0_9allocatorISB_EEE9SelectKeyESI_SK_E16reset_thresholdsEv
vQk:_UnicodeEncoding_GetBytesInternal_m1902824297
qDc:__ZN8Renderer19PostInitializeClassEv
Z5j:_Array_FindIndex_TisRuntimeObject_m2504082708_gshared
dMd:__ZNSt3__26__treeINS_12__value_typeINS_4pairIKiS3_EEN2UI14DepthSortLayerEEENS_19__map_value_compareIS4_S7_NS_4lessIS4_EELb1EEE13stl_allocatorIS7_L18MemLabelIdentifier1ELi16EEE25__emplace_unique_key_argsIS4_JRKNS_21piecewise_construct_tENS_5tupleIJOS4_EEENSK_IJEEEEEENS2_INS_15__tree_iteratorIS7_PNS_11__tree_nodeIS7_PvEEiEEbEERKT_DpOT0_
sxm:_X509Chain_FindCertificateRoot_m1937726457
ZGm:__ZNK22AnchorInfo_t33870111519get_pos_1Ev
bOf:__ZN25ObjectManager_t165306432526set__deserializedRecords_2EP21ArrayList_t2718874744
xRd:__ZN11UnityEngine15PlatformWrapper21GetVRPlayAreaGeometryER13dynamic_arrayI8Vector3fLj0EE
RVm:__ZNK28AudioClipPlayable_t78506902214get_m_Handle_0Ev
lio:__ZN6il2cpp6icalls8mscorlib6System8Delegate23CreateDelegate_internalEP20Il2CppReflectionTypeP12Il2CppObjectP22Il2CppReflectionMethodb
_ak:__ZN28CodePointIndexer_t413443108615set_defaultCP_3Ei
f0h:_Enumerator_System_Collections_IEnumerator_get_Current_m921113401_AdjustorThunk
cAh:_DictionaryEntry_get_Value_m618120527_AdjustorThunk
fSb:__ZN18DelayedCallManager18CancelCallDelayed2E4PPtrI6ObjectEPF15CallObjectStatePS1_PvES7_
qwo:_threebyte_strstr
tKa:__ZN25ThreadsafeLinearAllocator10ReallocateEPvji
MJh:__ZNK31InternalEnumerator_1_t34866412511get_array_0Ev
DEb:__Z18Transfer_BlittableI14SafeBinaryReadLb1E11QuaternionfEvRK29SerializationCommandArgumentsR31RuntimeSerializationCommandInfo
pRi:__ZNK24ServicePoint_t278696684412get_locker_8Ev
Rva:__ZN18SpriteAtlasManagerD0Ev
Dmm:_SslHandshakeHash__ctor_m4169387017
dB:__ZN7mecanim9animation10SampleClipERKNS0_12ConstantClipEjPf
M8l:_ReadOnlyCollection_1_System_Collections_ICollection_get_IsSynchronized_m1150914347_gshared
Ksm:__ZNK24GeneralNames_t270229415910get_uris_3Ev
fpl:__Z57RuntimeInvoker_Boolean_t97287965_KeyValuePair_2_t71524366PFvvEPK10MethodInfoPvPS4_
n2a:__ZN10Matrix4x4f8TransferI14SafeBinaryReadEEvRT_
RFn:__ZNK10KeyWrapperINSt3__24pairIPK12PropertyInfoP11Il2CppClassEEE14EqualsComparerINS0_8equal_toIS7_EEEclERKS8_SE_
eQb:__Z29Transfer_Blittable_ArrayFieldI18StreamedBinaryReadxEvRT_R9ArrayInfoRK23StaticTransferFieldInfo
_Lb:__Z35Transfer_Blittable_FixedBufferFieldI19StreamedBinaryWritefEvRK29SerializationCommandArgumentsR31RuntimeSerializationCommandInfo
uvj:__ZNK30DateTimeFormatInfo_t240585370115get_dayNames_29Ev
fXf:_CryptographicUnexpectedOperationException__ctor_m2381988196
iJn:__ZN14dense_hash_mapI10KeyWrapperIPK22Il2CppGenericParameterEPK24MonoGenericParameterInfoN6il2cpp5utils11PointerHashIS2_EENS4_14EqualsComparerINSt3__28equal_toIS3_EEEENSD_9allocatorINSD_4pairIKS4_S7_EEEEE15set_deleted_keyERSJ_
cP:__ZN14AvatarPlayback8StopTimeEv
TKh:_InternalEnumerator_1_System_Collections_IEnumerator_get_Current_m4213507601_gshared
Voa:__Z6AppendRKN4core12basic_stringIcNS_20StringStorageDefaultIcEEEEPKc
ydn:_IgnoreAttribute__ctor_m3428881723
mbj:_Convert_ToDouble_m996590115
zob:__ZL14OnWorldStoppedv
b5j:_Array_InternalArray__IEnumerable_GetEnumerator_TisCustomAttributeNamedArgument_t287865710_m523021714_gshared
sKj:__ZNK33UnmanagedMemoryStream_t423411766916get_fileaccess_4Ev
E1n:__ZN6il2cpp2vm6Object12NullableInitEPhP12Il2CppObjectP11Il2CppClass
_1l:__ZN21InterfaceFuncInvoker1I19Vector4_t3319028937iE6InvokeEjP11Il2CppClassP12Il2CppObjecti
DS:__ZN18StreamedBinaryRead21TransferSTLStyleArrayI22OffsetPtrArrayTransferIKN4math7_float3EEEEvRT_17TransferMetaFlags
Jvd:__ZN20TextRenderingPrivate19NativeTextGeneratorC2ERK11UTF16StringPNS_8FontImplE11ColorRGBA32ifRK8Vector2fbifiibffbbP13dynamic_arrayIN2UI8UIVertexELj0EE
A3i:_HashKeys_get_SyncRoot_m3757723936
dRm:_GUIUtility_RemoveCapture_m1294193818
f$b:__ZN7ApiGLES18ClearBufferSubDataEjN2gl12BufferTargetEll
uPl:_List_1_CopyTo_m2746988508_gshared
BUn:__ZN6il2cpp6icalls8mscorlib6System5Array9GetLengthEP11Il2CppArrayi
M0c:__Z38Register_UnityEngine_GUIStyle_get_namev
Fsh:_Boolean_ToString_m663098404
KZb:__ZN13GfxDeviceGLES13AfterDrawCallEv
pGd:_Split_Cubic
va:invoke_fiiii
ZYg:_InputField_OnSubmit_m3583210804
Y3e:__ZL72GUISkin_t1244372282_CustomAttributesCacheGenerator_m_horizontalScrollbarP21CustomAttributesCache
yJm:_Uri_CheckHostName_m2213216182
tGo:_emscripten_glBindRenderbuffer__wrapper
oFl:_Mesh_SetUvsImpl_TisVector2_t2156229523_m3009194955_gshared
Sso:_RandomTextColorNoPause_Awake_m4055073262
yai:_HMAC_set_Key_m3535779141
Xgn:__ZNKSt3__26vectorIPK10Il2CppTypeNS_9allocatorIS3_EEE8max_sizeEv
bPm:__ZNK26GUILayoutEntry_t321461157019get_stretchHeight_6Ev
cDl:_Array_Sort_TisVector4_t3319028937_TisVector4_t3319028937_m4254533673_gshared
Pug:__ZN32Vector2_t2156229523_StaticFields16set_leftVector_6E19Vector2_t2156229523
Ewh:_ArrayListWrapper_Contains_m2641184447
aGd:_ft_black_render
Sca:__GLOBAL__sub_I_Runtime_Interfaces_2_cpp
dbl:__Z177RuntimeInvoker_Int32_t2950945753_RuntimeObject_Int32_t2950945753_Int32_t2950945753_RuntimeObject_Int32_t2950945753_EncoderFallbackBufferU26_t2343550713_CharU5BU5DU26_t3299466565PFvvEPK10MethodInfoPvPS4_
kBo:dynCall_viiifi
W1b:__ZN18GfxFramebufferGLES20ActiveContextChangedEPP17RenderSurfaceBaseS2_
FFo:_glAttachShader__wrapper
J_e:__ZL86Logger_t274032455_CustomAttributesCacheGenerator_Logger_LogFormat_m3300686007____args3P21CustomAttributesCache
XOi:_FileWebRequest_System_Runtime_Serialization_ISerializable_GetObjectData_m1504466482
tBb:__Z19PluginsRenderMarkeri
OVh:_InternalEnumerator_1__ctor_m2307827786_AdjustorThunk
eU:__ZN10HumanTrait18InitializeBoneNameEv
uKh:_InternalEnumerator_1_MoveNext_m4035695998_gshared
ttc:__ZNSt3__26vectorIN9ShaderLab20SerializedSubProgram15StructParameterENS_9allocatorIS3_EEE6assignINS_11__wrap_iterIPS3_EEEENS_9enable_ifIXaasr21__is_forward_iteratorIT_EE5valuesr16is_constructibleIS3_NS_15iterator_traitsISC_E9referenceEEE5valueEvE4typeESC_SC_
Iab:__ZN14Texture2DArray21AwakeFromLoadThreadedEv
jq:__ZN4PPtrI9TransformE8TransferI18StreamedBinaryReadEEvRT_
Xrg:_Touch_get_position_m3109777936_AdjustorThunk
e$n:__ZNSt3__214__split_bufferIN6il2cpp2vm5Image20EmbeddedResourceDataERNS_9allocatorIS4_EEEC2EjjS7_
K1e:__ZL66SkeletonBone_t4134054672_CustomAttributesCacheGenerator_parentNameP21CustomAttributesCache
O7m:_AnimationScriptPlayable_GetHandle_m632811930
DOg:_ServerObjectTerminatorSink_SyncProcessMessage_m2085589766
$_g:__ZN25LayoutElement_t178540367833get_address_of_m_PreferredWidth_7Ev
AZi:_X509Certificate2Collection_Add_m3151757943
Hve:__ZL83RuntimeArray_CustomAttributesCacheGenerator_RuntimeArray____LongLength_PropertyInfoP21CustomAttributesCache
EYh:_Comparer_1__cctor_m951016718_gshared
jfd:__ZNSt3__227__insertion_sort_incompleteIR15DepthComparitorP8DepthHitEEbT0_S5_T_
ezh:_CaseInsensitiveHashCodeProvider_get_DefaultInvariant_m4264275163
Dqi:__ZN27SslClientStream_t391462466128set_ServerCertValidation2_19EP42CertificateValidationCallback2_t1842476440
tLe:__ZL67IndexOutOfRangeException_t1578797820_CustomAttributesCacheGeneratorP21CustomAttributesCache
vbl:__Z195RuntimeInvoker_Int32_t2950945753_RuntimeObject_Int32_t2950945753_Int32_t2950945753_Int32_t2950945753_RuntimeObject_DecoderFallbackBufferU26_t3866396827_ByteU5BU5DU26_t4057885439_SByte_t1669577662PFvvEPK10MethodInfoPvPS4_
Xpd:__ZN11Marshalling17ArrayUnmarshallerIN9Scripting11UnityEngine15Collider2DProxyES3_E18ArrayFromContainerI13dynamic_arrayIP10Collider2DLj0EELb0EE14UnmarshalArrayERKS9_
sFa:__ZN9Scripting11UnityEngine12Experimental9Playables27MaterialEffectPlayableProxy9InitProxyEv
Apm:__ZN21TlsStream_t236545396514set_canWrite_2Eb
mko:___cxx_global_var_init_15129
Y6:__ZN5physx14PxLightCpuTask12addReferenceEv
SSa:__ZNK15InstancingProps35FillInstanceBufferDispatchConstantsIN10Instancing14RenderLoopArgsEEEvPPvjjRK19ShaderPropertySheetRKT_
Rql:__Z86RuntimeInvoker_Int32_t2950945753_Color32_t2600501292_Color32_t2600501292_RuntimeObjectPFvvEPK10MethodInfoPvPS4_
K2n:__ZN6il2cpp2gc16GarbageCollector19InitializeFinalizerEv
Oio:__ZNSt3__26__treeINS_12__value_typeIPvxEENS_19__map_value_compareIS2_S3_NS_4lessIS2_EELb1EEENS_9allocatorIS3_EEE5eraseENS_21__tree_const_iteratorIS3_PNS_11__tree_nodeIS3_S2_EEiEE
L4g:__ZNK17Shadow_t77307431923get_m_UseGraphicAlpha_7Ev
p$c:__ZN10GUIManager10DoGUIEventER10InputEventb
mKb:__Z35Transfer_Blittable_FixedBufferFieldI24GenerateTypeTreeTransferxEvRK29SerializationCommandArgumentsR31RuntimeSerializationCommandInfo
pAd:_otv_LangSys_validate
Vmg:_RectOffset_get_right_m2294081512
NSf:_TypeMetadata_IsCompatible_m3213233239
Luf:__ZN25GenericVirtActionInvoker1IP20Delegate_t1188392813E6InvokeEPK10MethodInfoP12Il2CppObjectS1_
RAl:_Array_InternalArray__set_Item_TisLink_t544317964_m1234244240_gshared
TEd:_UNITY_TT_Init_Glyph_Loading
gFe:__ZL61SerializationBinder_t274213469_CustomAttributesCacheGeneratorP21CustomAttributesCache
cie:_OptionData_get_text_m2997376818
fUf:_SerializationInfo_GetBoolean_m1756153320
V$:__Z32AudioMixerDuckingProcessCallbackP21UnityAudioEffectStatePfS1_jii
Ybh:_U3CClickRepeatU3Ec__Iterator0_System_Collections_IEnumerator_get_Current_m543328413
Reg:_Mesh_get_uv2_m3615020997
A3l:_ReadOnlyCollection_1_Contains_m2979956790_gshared
oCc:__ZN26CustomRenderTextureManagerD2Ev
wZn:__ZN15dense_hashtableINSt3__24pairIK10KeyWrapperINS1_IPKcS4_EEEiEES6_24NamespaceAndNamePairHashN14dense_hash_mapIS6_iS9_NS6_14EqualsComparerI26NamespaceAndNamePairEqualsEENS0_9allocatorIS8_EEE9SelectKeyESD_SF_E9set_valueEPS8_RKS8_
_wk:_EqualityComparer_1_System_Collections_IEqualityComparer_Equals_m4172006498_gshared
ZPi:__ZN26HttpWebRequest_t166943651516set_mediaType_17EP8String_t
TX:__ZN12AudioManager8TransferI24GenerateTypeTreeTransferEEvRT_
nHj:_StreamAsyncResult_get_AsyncState_m3822420114
hdg:_Mathf_Round_m4098141538
GXa:__Z25GetBytesFromTextureFormat13TextureFormat
JK:__ZN13dynamic_arrayI11KeyframeTplI11QuaternionfELj0EE18resize_initializedEj12ResizePolicy
Rlh:__ZNK25SmallXmlParser_t97378783912get_reader_1Ev
VVb:__ZNK11PreloadData18GetInstanceIDArrayER13dynamic_arrayIiLj0EE
wIb:__Z18Transfer_BlittableI17RemapPPtrTransferLb0EsEvRK29SerializationCommandArgumentsR31RuntimeSerializationCommandInfo
_Jg:__ZNK24ErrorMessage_t124068807310get__uri_0Ev
vVl:_Collection_1_get_Item_m4103760396_gshared
Hqf:__ZN31OpCodes_t126150456_StaticFields19set_Conv_Ovf_U8_170E17OpCode_t123070264
gyi:_AmbiguousMatchException__ctor_m2012725345
JQm:__ZNK20GUIStyle_t395690151111get_m_Ptr_0Ev
mma:__Z32scripting_class_get_assemblyname17ScriptingClassPtr
rKd:__ZN2UI13CanvasManager8SortListEv
tRd:__ZN11UnityEngine15PlatformWrapper15GetVRDeviceNameEv
_ef:__ZL109LayoutUtility_t2745813735_CustomAttributesCacheGenerator_LayoutUtility_U3CGetFlexibleWidthU3Em__3_m1091238571P21CustomAttributesCache
Nll:__Z99RuntimeInvoker_Boolean_t97287965_Int32_t2950945753_PointerEventDataU26_t867828220_SByte_t1669577662PFvvEPK10MethodInfoPvPS4_
mqd:__Z50Register_UnityEngine_Rigidbody2D_AddForce_Injectedv
IIh:_InternalEnumerator_1_get_Current_m2128158355_AdjustorThunk
Wyb:__ZN9GfxDevice21RegisterNativeTextureE9TextureIDi16TextureDimension
xro:__ZN36GameManager_t1536523654_StaticFields10set_mode_5Ei
Sme:_GraphicRegistry__ctor_m1851575309
xrl:__Z52RuntimeInvoker_Void_t1185182177_Keyframe_t4206410242PFvvEPK10MethodInfoPvPS4_
V0i:__ZNK15Key_t272552300113get_pattern_0Ev
qMe:__ZL53TypeFilter_t2356120900_CustomAttributesCacheGeneratorP21CustomAttributesCache
_jo:__ZN6il2cpp6icalls8mscorlib6System10Reflection4Emit11TypeBuilder20create_generic_classEP27Il2CppReflectionTypeBuilder
yEi:__ZNK23AssemblyName_t27093193815get_keyToken_11Ev
f2b:__ZNK16UniformCacheGLES6SubmitEjRK13dynamic_arrayIN20GpuProgramParameters14ValueParameterELj0EERKS0_IiLj0EE
S3j:_PlayableHandle_IsPlayableOfType_TisAnimationLayerMixerPlayable_t3631223897_m201603007_gshared
nIe:__ZL50Monitor_t2197244473_CustomAttributesCacheGeneratorP21CustomAttributesCache
kxn:__ZNSt3__26vectorIPK10MethodInfoNS_9allocatorIS3_EEE26__swap_out_circular_bufferERNS_14__split_bufferIS3_RS5_EE
h9h:_PrimalityTest_EndInvoke_m1035389364
M4:__Z60Register_UnityEngine_AudioListener_GetNumExtensionPropertiesv
Th:_emscripten_glUniformMatrix4fv
GQn:__ZN15dense_hashtableINSt3__24pairIK10KeyWrapperINS1_IP11Il2CppClassjEEES4_EES6_N6il2cpp8metadata14ArrayClassHashEN14dense_hash_mapIS6_S4_SB_NS6_14EqualsComparerINSA_17ArrayClassCompareEEENS0_9allocatorIS8_EEE9SelectKeyESF_SH_E13set_empty_keyERKS8_
kpb:__ZN12ScriptMapperD2Ev
u4h:_Enumerator_Dispose_m3040896940_AdjustorThunk
Kof:__ZN31OpCodes_t126150456_StaticFields13set_Bgt_Un_65E17OpCode_t123070264
Ueg:_Mesh_get_colors32_m1253190811
YRg:__ZNK30DelayedFixupRecord_t242557062417get__memberName_4Ev
Xeo:_GC_stopped_mark
a1f:_AnimationCurve_Finalize_m2397002729
xfh:_Text_OnEnable_m616205807
Vvl:__Z50RuntimeInvoker_RuntimeObject_ColorTween_t809614380PFvvEPK10MethodInfoPvPS4_
EYg:_InputField_OnFillVBO_m3649106646
ETf:_SerializationCallbacks__cctor_m1674315180
BAn:__ZN15dense_hashtableINSt3__24pairIK10KeyWrapperINS1_IPK14Il2CppAssemblyP11Il2CppClassEEEjEES9_17ReflectionMapHashIS8_EN14dense_hash_mapIS9_jSD_NS9_14EqualsComparerINS0_8equal_toIS8_EEEENS0_9allocatorISB_EEE9SelectKeyESI_SK_E15destroy_bucketsEjj
B2j:_Array_InternalArray__ICollection_Contains_TisVector4_t3319028937_m4078183023_gshared
IYg:__ZN20UIVertex_t405749760514set_position_0E19Vector3_t3722313464
gQa:__ZNSt3__26vectorIN12FlareManager10FlareEntryENS_9allocatorIS2_EEE21__push_back_slow_pathIS2_EEvOT_
yJa:__ZNK7Hash12812PackToUInt32Ev
$Zc:__ZN9Scripting11UnityEngine19GUILayoutEntryProxy9InitProxyEv
Kxh:_SynchronizedArrayListWrapper_IndexOf_m3642674350
XGe:__ZL58WindowsIdentity_t2948242406_CustomAttributesCacheGeneratorP21CustomAttributesCache
Kba:__ZN11UnityEngine15CloudWebService16SessionContainer8AddEventEPNS0_14CloudEventInfoE
LCb:__Z4TrimRKN4core12basic_stringIcNS_20StringStorageDefaultIcEEEES5_
z6l:_ReadOnlyCollection_1_CopyTo_m209634623_gshared
pTi:_SPKey_Equals_m4205549017
FEl:_Dictionary_2_Do_ICollectionCopyTo_TisKeyValuePair_2_t3842366416_m1399105608_gshared
NCm:__ZNK16Link_t339594915917get_offset_addr_1Ev
H7e:__ZL77ExecuteEvents_t3484638744_CustomAttributesCacheGenerator_U3CU3Ef__mgU24cache2P21CustomAttributesCache
kYf:__ZN24DESTransform_t408890549916set_dwordBuff_18EP24UInt32U5BU5D_t2770800703
VIi:_DynamicMethod_destroy_dynamic_method_m2651031212
dDf:_ResourceReader_Read7BitEncodedInt_m3568166465
UCo:_glGetStringi__wrapper
i2a:__ZN10VertexData8TransferI14SafeBinaryReadEEvRT_
CFk:__ZN22Enumerator_t364918432913set_current_3E39CustomAttributeNamedArgument_t287865710
mva:__ZN13RuntimeStaticI12AdsIdHandlerLb0EE16StaticInitializeEPv
aho:_GC_malloc_atomic
nHf:_ActivatedClientTypeEntry_ToString_m2494181680
zDk:_HashSet_1_GetEnumerator_m3346268098_gshared
Iko:__ZN6il2cpp5utils6Memory13AlignedMallocEjj
vci:__ZN25PrivateKeyInfo_t66802799314set__version_0Ei
ckg:_PropertyName_GetHashCode_m3570549176_AdjustorThunk
eXe:__ZL55PropertyName_t3749835189_CustomAttributesCacheGeneratorP21CustomAttributesCache
_Af:_StrongNameKeyPair_GetRSA_m2008774769
mZg:_Selectable_get_animator_m2899312855
nPi:__ZN25FtpWebRequest_t157781830517set_usePassive_11Eb
qka:__ZL20SortItemByInstanceIDRKN18AwakeFromLoadQueue4ItemES2_
Bug:_Vector2_op_Multiply_m2347887432
wle:_FontData_get_maxSize_m195374730
Yno:_RB2D_Extension_AddExplosionForce_m810102284
nOi:_TypeConverterAttribute__ctor_m1774069684
cXc:__Z36RenderTexture_CUSTOM_Internal_CreateP12Il2CppObject
UE:__ZNK34AnimationStateMachineMixerPlayable26GetInterruptedPosePlayableEv
YUd:__ZN20UnityConnectSettings8TransferI24GenerateTypeTreeTransferEEvRT_
rN:__ZN34BlobWriteTransferSTLStyleArrayImplI22OffsetPtrArrayTransferIbEEclERS1_17TransferMetaFlagsR9BlobWrite
Ihf:_OpCode_get_Value_m917085326
Pzi:_MonoType_GetConstructors_m2574682189
whd:__ZN25b2SynchronizeFixturesTask7TaskJobEPS_j
rog:_RenderTextureDescriptor_get_height_m1891977024
B6m:_AnimationMixerPlayable_GetHandle_m2198358075
NQi:__ZNK43ServicePointManager_t170559685_StaticFields22get_maxServicePoints_4Ev
J9n:__ZNK15dense_hashtableINSt3__24pairIK10KeyWrapperIPK19Il2CppGenericMethodEP10MethodInfoEES6_N6il2cpp8metadata23Il2CppGenericMethodHashEN14dense_hash_mapIS6_S9_SD_NS6_14EqualsComparerINSC_26Il2CppGenericMethodCompareEEENS0_9allocatorISA_EEE9SelectKeyESH_SJ_E10test_emptyERK30dense_hashtable_const_iteratorISA_S6_SD_SL_SH_SJ_E
nDe:__ZL59SinkProviderData_t4151372974_CustomAttributesCacheGeneratorP21CustomAttributesCache
EQi:_ServicePointManager_FindServicePoint_m4119451290
yWh:__ZN21InterfaceFuncInvoker1Ii22OrderBlock_t1585977831E6InvokeEjP11Il2CppClassP12Il2CppObjectS0_
F1d:__ZNK24EventTrigger_t107608450917get_m_Delegates_4Ev
ysa:__ZL31InitializeRendererUpdateManagerPv
rXi:__ZNK27X509Certificate2_t71404912616get__publicKey_9Ev
hjf:_ParameterInfo__ctor_m2779026345
XVg:_InputField_set_onValueChange_m1251390545
Zbm:_Func_1_EndInvoke_m3591709415_gshared
Lle:_FontData_get_verticalOverflow_m4132840071
h6n:__ZN6il2cpp2gc16GarbageCollector9StopWorldEv
thh:_DeriveBytes_set_Password_m3005258189
qCf:__ZN45NeutralResourcesLanguageAttribute_t202763353213set_culture_0EP8String_t
N3:__ZN13AudioListener12CleanupClassEv
Ira:__Z13GetIEnlightenv
Gne:__ZNK32Graphic_t1660335611_StaticFields21get_s_VertexHelper_18Ev
JVm:__ZN37VertexHelper_t2453304189_StaticFields22set_s_DefaultTangent_9E19Vector4_t3319028937
KDg:__ZN21InterfaceFuncInvoker1I19TimeSpan_t881159249P12Il2CppObjectE6InvokeEjP11Il2CppClassS2_S2_
ARf:_ObjectWriter_GetAssemblyNameId_m2316410453
Kvj:_DateTimeFormatInfo_get_LongTimePattern_m1595254249
Spm:_X509Certificate_PEM_m2020851166
WKh:__ZNK32InternalEnumerator_1_t363021427411get_array_0Ev
Mzl:_Array_InternalArray__Insert_TisDateTime_t3738529785_m2308632330_gshared
OAa:__ZL49__ManagedRegistrationHelperFunction_ProfilerProxyPv
fxl:_RNGCryptoServiceProvider_RngGetBytes_m1695806698
z6e:__ZL62RaycastHit_t1056001966_CustomAttributesCacheGenerator_m_NormalP21CustomAttributesCache
fnm:__ZN25SslStreamBase_t166741340712set_write_12EP12Il2CppObject
lgk:__ZN18Escape_t329478819012set_Source_0EP8String_t
_mi:_TlsServerCertificateRequest_ProcessAsTls1_m3214041063
LAd:_compare_uni_maps
gqm:__ZNK26X509Certificate_t48924302513get_subject_8Ev
Qil:__Z72RuntimeInvoker_Boolean_t97287965_Vector2_t2156229523_Vector2_t2156229523PFvvEPK10MethodInfoPvPS4_
Yro:__ZNK18Player_t326664731219get_bombPickSound_7Ev
Jkf:__ZNK26AssemblyBuilder_t35988525025get_corlib_object_type_35Ev
iSd:__ZN11UnityEngine15PlatformWrapper27GetGraphicsCapsSupportFlagsEv
vKd:__ZNSt3__218__insertion_sort_3IRPFbPN2UI6CanvasES3_EPS3_EEvT0_S8_T_
WNb:__ZN12NativeBufferI16Converter_StringE15SetupForWritingER9ArrayInfo
uV:__ZN13RuntimeStaticI18AssetBundleManagerLb1EE16StaticInitializeEPv
KDo:___cxa_end_catch__wrapper
ggl:__Z121RuntimeInvoker_Int32_t2950945753_RuntimeObject_Int32U26_t1369213839_Int32_t2950945753_Int32_t2950945753_Int32_t2950945753PFvvEPK10MethodInfoPvPS4_
ZYn:___cxx_global_var_init_1_13571
Ikf:__ZNK23TypeBuilder_t107394815413get_parent_10Ev
Zuh:_Char_ToString_m278452217
LFj:__ZN22MemoryStream_t9497314718set_dirty_bytes_10Ei
Pfi:_CipherSuite_get_DecryptionCipher_m2839827488
q2k:__Z32RuntimeInvoker_Boolean_t97287965PFvvEPK10MethodInfoPvPS4_
$dc:__ZNK4PPtrI5LightEcvPS0_Ev
U0e:__ZL98TextGenerator_t3211863866_CustomAttributesCacheGenerator_TextGenerator_Internal_Create_m2816846831P21CustomAttributesCache
L5h:_ValueCollection_System_Collections_Generic_ICollectionU3CTValueU3E_Contains_m875763171_gshared
f8h:_BigInteger_op_RightShift_m460065452
kXh:__ZNK34Comparer_1_t434075093_StaticFields14get__default_0Ev
g4e:__ZL61GUISkin_t1244372282_CustomAttributesCacheGenerator_m_SettingsP21CustomAttributesCache
vUn:__ZN6il2cpp6icalls8mscorlib6System5Array13ClearInternalEP11Il2CppArrayii
E5g:_RectMask2D_get_rootCanvasRect_m2913509457
tHd:__Z38TextGenerator_Get_Custom_PropLineCountP12Il2CppObject
Gnm:_InternalAsyncResult_SetComplete_m963842420
CYj:_Encoding_GetEncoding_m2801244948
iFo:b77
CCe:__ZL52_Assembly_t1988906988_CustomAttributesCacheGeneratorP21CustomAttributesCache
jDd:_tt_get_interface
Jom:_SslStreamBase_EndRead_m495357226
Xdn:_NativeThrowsAttribute_set_ThrowsException_m4039166389
sTn:__ZN6il2cpp5utils9PathUtils7CombineIcEENSt3__212basic_stringIT_NS3_11char_traitsIS5_EENS3_9allocatorIS5_EEEERKSA_SC_
O$n:__ZNK14dense_hash_setI10KeyWrapperIP18Il2CppGenericClassEN6il2cpp8metadata22Il2CppGenericClassHashENS3_14EqualsComparerINS5_25Il2CppGenericClassCompareEEENSt3__29allocatorIS3_EEE8IdentityclERKS3_
WZl:_Collection_1_System_Collections_IList_get_IsFixedSize_m214626114_gshared
Udl:__Z64RuntimeInvoker_RuntimeObject_SByte_t1669577662_SByte_t1669577662PFvvEPK10MethodInfoPvPS4_
VJc:__ZN13PlayableGraph21InvalidateMultithreadEv
cQm:_GUIScrollGroup_CalcHeight_m3173593443
RHe:__ZL86UTF7Encoding_t2644108479_CustomAttributesCacheGenerator_UTF7Encoding_Equals_m227704363P21CustomAttributesCache
MGe:__ZL59ApplicationTrust_t3270368423_CustomAttributesCacheGeneratorP21CustomAttributesCache
PJi:_EnumBuilder_GetConstructorImpl_m3068576149
sja:__Z18ConvertUTF16toUTF8PPKtS0_PPhS2_15ConversionFlags
ebk:_TableRange__ctor_m3039750162
W8n:__ZN6il2cpp2os20PathErrnoToErrorCodeERKNSt3__212basic_stringIcNS1_11char_traitsIcEENS1_9allocatorIcEEEEi
tbf:__ZL68InputField_t3762917431_CustomAttributesCacheGenerator_m_KeyboardTypeP21CustomAttributesCache
WOj:_SymmetricAlgorithm_System_IDisposable_Dispose_m3402297829
U6f:__ZN19Vector3_t37223134647set_z_3Ef
nOj:_SHA512Managed_Sigma1_m922902398
tJf:__ZNK24ProviderData_t327212331822get_CustomProperties_3Ev
D1i:__ZN22Interpreter_t5827157018set_qs_7EP23QuickSearch_t2588090110
fRn:__ZN15dense_hashtableINSt3__24pairIK10KeyWrapperIP11Il2CppClassES4_EES5_N6il2cpp8metadata16SZArrayClassHashEN14dense_hash_mapIS5_S4_SA_NS5_14EqualsComparerINS9_19SZArrayClassCompareEEENS0_9allocatorIS7_EEE9SelectKeyESE_SG_E12expand_arrayEjN21dense_hash_map_traits17integral_constantIbLb0EEE
d4f:__ZN30GenericInterfaceActionInvoker1IP18Camera_t4157153871E6InvokeEPK10MethodInfoP12Il2CppObjectS1_
xuk:_DefaultComparer_GetHashCode_m3369508712_gshared
sSl:_Enumerator_MoveNext_m3662315381_AdjustorThunk
rPh:__ZNK32InternalEnumerator_1_t17882233669get_idx_1Ev
jHf:_ActivatedClientTypeEntry_get_ApplicationUrl_m2894992111
nac:__Z23SetupStereoFlareElementP11FlareVertexRK8Vector2fS3_S3_RK11ColorRGBA32RK10Matrix4x4fRK8Vector3fb
CZm:__ZL24UnresolvedVirtualCall_25P12Il2CppObjectS0_S0_PK10MethodInfo
qnh:_AppDomain_InternalPushDomainRefByID_m1598870089
dhn:__ZN6il2cpp2vm5Class15GetInstanceSizeEPK11Il2CppClass
jmn:__ZNK10KeyWrapperIPK17Il2CppGenericInstEcvRKS2_Ev
Sa:invoke_iiiifiiii
hTf:__ZNK24ObjectRecord_t118746727211get_Next_12Ev
Evk:__ZN43EqualityComparer_1_t1804232806_StaticFields14set__default_0EP30EqualityComparer_1_t1804232806
Gti:__ZNK27NumberFormatter_t118292462112get__val4_22Ev
oXe:__ZL57ReflectionProbe_t175708936_CustomAttributesCacheGeneratorP21CustomAttributesCache
rOe:__ZL63ExpressionCollection_t1810289389_CustomAttributesCacheGeneratorP21CustomAttributesCache
Z8c:__ZN9Scripting11UnityEngine31ParticleSystemVertexStreamProxy9InitProxyEv
thi:__ZNK33CipherSuiteCollection_t112963930418get_cipherSuites_0Ev
zBl:_Array_InternalArray__set_Item_TisPlayerLoopSystem_t105772105_m93492520_gshared
vug:_Vector2_Equals_m832062989_AdjustorThunk
n1h:_ShimEnumerator_MoveNext_m2406150314_gshared
z2b:__ZL19BlitFramebufferImplRN4gles23BlitFramebufferDrawQuadER9GfxDevice9TextureIDRK8Vector4f
_Hb:__Z18Transfer_BlittableI17RemapPPtrTransferLb0EhEvRK29SerializationCommandArgumentsR31RuntimeSerializationCommandInfo
_Cn:__ZN15dense_hashtableINSt3__24pairIK10KeyWrapperIPK10Il2CppTypeEjEES6_N6il2cpp8metadata14Il2CppTypeHashEN14dense_hash_mapIS6_jSB_NS6_14EqualsComparerINSA_26Il2CppTypeEqualityComparerEEENS0_9allocatorIS8_EEE9SelectKeyESF_SH_E4findERS7_
GBo:dynCall_viiiiiiiiiiiiii
Nud:_UNITY_FT_List_Add
OCc:__ZN14Texture2DArray11InitTextureEiii13TextureFormatb
EHe:__ZL104Encoding_t1523322056_CustomAttributesCacheGenerator_Encoding_t1523322056____DecoderFallback_PropertyInfoP21CustomAttributesCache
ugm:_InvokableCall_1_Invoke_m1524307439_gshared
n5i:__ZNK22SortedList_t242769464123get_modificationCount_2Ev
deo:_total_stack_black_listed
elf:__ZNK31OpCodes_t126150456_StaticFields13get_Ldarg_0_2Ev
M3a:__ZN12CubemapArray21AwakeFromLoadThreadedEv
xaj:__ZNK19Decimal_t294825938011get_flags_5Ev
jFo:b78
Cnc:__Z34TextureStreamingCalculateLoadOrderP23TextureStreamingJobData
eCj:_Directory_CreateDirectoriesInternal_m3735342319
F9e:__ZL108U3CStartU3Ec__Iterator0_t1249263001_CustomAttributesCacheGenerator_U3CStartU3Ec__Iterator0__ctor_m1316384627P21CustomAttributesCache
jLk:_List_1_RemoveAll_m517055598_gshared
w1g:_LayoutUtility_GetLayoutProperty_m3731360667
tKn:__ZN15dense_hashtableINSt3__24pairIK10KeyWrapperINS1_IPK11Il2CppImageP11Il2CppClassEEEjEES9_17ReflectionMapHashIS8_EN14dense_hash_mapIS9_jSD_NS9_14EqualsComparerINS0_8equal_toIS8_EEEENS0_9allocatorISB_EEE9SelectKeyESI_SK_E14squash_deletedEv
LQ:__ZN25RuntimeAnimatorController8TransferI18StreamedBinaryReadEEvRT_
GOj:_SHAConstants__cctor_m1699027474
Dxf:_MonoEventInfo_t346866618_marshal_pinvoke_back
Ghd:__ZN39b2PrepareDiscreteIslandContactIndexTask7TaskJobEPS_j
Dec:__ZNK6Camera26GetStereoSingleCullEnabledEv
pLk:_List_1_TrimExcess_m4121641494_gshared
KJe:__ZL78Convert_t2465617642_CustomAttributesCacheGenerator_Convert_ToInt16_m1733792763P21CustomAttributesCache
Tkb:__Z14resize_trimmedINSt3__26vectorIN4core12basic_stringIcNS2_20StringStorageDefaultIcEEEE13stl_allocatorIS6_L18MemLabelIdentifier13ELi16EEEEEvRT_j
dca:__GLOBAL__sub_I_Runtime_2D_SpriteAtlas_0_cpp
lFb:__Z18Transfer_BlittableI14SafeBinaryReadLb0EaEvRK29SerializationCommandArgumentsR31RuntimeSerializationCommandInfo
evh:_CharEnumerator_System_Collections_IEnumerator_get_Current_m1328529384
Mej:_DBNull__ctor_m3431698857
kHf:__ZNK35ActivatedClientTypeEntry_t76123366120get_applicationUrl_2Ev
hdb:__ZN4core8hash_setINS_4pairIKiiLb0EEENS_9hash_pairINS_4hashIiEES2_iEENS_10equal_pairINSt3__28equal_toIiEES2_iEEE6insertERKS3_
r6m:_AnimationLayerMixerPlayable__ctor_m860721801
z2k:__Z98RuntimeInvoker_Boolean_t97287965_RuntimeObject_Int32_t2950945753_RuntimeObject_Int64U26_t200113976PFvvEPK10MethodInfoPvPS4_
bFd:_UNITY_FT_List_Iterate
jfe:__ZNK29ContentSizeFitter_t385044214519get_m_VerticalFit_5Ev
JUa:__ZN17GlobalGameManager8TransferI24GenerateTypeTreeTransferEEvRT_
quh:_Char_System_IConvertible_ToUInt64_m3536560782
Vvk:_EqualityComparer_1__cctor_m3452395357_gshared
E$i:_X509ChainStatus_get_Status_m2572005749_AdjustorThunk
kvc:__ZN15SerializeTraitsINSt3__26vectorIN9ShaderLab20SerializedSubProgram15MatrixParameterENS0_9allocatorIS4_EEEEE8TransferI24GenerateTypeTreeTransferEEvRS7_RT_
Sre:__Z23il2cpp_codegen_multiplyIxxEN11pick_biggerIT_T0_E4typeES1_S2_
u8b:__Z20SyncFenceCullResultsR11CullResults
d4b:__ZN15TextureTFMethod20IsBoneCountSupportedEi
VGn:__ZN10KeyWrapperINSt3__24pairIPK9EventInfoP11Il2CppClassEEEC2ERKS8_
rXg:_InputField_AssignPositioningIfNeeded_m1037632400
fmj:_Double_ToString_m3828879243_AdjustorThunk
xJb:__Z22TransferField_NonArrayI17RemapPPtrTransfer27Converter_SimpleNativeClassI8GUIStyleEEvRK23StaticTransferFieldInfoR31RuntimeSerializationCommandInfoRT0_
GJj:_TextReader_Synchronized_m3004980758
gXd:__ZNK20UnityWebRequestProtoI24UnityWebRequestTransport16AtomicRefCounter14RedirectHelper14ResponseHelper15DownloadHandler13UploadHandler18CertificateHandler12HeaderHelper14AsyncOperationE16GetUploadedBytesEv
ZDc:__ZNK17AnimationCurveTplIfE20EvaluateWithoutCacheEfRf
qil:__Z67RuntimeInvoker_Boolean_t97287965_Rect_t2360479859_SByte_t1669577662PFvvEPK10MethodInfoPvPS4_
fwl:__ZN23RC2Transform_t4583214879set_R0_12Et
RG:__ZNSt3__26vectorIP17AnimationCurveTplI8Vector3fE13stl_allocatorIS4_L18MemLabelIdentifier1ELi16EEE21__push_back_slow_pathIS4_EEvOT_
tRa:__ZN19ShaderPropertySheet10SetTextureERK23FastTexturePropertyNameP7Texture
PPb:__Z13TransferFieldI18StreamedBinaryReadLb0E27Converter_SimpleNativeClassI17AnimationCurveTplIfEEEvRK23StaticTransferFieldInfoR31RuntimeSerializationCommandInfoRT1_
CFi:_CustomAttributeData__ctor_m2966233049
gdn:__ZNSt3__211char_traitsIcE4copyEPcPKcj
Mih:__ZN25X509Extension_t317339365213set_extnOid_0EP8String_t
pde:_CanvasUpdateRegistry_PerformUpdate_m1793997159
Eli:_Context_set_ClientWriteIV_m3405909624
vLc:__ZN4Mesh10SetNormalsEPK8Vector3fj
HHa:__ZN9Scripting5Unity11Collections14AllocatorProxy12CleanupProxyEv
yee:__ZNK22ColorBlock_t213903157421get_m_DisabledColor_3Ev
swl:__ZN28RIPEMD160Managed_t249156194116set__HashValue_6EP24UInt32U5BU5D_t2770800703
WSm:_AesManaged_CreateDecryptor_m692040246
mUl:_Collection_1_System_Collections_IList_IndexOf_m2903056794_gshared
SUn:__ZN6il2cpp6icalls8mscorlib6SystemL12AssignSignedIiEEvNS2_17WidenedValueUnionEPv14Il2CppTypeEnumjj
O2m:_TextGenerationSettings_t1351628751_marshal_pinvoke_back
_J:__ZN17AnimationCurveTplIfE8TransferI14SafeBinaryReadEEvRT_
XAl:_Array_InternalArray__set_Item_TisInt16_t2552820387_m2544074754_gshared
Poh:_ArithmeticException__ctor_m3551809662
oxe:__ZL51BitArray_t4087883509_CustomAttributesCacheGeneratorP21CustomAttributesCache
wRl:__ZN21InterfaceFuncInvoker0I19Vector4_t3319028937E6InvokeEjP11Il2CppClassP12Il2CppObject
_sl:__Z72RuntimeInvoker_CustomAttributeNamedArgument_t287865710_Int32_t2950945753PFvvEPK10MethodInfoPvPS4_
epc:__Z29StdTemplateConversionFunctionIybEbPvR14SafeBinaryRead
v8a:__ZNSt3__26vectorIN15QualitySettings14QualitySettingENS_9allocatorIS2_EEE6assignIPS2_EENS_9enable_ifIXaasr21__is_forward_iteratorIT_EE5valuesr16is_constructibleIS2_NS_15iterator_traitsIS9_E9referenceEEE5valueEvE4typeES9_S9_
Pqf:__ZN31OpCodes_t126150456_StaticFields18set_Conv_Ovf_I_178E17OpCode_t123070264
iJa:__ZNK5Unity9Component10GetEnabledEv
IGm:__ZN22AnchorInfo_t338701115112set_ignore_5Eb
Kdg:__ZN21Matrix4x4_t18179018439set_m20_2Ef
R7g:_ScrollRect_get_scrollSensitivity_m2832710591
S$n:__ZN15dense_hashtableI10KeyWrapperIP18Il2CppGenericClassES3_N6il2cpp8metadata22Il2CppGenericClassHashEN14dense_hash_setIS3_S6_NS3_14EqualsComparerINS5_25Il2CppGenericClassCompareEEENSt3__29allocatorIS3_EEE8IdentityESA_SD_E9set_valueEPS3_RKS3_
zUk:__ZNK16Timer_t71667102611get_state_3Ev
rZn:__ZNK15dense_hashtableINSt3__24pairIK10KeyWrapperINS1_IPKcS4_EEEiEES6_24NamespaceAndNamePairHashN14dense_hash_mapIS6_iS9_NS6_14EqualsComparerI26NamespaceAndNamePairEqualsEENS0_9allocatorIS8_EEE9SelectKeyESD_SF_E13find_positionERS7_
rOl:_List_1_CopyTo_m1758106197_gshared
hLk:_List_1_CheckCollection_m1671972112_gshared
GNn:_il2cpp_class_get_image
iib:__ZN11TimeManager8TransferI18StreamedBinaryReadEEvRT_
KQk:_UnicodeEncoding_GetPreamble_m3002287178
Lna:__Z16AsyncReadRequestP16AsyncReadCommand
Xfn:__ZNK15dense_hashtableINSt3__24pairIK10KeyWrapperIPK22Il2CppGenericParameterEP11Il2CppClassEES6_N6il2cpp5utils11PointerHashIS4_EEN14dense_hash_mapIS6_S9_SE_NS6_14EqualsComparerINS0_8equal_toIS5_EEEENS0_9allocatorISA_EEE9SelectKeyESJ_SL_E12test_deletedEj
EWm:_AudioSource_get_spatialize_m3609701298
P1m:__ZL25UnresolvedVirtualCall_254P12Il2CppObjectPK10MethodInfo
Bdf:__ZL56Toggle_t2735377061_CustomAttributesCacheGenerator_m_IsOnP21CustomAttributesCache
rCb:__ZN20GpuProgramParameters14AddVectorParamEPKcii15ShaderParamTypeiiiP16PropertyNamesSet
Cro:__ZN18Player_t326664731215set_animator_22EP19Animator_t434523843
ioh:__ZN18VirtActionInvoker1IP24StringU5BU5D_t1281789340E6InvokeEjP12Il2CppObjectS1_
Mfi:__ZN36CipherSuite_t3414744575_StaticFields16set_EmptyArray_0EP22ByteU5BU5D_t4116647657
cDg:__ZNK41LifetimeServices_t3061370510_StaticFields25get__sponsorshipTimeout_3Ev
BWd:__ZNK12HeaderHelper3GetERKN4core12basic_stringIcNS0_20StringStorageDefaultIcEEEE
kSf:__ZNK47MethodReturnDictionary_t2551046119_StaticFields27get_InternalExceptionKeys_7Ev
Cib:__ZN9InputAxis8TransferI14SafeBinaryReadEEvRT_
Gka:__ZNK21ExecutionOrderManager30GetCustomAwakeFromLoadQueueForEPKN5Unity4TypeE
NVd:__Z27RegisterModule_UnityConnectv
lTc:__Z32Material_CUSTOM_CreateWithShaderP12Il2CppObjectS0_
X8h:__ZN16VirtFuncInvoker2IbP22BigInteger_t2902905090P12Il2CppObjectE6InvokeEjS3_S1_S3_
uAc:__ZZL31RegisterRectTransformPropertiesR22GenericPropertyBindingEN32Wrapper_RectTransformSizeDeltax013GetFloatValueEPv
_Fj:_MemoryStream_Expand_m3554752073
$Hn:__ZN6il2cpp2vm10Reflection27GetCustomAttributesCacheForEP25Il2CppReflectionParameter
tmm:__ZNK24ObjectPool_1_t277972937635get_U3CcountAllU3Ek__BackingField_3Ev
Jpg:_ScriptableObject_CreateInstance_m2611081756
Yan:__ZNK27ContactFilter2D_t380520344114get_useDepth_2Ev
xRa:__ZN20TextureStreamingData7UnshareEPS_
MTe:__ZL115TouchScreenKeyboard_t731888065_CustomAttributesCacheGenerator_TouchScreenKeyboard_Open_m3609399077____keyboardType1P21CustomAttributesCache
hTh:_InternalEnumerator_1_System_Collections_IEnumerator_get_Current_m1635397542_gshared
QGj:_Path__cctor_m3273994011
JIm:__ZN14Uri_t10023632420set_isAbsoluteUri_11Eb
vyo:__ZNSt11logic_errorD2Ev
Zfj:_DateTimeUtils_CountRepeat_m3396693018
_uj:_DateTimeFormatInfo__cctor_m4189929746
pmd:__ZNK17Physics2DSettings22GetTypeVirtualInternalEv
IFo:_glBindRenderbuffer__wrapper
W_:__ZN10ObjectPoolIN4FMOD12ChannelGroupENS0_13ChannelGroupIEE7SetSizeEi
E_d:__Z32il2cpp_codegen_static_fields_forP11Il2CppClass
HSm:_SymmetricTransform_FinalDecrypt_m764004682
Kpe:_GridLayoutGroup_SetLayoutHorizontal_m2838109254
Lzj:__ZN19Guid_t_StaticFields17set__rngAccess_12EP12Il2CppObject
pDb:__ZN9GfxDevice8OnDeleteEv
C8e:__ZL114PointerEventData_t3807901092_CustomAttributesCacheGenerator_PointerEventData_get_pointerCurrentRaycast_m2627585223P21CustomAttributesCache
IEm:_Parser_ParseGroupingConstruct_m263270497
nsn:__ZN6il2cpp2vm13MetadataCache40AddThreadLocalStaticOffsetForFieldLockedEP9FieldInfoiRKNS_2os12FastAutoLockE
w$d:_UIBehaviour_OnDisable_m1784507360
M_e:__ZL112PlayerConnection_t3081694049_CustomAttributesCacheGenerator_PlayerConnection_MessageCallbackInternal_m1914517467P21CustomAttributesCache
vea:__Z22ValidateTlsfAllocationPvjiS_
kJh:_InternalEnumerator_1_MoveNext_m3525157932_gshared
tHa:__ZN9Scripting5Unity11Collections8LowLevel6Unsafe54NativeContainerSupportsDeferredConvertListToArrayProxy12CleanupProxyEv
pR:__ZN15SerializeTraitsINSt3__24pairI8StateKey10StateRangeEEE8TransferI14SafeBinaryReadEEvRS4_RT_
DKn:__ZN14dense_hash_mapI10KeyWrapperINSt3__24pairIPK9EventInfoP11Il2CppClassEEEj17ReflectionMapHashIS8_ENS9_14EqualsComparerINS1_8equal_toIS8_EEEENS1_9allocatorINS2_IKS9_jEEEEE15set_deleted_keyERSH_
WGb:__Z14resize_trimmedINSt3__26vectorI17AnimationCurveTplIfE13stl_allocatorIS3_L18MemLabelIdentifier1ELi16EEEEEvRT_j
b1m:__ZL25UnresolvedVirtualCall_214P12Il2CppObject19Vector2_t2156229523PK10MethodInfo
DNc:__Z12GUIDToStringRK9UnityGUID
Kih:__ZN34X509ExtensionCollection_t60955470814set_readOnly_1Eb
CPf:_CodeGenerator_EmitLoadTypeAssembly_m1985536832
x1:__ZN11SoundHandleC2ERKS_
rjj:_Delegate_CreateDelegate_m1051651521
pz:__ZN17AnimationPlayableC2E18DirectorPlayerType
QTg:_InputField_set_shouldHideMobileInput_m1650743574
iqn:__ZNK6il2cpp5utils11collections13ArrayValueMapIPK10Il2CppType17Il2CppInteropData26InteropDataToTypeConverterNS_8metadata14Il2CppTypeLessENS8_26Il2CppTypeEqualityComparerEE10find_firstERKS5_
Nvj:__ZNK30DateTimeFormatInfo_t240585370122get_monthDayPattern_19Ev
zVn:__ZN6il2cpp2vm9Exception30GetTypeInitializationExceptionEPKcP15Il2CppException
ORl:_List_1_Reverse_m1445355384_gshared
Tnj:__ZN24StreamReader_t40099358999set_pos_4Ei
gQm:__ZNK26GUIScrollGroup_t152332902131get_needsHorizontalScrollbar_35Ev
ypc:__Z29StdTemplateConversionFunctionItxEbPvR14SafeBinaryRead
Vyg:_WellKnownServiceTypeEntry_get_ObjectType_m3211195371
sWm:_PCMReaderCallback_EndInvoke_m3916876196
Fr:__ZNSt3__26__sortIR23DependencySortPredicatePN4core4pairIiP9BehaviourLb0EEEEEvT0_S9_T_
JLe:__ZL65MissingMethodException_t1274661534_CustomAttributesCacheGeneratorP21CustomAttributesCache
XZf:_DSAParameters_t1885824122_marshal_pinvoke_back
aEf:__ZNK27ResourceCacheItem_t5129279118get_ResourceName_0Ev
BF:__ZN8Animator22OnGraphTopologyChangedEP8Playablei
Qik:_Kernel_MultiplyByDword_m1266935086
hzl:__ZN41RijndaelTransform_t631222241_StaticFields9set_T1_20EP24UInt32U5BU5D_t2770800703
EB:__ZN17AnimationPlayable18DeallocateBindingsEv
J4i:__ZN17Queue_t363752339311set__tail_3Ei
Wsg:_Transform_get_worldToLocalMatrix_Injected_m3487540861
hXj:_String_Trim_m3384720403
Sgg:__ZNK40PlayerEditorConnectionEvents_t341178751321get_connectionEvent_1Ev
lWa:__ZN14RenderSettings18TransferDeprecatedI14SafeBinaryReadEEvRT_
Bbl:__Z93RuntimeInvoker_Single_t1397266774_SingleU26_t1922108698_Single_t1397266774_Single_t1397266774PFvvEPK10MethodInfoPvPS4_
fVn:__ZN6il2cpp2vm9Exception27RaiseNullReferenceExceptionERKNS_5utils10StringViewIDsEEP19Il2CppSequencePoint
FLm:_Event__ctor_m526447123
Xji:__ZNK19Context_t397123470724get_sentConnectionEnd_14Ev
WLe:__ZL56RankException_t3812021567_CustomAttributesCacheGeneratorP21CustomAttributesCache
lpl:__Z72RuntimeInvoker_Boolean_t97287965_CustomAttributeNamedArgument_t287865710PFvvEPK10MethodInfoPvPS4_
hti:__ZNK27NumberFormatter_t118292462119get__decPointPos_18Ev
Pel:__Z88RuntimeInvoker_RuntimeObject_RuntimeObject_RuntimeObject_RuntimeObject_Int32_t2950945753PFvvEPK10MethodInfoPvPS4_
Jnm:__ZNK31InternalAsyncResult_t350428282013get__buffer_9Ev
vmk:__ZN24MACAlgorithm_t244121914815set_blockSize_3Ei
aYk:_Type_ToString_m3975981286
ffa:__ZN12TLSAllocatorI14StackAllocatorE8AllocateEji
_Ym:_ConsumeSampleFramesNativeFunction_BeginInvoke_m342678987
Dla:__ZN16ScriptingManager18GetMonoScriptCacheEi
Lpf:__ZN31OpCodes_t126150456_StaticFields13set_Ldfld_120E17OpCode_t123070264
oFm:_ExpressionAssertion__ctor_m2554412824
ysk:__ZNK36Dictionary_2_t132545152_StaticFields27get_U3CU3Ef__amU24cacheB_15Ev
Kck:__ZNK47MSCompatUnicodeTableUtil_t88013251_StaticFields12get_Level2_3Ev
UBl:_Array_Resize_TisCustomAttributeTypedArgument_t2723150157_m3021884250_gshared
LIh:__ZN32InternalEnumerator_1_t15017294809set_idx_1Ei
sFb:__Z18Transfer_BlittableI14SafeBinaryReadLb1EyEvRK29SerializationCommandArgumentsR31RuntimeSerializationCommandInfo
Nih:__ZN25X509Extension_t317339365218set_extnCritical_1Eb
pMi:__ZNK26ListDictionary_t162449231010get_head_2Ev
XWc:__Z41Texture2DArray_CUSTOM_Internal_CreateImplP12Il2CppObjectiii14GraphicsFormat20TextureCreationFlags
oBi:_NullReferenceException__ctor_m3076065613
y1c:__ZN8JSONRead8TransferIfEEvRT_PKc17TransferMetaFlagsb
i0g:_LayoutGroup_OnDisable_m3483954898
KQ:__ZN25RuntimeAnimatorController8TransferI17RemapPPtrTransferEEvRT_
que:__ZL73Enum_t4135868527_CustomAttributesCacheGenerator_Enum_ToObject_m3092348831P21CustomAttributesCache
rEi:_AssemblyName_get_CultureInfo_m3135152423
Pam:_Comparison_1_EndInvoke_m3981968715_gshared
Owc:__ZN9ShaderLab7Program22ComputeSupportsShadowsEv
hVi:_X509SubjectKeyIdentifierExtension_Decode_m1505409124
Uwc:__ZL23AddGpuProgramParametersR20GpuProgramParametersRKNSt3__26vectorIN9ShaderLab20SerializedSubProgram15MatrixParameterENS1_9allocatorIS5_EEEERKNS2_INS4_15VectorParameterENS6_ISB_EEEEiiP16PropertyNamesSet
Fwa:__ZN6prcoreL17RemapGenericFloatI18TexFormatARGBFloat17TexFormatRGBAHalfEEvPKNS_9InnerInfoE
LWj:_String_System_IConvertible_ToUInt16_m2888090399
w0:__ZN11AudioSource21ApplyCachedParametersE12SoundChannel
pDi:_Assembly_InternalGetType_m3065345470
PJa:__ZN18StreamedBinaryRead8TransferI8Vector4fEEvRT_PKc17TransferMetaFlags
T6:__ZN13Simd4iFactoryIN6detail9FourTupleEEC2Eiiii
jHh:_InternalEnumerator_1__ctor_m3390957028_gshared
mTf:__ZNK24ObjectRecord_t118746727212get_Member_8Ev
yEf:_ResourceSet__ctor_m3356376607
Dge:_FloatTween_set_startValue_m53556027_AdjustorThunk
C4d:_PhysicsRaycaster_get_maxRayIntersections_m3887348715
Z2m:__ZNK34TextGenerationSettings_t135162875124get_resizeTextMaxSize_11Ev
VCe:__ZL56_ParameterInfo_t489405856_CustomAttributesCacheGeneratorP21CustomAttributesCache
XZm:__ZL24UnresolvedVirtualCall_46P12Il2CppObjectS0_iPK10MethodInfo
Dbb:__ZN15SerializeTraitsI33EnlightenTerrainChunksInformationE8TransferI14SafeBinaryReadEEvRS0_RT_
MZk:_UInt32_System_IConvertible_ToByte_m4072781199_AdjustorThunk
scd:__ZN6b2Body12SetTransformERK6b2Vec2f
LDc:__ZNK32RendererMaterialAnimationBinding9BindValueER6ObjectRKN11UnityEngine9Animation14GenericBindingERNS3_10BoundCurveE
dcf:__ZL109MaskableGraphic_t3839221559_CustomAttributesCacheGenerator_MaskableGraphic_ParentMaskStateChanged_m1092090553P21CustomAttributesCache
coh:__Z37il2cpp_codegen_marshal_allocate_arrayIPcEPT_j
u3h:_Transform_1_Invoke_m1731820209_gshared
whn:__ZN6il2cpp2vm5Class11IsInterfaceEPK11Il2CppClass
Pdh:__ZN18Slider_t390372890228get_address_of_m_MaxValue_22Ev
tHe:__ZL50Decoder_t2204182725_CustomAttributesCacheGeneratorP21CustomAttributesCache
F4a:__ZL18stbir__support_onef
t0g:__ZNK45U3CDelayedSetDirtyU3Ec__Iterator0_t317050020411get_U24PC_3Ev
WIk:_Enumerator_get_Current_m2538493517_gshared
aWj:_Single_CompareTo_m189772128
l3c:__Z26Transfer_UnityEngineObjectI9JSONWriteLb0EEvRK29SerializationCommandArgumentsR31RuntimeSerializationCommandInfo
mWh:_DefaultComparer_Compare_m4042058291_gshared
Fqe:_Image_set_overrideSprite_m3213596394
o0a:__ZNSt3__26vectorIN4core12basic_stringIcNS1_20StringStorageDefaultIcEEEE13stl_allocatorIS5_L18MemLabelIdentifier1ELi16EEE6assignINS_11__wrap_iterIPS5_EEEENS_9enable_ifIXaasr21__is_forward_iteratorIT_EE5valuesr16is_constructibleIS5_NS_15iterator_traitsISF_E9referenceEEE5valueEvE4typeESF_SF_
eAo:dynCall_iiiifii
aMd:__ZNSt3__27__sort5IRNS_6__lessIN2UI14DepthSortEntryES3_EEPS3_EEjT0_S7_S7_S7_S7_T_
bDj:_FileLoadException_ToString_m2989457882
_rm:_AuthorityKeyIdentifierExtension__ctor_m2197389230
Ual:__Z165RuntimeInvoker_Void_t1185182177_UInt32U26_t3735378166_Int32_t2950945753_UInt32U26_t3735378166_Int32_t2950945753_Int32_t2950945753_Int32_t2950945753_Int32_t2950945753PFvvEPK10MethodInfoPvPS4_
tud:_UNITY_FT_DivFix
QFl:_Array_InternalArray__get_Item_TisDecimal_t2948259380_m3511003792_gshared
w9g:__ZN22ScrollRect_t413785581432set_m_HorizontalScrollbarRect_36EP25RectTransform_t3704657025
JLk:_List_1_System_Collections_IList_Remove_m3140917266_gshared
D2f:__Z47il2cpp_codegen_marshal_function_ptr_to_delegateI23UnityAction_t3245792599EPT_PFvvEP11Il2CppClass
BRj:_SecurityElement_IsValidAttributeValue_m948345692
_Cc:__ZN14Texture2DArrayC2E10MemLabelId18ObjectCreationMode
TBh:_Action_3__ctor_m967275408_gshared
lb:invoke_vdd
dn:FUNCTION_TABLE_fiii
hBe:__ZL102MethodInfo_t_CustomAttributesCacheGenerator_MethodInfo_MakeGenericMethod_m1996785325____typeArguments0P21CustomAttributesCache
WOe:__ZL75g_UnityEngine_SharedInternalsModule_Assembly_CustomAttributesCacheGeneratorP21CustomAttributesCache
ZSb:__ZN13MonoBehaviour25TransferEngineAndInstanceI19StreamedBinaryWriteEEvRT_
sJc:__Z19RegisterModule_Corev
px:__ZN14SafeBinaryRead21TransferSTLStyleArrayI19StaticArrayTransferIiLi15EEEEvRT_17TransferMetaFlags
nFl:_Mesh_SetUvsImpl_TisRuntimeObject_m2275316106_gshared
XEg:_AsyncResult_get_CallMessage_m1679778649
NUg:__ZN34TextGenerationSettings_t135162875124set_generationExtents_15E19Vector2_t2156229523
yzc:__ZNK30SpriteRendererAnimationBinding12GetPPtrValueERKN11UnityEngine9Animation10BoundCurveE
ZGd:__ZZ29InitializeTextRenderingModulevEN27cleanupAfterLoadRegistrator7ForwardEv
hD:__ZN27AnimationLayerMixerPlayable24ProcessAnimationLayerMixEP33AnimationPlayableEvaluationOutputP35AnimationPlayableEvaluationConstantP32AnimationPlayableEvaluationInputS1_if
cqj:_CCFixed_FromDateTime_m3894190577
e_i:_X509Chain_FindParent_m1515820563
_ic:__Z59ProcessShadowCasterNodeVisibilityAndCullWithoutUmbra_KernelILN17CullingParameters9LayerCullE2ELi12EEvR9IndexListRK22SceneCullingParametersPK9SceneNodePK4AABBjjPKN4math7_float4E
I5k:__Z116RuntimeInvoker_RuntimeObject_RuntimeObject_Int32_t2950945753_RuntimeObject_RuntimeObject_RuntimeObject_RuntimeObjectPFvvEPK10MethodInfoPvPS4_
zZl:_Collection_1_SetItem_m2109164320_gshared
QUf:_RuntimeMethodHandle__ctor_m2229201676_AdjustorThunk
MKf:_MessageFormatter_ReadMethodCall_m2327590823
np:__ZL54__ManagedRegistrationHelperFunction_VisionUtilityProxyPv
ACc:__Z14RandomRotationP9Texture2DPhiiii
Zug:__ZN28SinkProviderData_t415137297416set_properties_2EP21Hashtable_t1853889766
zij:_Decimal_GetBits_m453754410
vmh:__ZN25SmallXmlParser_t97378783918set_resetColumn_11Eb
PTm:_ToggleEvent__ctor_m834619998
bVh:_InternalEnumerator_1_Dispose_m436383441_AdjustorThunk
cci:_PKCS1_Encode_v15_m2077073129
CDb:__ZN10Instancing11DrawAPIArgsC2ERK19ShaderPropertySheetPK8Vector4fS6_S6_i
Esj:_NumberFormatInfo__ctor_m3445216119
Zrk:_Dictionary_2_get_Values_m2682483593_gshared
opk:_ContentInfo_get_Content_m1945593776
J0l:_Collection_1_set_Item_m4084225937_gshared
bvl:__Z51RuntimeInvoker_OrderBlock_t1585977831_RuntimeObjectPFvvEPK10MethodInfoPvPS4_
nim:__ZN18VirtActionInvoker4IP12Il2CppObjectS1_S1_S1_E6InvokeEjS1_S1_S1_S1_S1_
osa:__ZN16LightmapSettings15RemoveLightmapsEi
Tmg:_RectOffset_get_left_m1232181034
RRn:__ZNSt3__214__split_bufferIN6il2cpp8metadata18GenericArrayMethodERNS_9allocatorIS3_EEED2Ev
jDf:__ZN24ResourceInfo_t287296530218set_ResourceName_1EP8String_t
fCb:__ZN4gles14UseGLSLProgramER15DeviceStateGLESjbij
e$h:__ZN22Enumerator_t195756751616set_dictionary_0EP21Dictionary_2_t3384741
Kkl:__Z59RuntimeInvoker_Boolean_t97287965_Int32_t2950945753_IntPtr_tPFvvEPK10MethodInfoPvPS4_
qEo:_glDeleteProgram__wrapper
nEa:__ZN9Scripting11UnityEngine22ImageEffectOpaqueProxy12CleanupProxyEv
yGi:__ZN26AssemblyBuilder_t35988525026set_is_compiler_context_45Eb
S4a:__ZN6prcoreL18BlitFloatToIntegerERK14ImageReferenceRS0_
bfj:_DBNull_System_IConvertible_ToUInt32_m3784627971
aki:_ClientSessionCache_Add_m964342678
iUk:__Z25Il2CppCodeGenWriteBarrierI25TimerCallback_t1438585625EvPPT_S2_
DOc:__ZN23TransformChangeDispatch46GetAndClearChangedTransformsForMultipleSystemsEyR13dynamic_arrayI23TransformAccessReadOnlyLj0EERS0_IyLj0EEPN9profiling6MarkerE
nih:__ZNK26X509Certificate_t48924302412get_issuer_4Ev
bIf:_RemoteActivationAttribute_IsContextOK_m112778382
aIc:__Z18RegisterUnityClassI30RuntimeInitializeOnLoadManagerEvPKc
eba:__ZN11UnityEngine15CloudWebService14RestDownloader17OnCompleteContentEv
Zzn:__ZN15dense_hashtableINSt3__24pairIK10KeyWrapperINS1_IPK14Il2CppAssemblyP11Il2CppClassEEEjEES9_17ReflectionMapHashIS8_EN14dense_hash_mapIS9_jSD_NS9_14EqualsComparerINS0_8equal_toIS8_EEEENS0_9allocatorISB_EEE9SelectKeyESI_SK_E15insert_noresizeERKSB_
zDb:__ZN10Instancing11DrawAPIArgsC2Ev
zX:__ZN4FMOD3DSP12getNumInputsEPi
Nsg:_Transform_get_localScale_m129152068
Nij:_DivideByZeroException__ctor_m3496959969
c2b:__ZN26SinglePassStereoSupportExt19AfterDrawCallStereoEv
eca:___cxx_global_var_init_2_761
zah:_ScrollRect_get_layoutPriority_m1584702890
Cb:invoke_viffi
Yw:__ZN6Avatar8TransferI14SafeBinaryReadEEvRT_
jF:__ZN17AnimationPlayable28UpdateInternalStateRecursiveILi1ELb0EEEvPK35AnimationPlayableEvaluationConstant
OMf:__ZN24ObjectReader_t194095739218set_arrayBuffer_10EP22ByteU5BU5D_t4116647657
qsg:__ZNK28TrackedReference_t119977755611get_m_Ptr_0Ev
Ibm:__ZN28GenericInterfaceFuncInvoker2Ii19Vector4_t3319028937S0_E6InvokeEPK10MethodInfoP12Il2CppObjectS0_S0_
wb:invoke_vifff
Pco:__ZN6il2cpp2vm13CachedCCWBaseINS0_13ManagedObjectEE7ReleaseEv
kHo:_glGetVertexAttribiv__wrapper
ii:_emscripten_request_fullscreen
Jdm:_Predicate_1_Invoke_m851618236_gshared
Bye:__ZL67IsolatedStorageException_t3468072396_CustomAttributesCacheGeneratorP21CustomAttributesCache
soc:__ZL18CleanupModule_Jobsv
WFh:_InternalEnumerator_1_Dispose_m326441406_gshared
MTb:__ZN20LocalFileSystemWebGL6DeleteER13FileEntryDatab
Uf:_emscripten_glDisableVertexAttribArray
k3j:_Array_InternalArray__ICollection_Remove_TisSingle_t1397266774_m3361324455_gshared
En:FUNCTION_TABLE_iiiifiiii
N8j:_Array_InternalArray__ICollection_Add_TisSlot_t3975888750_m1793695076_gshared
Hwk:__ZN16VirtFuncInvoker1Ii39CustomAttributeNamedArgument_t287865710E6InvokeEjP12Il2CppObjectS0_
YSh:_InternalEnumerator_1_Dispose_m555942266_gshared
dIh:_InternalEnumerator_1__ctor_m3456047704_gshared
ka:invoke_fifffi
iei:__ZNK23ContentInfo_t321815989617get_contentType_0Ev
Xme:__ZNK19Graphic_t166033561115get_m_Canvas_11Ev
Qpj:__ZNK11Exception_t12get__data_10Ev
N0b:__ZN4gles23ClearCurrentFramebufferEP7ApiGLESbbbRK10ColorRGBAffi
pVj:_UnverifiableCodeAttribute__ctor_m3990698597
Gim:_UnityEvent_1_Invoke_m3604335408_gshared
NKe:__ZL79Convert_t2465617642_CustomAttributesCacheGenerator_Convert_ToUInt64_m2652538228P21CustomAttributesCache
If:_emscripten_glDeleteObjectARB
W0d:_EventSystem_RaycastComparer_m3685368675
f3f:_Bounds_get_size_m1178783246_AdjustorThunk
nal:__Z131RuntimeInvoker_Void_t1185182177_RuntimeObject_RuntimeObject_Int64_t3736567304_ObjectU26_t2146539884_SerializationInfoU26_t419328957PFvvEPK10MethodInfoPvPS4_
exa:__ZN6prcoreL27StretchGenericFloatBilinearI18TexFormatARGBFloatEEvPKNS_9InnerInfoE
e_m:__ZL24UnresolvedVirtualCall_55P12Il2CppObjecthPK10MethodInfo
uaf:__ZL87U3CDelayedDestroyDropdownListU3Ec__Iterator0_t3853912249_CustomAttributesCacheGeneratorP21CustomAttributesCache
ipn:__ZN10KeyWrapperIN6il2cpp5utils13dynamic_arrayIPK10Il2CppTypeLj4EEEE14EqualsComparerINS0_8metadata22Il2CppSignatureCompareEEC2ESA_
_jh:_PKCS12_RemoveCertificate_m1421555398
peh:_Slider_FindSelectableOnLeft_m1667068522
Ywa:__ZN6prcoreL17RemapGenericFloatI17TexFormatRGBAHalf18TexFormatARGBFloatEEvPKNS_9InnerInfoE
wfd:__ZNSt3__27__sort4IRN18Overlap2DQueryBase29ColliderHitsByDepthComparitorEPP10Collider2DEEjT0_S7_S7_S7_T_
M$c:__Z14GetBuiltinSkini
L6:___cxx_global_var_init_12
u6:___cxx_global_var_init_13
J6:___cxx_global_var_init_10
K6:___cxx_global_var_init_11
R2k:__Z60RuntimeInvoker_SByte_t1669577662_RuntimeObject_RuntimeObjectPFvvEPK10MethodInfoPvPS4_
xok:__ZN30SymmetricTransform_t380259184211set_temp2_4EP22ByteU5BU5D_t4116647657
kkk:_CryptoConvert_ToInt32LE_m3340980429
pZc:___cxx_global_var_init_18
U7n:__ZN6il2cpp2os10ThreadImpl13SetWaitObjectEPNS0_5posix15PosixWaitObjectE
Drf:__ZN31OpCodes_t126150456_StaticFields13set_Cpblk_220E17OpCode_t123070264
Bt:__ZN9Scripting11UnityEngine19AnimationStateProxy9InitProxyEv
Upb:__ZN2UI13RectTransform23VirtualRedirectTransferER14SafeBinaryRead
Zkb:__ZN24GenerateTypeTreeTransfer8TransferINSt3__26vectorIN4core12basic_stringIcNS3_20StringStorageDefaultIcEEEE13stl_allocatorIS7_L18MemLabelIdentifier13ELi16EEEEEEvRT_PKc17TransferMetaFlags
fZj:__Z25Il2CppCodeGenWriteBarrierI27EncoderFallback_t1188251036EvPPT_S2_
v4h:_Enumerator_MoveNext_m3045873697_gshared
kBb:__ZN18AsyncUploadManager19AsyncResourceUploadER9GfxDeviceii
Iso:__ZNK27RandomTextColor_t310108882416get_frequency_10Ev
d5g:__ZN20RawImage_t318291896426get_address_of_m_UVRect_31Ev
Euc:__ZNSt3__26vectorIN9ShaderLab20SerializedSubProgramENS_9allocatorIS2_EEE6assignIPS2_EENS_9enable_ifIXaasr21__is_forward_iteratorIT_EE5valuesr16is_constructibleIS2_NS_15iterator_traitsIS9_E9referenceEEE5valueEvE4typeES9_S9_
z5c:__Z18Transfer_BlittableI8JSONReadLb0E8BitFieldEvRK29SerializationCommandArgumentsR31RuntimeSerializationCommandInfo
Yuh:_Char_ToString_m3588025615_AdjustorThunk
kDk:_HashSet_1_CopyTo_m2849056227_gshared
Ovk:__Z25Il2CppCodeGenWriteBarrierI30EqualityComparer_1_t1908302121EvPPT_S2_
QDm:_CapturingGroup_get_Index_m3406974370
Fun:__ZN6il2cpp2gc9AllocatorIP17Il2CppAsyncResultEC2Ev
yik:_ModulusRing_Multiply_m343333088
Zro:_Player_OnCollisionEnter2D_m1729129017
ASn:__ZN15dense_hashtableINSt3__24pairIK10KeyWrapperINS1_IP11Il2CppClassjEEES4_EES6_N6il2cpp8metadata14ArrayClassHashEN14dense_hash_mapIS6_S4_SB_NS6_14EqualsComparerINSA_17ArrayClassCompareEEENS0_9allocatorIS8_EEE9SelectKeyESF_SH_E13clear_deletedER30dense_hashtable_const_iteratorIS8_S6_SB_SJ_SF_SH_E
z1e:__ZL76AnimatorTransitionInfo_t2534804151_CustomAttributesCacheGenerator_m_AnyStateP21CustomAttributesCache
Dsc:__ZN9ShaderLab14SerializedPass8TransferI14SafeBinaryReadEEvRT_
MNc:__Z22FindGameObjectsWithTagI13dynamic_arrayIP10GameObjectLj0EEEvjRT_
Pkd:__ZNSt3__26__sortIRN10ClipperLib12LocMinSorterEPNS1_12LocalMinimumEEEvT0_S6_T_
u2e:__ZL77AudioClip_t3680889665_CustomAttributesCacheGenerator_m_PCMSetPositionCallbackP21CustomAttributesCache
nni:__ZNK26TlsServerHello_t334385959418get_cipherSuite_12Ev
eFe:__ZL64OnSerializedAttribute_t2595932830_CustomAttributesCacheGeneratorP21CustomAttributesCache
LUn:__ZN6il2cpp6icalls8mscorlib6SystemL14AssignUnsignedIhEEvNS2_17WidenedValueUnionEPv14Il2CppTypeEnumjj
e6f:_StateChanged_EndInvoke_m3313423087
nc:invoke_viiiiiiiiiii
crj:__ZN23CultureInfo_t415784306824set_m_useUserOverride_13Eb
Mtm:_DeriveBytes_set_Salt_m1400945044
fig:__ZN19Playable_t45982560714set_m_Handle_0E26PlayableHandle_t1095853803
y6d:_PointerEventData_set_worldNormal_m1888481930
Qno:__ZNK16Bomb_t378866992118get_freezeSprite_6Ev
Bgm:__ZN27InvokableCall_1_t227339376125get_address_of_Delegate_0Ev
lce:_CanvasScaler_set_referencePixelsPerUnit_m1768965301
MGm:_AnchorInfo__ctor_m46784903
n0n:__ZNSt3__218uninitialized_copyIP10KeyWrapperIP18Il2CppGenericClassES5_EET0_T_S7_S6_
shi:_CipherSuiteCollection_get_Item_m4188309062
Umm:_SslHandshakeHash_HashFinal_m2573455475
OBg:_SynchronizationAttribute_ReleaseLock_m1030353464
zHc:__ZN14qsort_internal30FindAndMovePivotToLastPositionIP8Vector2fi26PointDistanceSortPredicateEEvT_S4_T0_T1_
nhl:__Z63RuntimeInvoker_RenderTextureFormat_t962350765_Int32_t2950945753PFvvEPK10MethodInfoPvPS4_
aoh:_AppDomain_ProcessMessageInDomain_m1871749965
Gao:__ZN4utf88internal13validate_nextIPKcEENS0_9utf_errorERT_S5_Rj
Cdf:__ZL53ToggleGroup_t123837990_CustomAttributesCacheGeneratorP21CustomAttributesCache
Axg:__ZNK29SoapTypeAttribute_t175093081721get__xmlElementName_4Ev
b5c:__Z18Transfer_BlittableI8JSONReadLb1E10ColorRGBAfEvRK29SerializationCommandArgumentsR31RuntimeSerializationCommandInfo
D4i:__ZN27QueueEnumerator_t414071424413set_current_2Ei
LYg:_InputField_CreateCursorVerts_m3585916868
_qk:_KeyValuePair_2_get_Value_m755756747_gshared
wXc:__Z34Register_UnityEngine_Gradient_Initv
Sli:__ZNK19Context_t397123470710get_read_7Ev
j0g:_LayoutGroup_OnDidApplyAnimationProperties_m1333813659
cck:__ZN24TailoringInfo_t86643365420set_TailoringIndex_1Ei
VKi:_GenericTypeParameterBuilder_IsArrayImpl_m67259334
pAg:_Context_ToString_m1073616138
_$j:_EncoderReplacementFallback_get_DefaultString_m3956016810
xgf:_OpCode_get_OperandType_m1634816806
mAi:_DefaultMemberAttribute_get_MemberName_m3384235354
Gzo:dynCall_fiiffi
Bab:__ZN13ScreenManager23SetIsOrientationEnabledE18EnabledOrientationb
kTg:_InputField_EnforceTextHOverflow_m3400115777
PAo:dynCall_viffffii
FJl:_List_1_System_Collections_IEnumerable_GetEnumerator_m1225415523_gshared
r9n:__ZN15dense_hashtableINSt3__24pairIK10KeyWrapperIPK19Il2CppGenericMethodEP10MethodInfoEES6_N6il2cpp8metadata23Il2CppGenericMethodHashEN14dense_hash_mapIS6_S9_SD_NS6_14EqualsComparerINSC_26Il2CppGenericMethodCompareEEENS0_9allocatorISA_EEE9SelectKeyESH_SJ_E9set_valueEPSA_RKSA_
ywo:_readlink
uil:__Z41RuntimeInvoker_TextureWrapMode_t584250749PFvvEPK10MethodInfoPvPS4_
csi:__Z33il2cpp_codegen_check_sub_overflowxx
DPe:__ZL98NativeMethodAttribute_t4187428193_CustomAttributesCacheGenerator_U3CIsThreadSafeU3Ek__BackingFieldP21CustomAttributesCache
GVg:_InputField_get_caretColor_m2973283772
Olm:_ListPool_1_Release_m591299672_gshared
Bhd:__ZN14qsort_internal5QSortIPN25b2SynchronizeFixturesTask14b2DeferredMoveEiPFbRKS2_S5_EEEvT_S8_T0_T1_
Mve:__ZL160U3CGetEnumeratorU3Ec__Iterator0_t1202911786_CustomAttributesCacheGenerator_U3CGetEnumeratorU3Ec__Iterator0_System_Collections_IEnumerator_get_Current_m596993724P21CustomAttributesCache
p5g:_RectMask2D_get_Canvas_m9990042
LSh:_InternalEnumerator_1_MoveNext_m1096095130_AdjustorThunk
q3d:__ZN38ExecuteEvents_t3484638744_StaticFields27set_s_PointerClickHandler_4EP27EventFunction_1_t3111972472
ajm:_UnityEvent_1_AddListener_m1590149461_gshared
e4e:__ZL63GUISkin_t1244372282_CustomAttributesCacheGenerator_m_ScrollViewP21CustomAttributesCache
yWe:__ZL62SortingGroupsUpdate_t3400410071_CustomAttributesCacheGeneratorP21CustomAttributesCache
t3n:__ZN6il2cpp2vm12GenericClass10GetContextEP18Il2CppGenericClass
